MODULE windows x86 623F261EA2D5469E90E41181998DC4B19 ETDaemon.pdb
INFO CODE_ID 56AEAFE72EA000 ETDaemon.exe
FUNC 1000 1c 0 `dynamic initializer for 'std::_Error_objects<int>::_Generic_object''
FUNC 1020 1c 0 `dynamic initializer for 'std::_Error_objects<int>::_Iostream_object''
FUNC 1040 1c 0 `dynamic initializer for 'std::_Error_objects<int>::_System_object''
FUNC 1060 12 0 `dynamic initializer for 'std::num_put<char,std::back_insert_iterator<std::basic_string<char,std::char_traits<char>,std::allocator<char> > > >::id''
FUNC 1080 12 0 `dynamic initializer for 'std::num_put<wchar_t,std::back_insert_iterator<std::basic_string<wchar_t,std::char_traits<wchar_t>,std::allocator<wchar_t> > > >::id''
FUNC 10a0 d 0 std::`dynamic initializer for '_Tuple_alloc''
FUNC 10b0 d 0 std::`dynamic initializer for 'allocator_arg''
FUNC 10c0 f 0 std::`dynamic initializer for 'ignore''
FUNC 10d0 d 0 std::`dynamic initializer for 'piecewise_construct''
FUNC 10e0 d 0 std::`dynamic initializer for 'allocator_arg''
FUNC 10f0 d 0 std::`dynamic initializer for 'piecewise_construct''
FUNC 1100 d 0 std::`dynamic initializer for 'allocator_arg''
FUNC 1110 d 0 std::`dynamic initializer for 'piecewise_construct''
FUNC 1120 d 0 std::`dynamic initializer for 'allocator_arg''
FUNC 1130 d 0 std::`dynamic initializer for 'piecewise_construct''
FUNC 1140 d 0 std::`dynamic initializer for 'allocator_arg''
FUNC 1150 d 0 std::`dynamic initializer for 'piecewise_construct''
FUNC 1160 d 0 std::`dynamic initializer for '_Tuple_alloc''
FUNC 1170 d 0 std::`dynamic initializer for 'allocator_arg''
FUNC 1180 f 0 std::`dynamic initializer for 'ignore''
FUNC 1190 d 0 std::`dynamic initializer for 'piecewise_construct''
FUNC 11a0 d 0 std::`dynamic initializer for '_Tuple_alloc''
FUNC 11b0 d 0 std::`dynamic initializer for 'allocator_arg''
FUNC 11c0 f 0 std::`dynamic initializer for 'ignore''
FUNC 11d0 d 0 std::`dynamic initializer for 'piecewise_construct''
FUNC 11e0 d 0 std::`dynamic initializer for '_Tuple_alloc''
FUNC 11f0 d 0 std::`dynamic initializer for 'allocator_arg''
FUNC 1200 f 0 std::`dynamic initializer for 'ignore''
FUNC 1210 d 0 std::`dynamic initializer for 'piecewise_construct''
FUNC 1220 d 0 std::`dynamic initializer for '_Tuple_alloc''
FUNC 1230 d 0 std::`dynamic initializer for 'allocator_arg''
FUNC 1240 f 0 std::`dynamic initializer for 'ignore''
FUNC 1250 d 0 std::`dynamic initializer for 'piecewise_construct''
FUNC 1260 d 0 std::`dynamic initializer for '_Tuple_alloc''
FUNC 1270 d 0 std::`dynamic initializer for 'allocator_arg''
FUNC 1280 f 0 std::`dynamic initializer for 'ignore''
FUNC 1290 d 0 std::`dynamic initializer for 'piecewise_construct''
FUNC 12a0 d 0 std::`dynamic initializer for '_Tuple_alloc''
FUNC 12b0 d 0 std::`dynamic initializer for 'allocator_arg''
FUNC 12c0 f 0 std::`dynamic initializer for 'ignore''
FUNC 12d0 d 0 std::`dynamic initializer for 'piecewise_construct''
FUNC 12e0 d 0 std::`dynamic initializer for '_Tuple_alloc''
FUNC 12f0 d 0 std::`dynamic initializer for 'allocator_arg''
FUNC 1300 f 0 std::`dynamic initializer for 'ignore''
FUNC 1310 d 0 std::`dynamic initializer for 'piecewise_construct''
FUNC 1320 d 0 std::`dynamic initializer for '_Tuple_alloc''
FUNC 1330 d 0 std::`dynamic initializer for 'allocator_arg''
FUNC 1340 f 0 std::`dynamic initializer for 'ignore''
FUNC 1350 d 0 std::`dynamic initializer for 'piecewise_construct''
FUNC 1360 f 0 `dynamic initializer for 'staticQGenericEnginePluginInstance''
FUNC 1370 f 0 `dynamic initializer for 'staticQNativeWifiEnginePluginInstance''
FUNC 1380 d 0 std::`dynamic initializer for '_Tuple_alloc''
FUNC 1390 d 0 std::`dynamic initializer for 'allocator_arg''
FUNC 13a0 f 0 std::`dynamic initializer for 'ignore''
FUNC 13b0 d 0 std::`dynamic initializer for 'piecewise_construct''
FUNC 13c0 d 0 std::`dynamic initializer for '_Tuple_alloc''
FUNC 13d0 d 0 std::`dynamic initializer for 'allocator_arg''
FUNC 13e0 f 0 std::`dynamic initializer for 'ignore''
FUNC 13f0 d 0 std::`dynamic initializer for 'piecewise_construct''
FUNC 1400 d 0 std::`dynamic initializer for '_Tuple_alloc''
FUNC 1410 d 0 std::`dynamic initializer for 'allocator_arg''
FUNC 1420 f 0 std::`dynamic initializer for 'ignore''
FUNC 1430 d 0 std::`dynamic initializer for 'piecewise_construct''
FUNC 1440 21 0 `dynamic initializer for 'Logging::_LOG_DIRNAME''
FUNC 1470 d 0 std::`dynamic initializer for '_Tuple_alloc''
FUNC 1480 d 0 std::`dynamic initializer for 'allocator_arg''
FUNC 1490 f 0 std::`dynamic initializer for 'ignore''
FUNC 14a0 d 0 std::`dynamic initializer for 'piecewise_construct''
FUNC 14b0 21 0 `dynamic initializer for 'DataStore::_CLIENT_CERT_FILENAME''
FUNC 14e0 21 0 `dynamic initializer for 'DataStore::_CLIENT_KEY_FILENAME''
FUNC 1510 21 0 `dynamic initializer for 'DataStore::_CLIENT_NAME_FILENAME''
FUNC 1540 21 0 `dynamic initializer for 'DataStore::_EL_TOPO_DIRNAME''
FUNC 1570 21 0 `dynamic initializer for 'DataStore::_LATEST_CLIENT_NAME_FILENAME''
FUNC 15a0 21 0 `dynamic initializer for 'DataStore::_ROOT_CERT_FILEMANE''
FUNC 15d0 21 0 `dynamic initializer for 'DataStore::_USER_ID_FILENAME''
FUNC 1600 21 0 `dynamic initializer for 'DataStore::_USER_NAME_FILENAME''
FUNC 1630 d 0 std::`dynamic initializer for '_Tuple_alloc''
FUNC 1640 d 0 std::`dynamic initializer for 'allocator_arg''
FUNC 1650 f 0 std::`dynamic initializer for 'ignore''
FUNC 1660 d 0 std::`dynamic initializer for 'piecewise_construct''
FUNC 1670 d 0 std::`dynamic initializer for '_Tuple_alloc''
FUNC 1680 d 0 std::`dynamic initializer for 'allocator_arg''
FUNC 1690 f 0 std::`dynamic initializer for 'ignore''
FUNC 16a0 d 0 std::`dynamic initializer for 'piecewise_construct''
FUNC 16b0 d 0 std::`dynamic initializer for '_Tuple_alloc''
FUNC 16c0 d 0 std::`dynamic initializer for 'allocator_arg''
FUNC 16d0 f 0 std::`dynamic initializer for 'ignore''
FUNC 16e0 d 0 std::`dynamic initializer for 'piecewise_construct''
FUNC 16f0 21 0 `dynamic initializer for 'Request::_CONTENT_TYPE_HEADER_NAME''
FUNC 1720 21 0 `dynamic initializer for 'Request::_ET_API_VERSION''
FUNC 1750 21 0 `dynamic initializer for 'Request::_ET_CLIENT_ID_HEADER_NAME''
FUNC 1780 21 0 `dynamic initializer for 'Request::_ET_PASSWORD_HEADER_NAME''
FUNC 17b0 21 0 `dynamic initializer for 'Request::_ET_PROTO''
FUNC 17e0 21 0 `dynamic initializer for 'Request::_ET_SERVER_HOSTNAME''
FUNC 1810 21 0 `dynamic initializer for 'Request::_ET_USER_ID_HEADER_NAME''
FUNC 1840 21 0 `dynamic initializer for 'Request::_JSON_CONTENT_TYPE_HEADER_VALUE''
FUNC 1870 d 0 std::`dynamic initializer for '_Tuple_alloc''
FUNC 1880 d 0 std::`dynamic initializer for 'allocator_arg''
FUNC 1890 f 0 std::`dynamic initializer for 'ignore''
FUNC 18a0 d 0 std::`dynamic initializer for 'piecewise_construct''
FUNC 18b0 d 0 std::`dynamic initializer for '_Tuple_alloc''
FUNC 18c0 d 0 std::`dynamic initializer for 'allocator_arg''
FUNC 18d0 f 0 std::`dynamic initializer for 'ignore''
FUNC 18e0 d 0 std::`dynamic initializer for 'piecewise_construct''
FUNC 18f0 21 0 `dynamic initializer for 'SocketUtils::CONNECT_TO_VPN_COMMAND''
FUNC 1920 21 0 `dynamic initializer for 'SocketUtils::DATA_SEPARATOR''
FUNC 1950 21 0 `dynamic initializer for 'SocketUtils::DISCONNECT_FROM_VPN_COMMAND''
FUNC 1980 21 0 `dynamic initializer for 'SocketUtils::INITIALIZE_COMMAND''
FUNC 19b0 21 0 `dynamic initializer for 'SocketUtils::LOCALHOST''
FUNC 19e0 21 0 `dynamic initializer for 'SocketUtils::PING_COMMAND''
FUNC 1a10 21 0 `dynamic initializer for 'SocketUtils::TERMINATE_SESSION_COMMAND''
FUNC 1a40 d 0 std::`dynamic initializer for '_Tuple_alloc''
FUNC 1a50 d 0 std::`dynamic initializer for 'allocator_arg''
FUNC 1a60 f 0 std::`dynamic initializer for 'ignore''
FUNC 1a70 d 0 std::`dynamic initializer for 'piecewise_construct''
FUNC 1a80 d 0 std::`dynamic initializer for '_Tuple_alloc''
FUNC 1a90 d 0 std::`dynamic initializer for 'allocator_arg''
FUNC 1aa0 f 0 std::`dynamic initializer for 'ignore''
FUNC 1ab0 d 0 std::`dynamic initializer for 'piecewise_construct''
FUNC 1ac0 d 0 std::`dynamic initializer for '_Tuple_alloc''
FUNC 1ad0 d 0 std::`dynamic initializer for 'allocator_arg''
FUNC 1ae0 f 0 std::`dynamic initializer for 'ignore''
FUNC 1af0 d 0 std::`dynamic initializer for 'piecewise_construct''
FUNC 1b00 d 0 std::`dynamic initializer for '_Tuple_alloc''
FUNC 1b10 d 0 std::`dynamic initializer for 'allocator_arg''
FUNC 1b20 f 0 std::`dynamic initializer for 'ignore''
FUNC 1b30 d 0 std::`dynamic initializer for 'piecewise_construct''
FUNC 1b40 d 0 std::`dynamic initializer for '_Tuple_alloc''
FUNC 1b50 d 0 std::`dynamic initializer for 'allocator_arg''
FUNC 1b60 f 0 std::`dynamic initializer for 'ignore''
FUNC 1b70 d 0 std::`dynamic initializer for 'piecewise_construct''
FUNC 1b80 d 0 std::`dynamic initializer for '_Tuple_alloc''
FUNC 1b90 d 0 std::`dynamic initializer for 'allocator_arg''
FUNC 1ba0 f 0 std::`dynamic initializer for 'ignore''
FUNC 1bb0 d 0 std::`dynamic initializer for 'piecewise_construct''
FUNC 1bc0 d 0 std::`dynamic initializer for 'allocator_arg''
FUNC 1bd0 d 0 std::`dynamic initializer for 'piecewise_construct''
FUNC 1be0 d 0 std::`dynamic initializer for '_Tuple_alloc''
FUNC 1bf0 d 0 std::`dynamic initializer for 'allocator_arg''
FUNC 1c00 f 0 std::`dynamic initializer for 'ignore''
FUNC 1c10 d 0 std::`dynamic initializer for 'piecewise_construct''
FUNC 1c20 d 0 std::`dynamic initializer for '_Tuple_alloc''
FUNC 1c30 d 0 std::`dynamic initializer for 'allocator_arg''
FUNC 1c40 f 0 std::`dynamic initializer for 'ignore''
FUNC 1c50 d 0 std::`dynamic initializer for 'piecewise_construct''
FUNC 1c60 d 0 std::`dynamic initializer for '_Tuple_alloc''
FUNC 1c70 d 0 std::`dynamic initializer for 'allocator_arg''
FUNC 1c80 f 0 std::`dynamic initializer for 'ignore''
FUNC 1c90 d 0 std::`dynamic initializer for 'piecewise_construct''
FUNC 1ca0 d 0 std::`dynamic initializer for 'allocator_arg''
FUNC 1cb0 d 0 std::`dynamic initializer for 'piecewise_construct''
FUNC 1cc0 d 0 std::`dynamic initializer for '_Tuple_alloc''
FUNC 1cd0 d 0 std::`dynamic initializer for 'allocator_arg''
FUNC 1ce0 f 0 std::`dynamic initializer for 'ignore''
FUNC 1cf0 d 0 std::`dynamic initializer for 'piecewise_construct''
FUNC 1d00 21 0 `dynamic initializer for 'StatusRequest::_ET_STATUS_VERSION_HEADER_NAME''
FUNC 1d30 d 0 std::`dynamic initializer for '_Tuple_alloc''
FUNC 1d40 d 0 std::`dynamic initializer for 'allocator_arg''
FUNC 1d50 f 0 std::`dynamic initializer for 'ignore''
FUNC 1d60 d 0 std::`dynamic initializer for 'piecewise_construct''
FUNC 1d70 d 0 std::`dynamic initializer for '_Tuple_alloc''
FUNC 1d80 d 0 std::`dynamic initializer for 'allocator_arg''
FUNC 1d90 f 0 std::`dynamic initializer for 'ignore''
FUNC 1da0 d 0 std::`dynamic initializer for 'piecewise_construct''
FUNC 1db0 d 0 std::`dynamic initializer for '_Tuple_alloc''
FUNC 1dc0 d 0 std::`dynamic initializer for 'allocator_arg''
FUNC 1dd0 f 0 std::`dynamic initializer for 'ignore''
FUNC 1de0 d 0 std::`dynamic initializer for 'piecewise_construct''
FUNC 1df0 d 0 std::`dynamic initializer for '_Tuple_alloc''
FUNC 1e00 d 0 std::`dynamic initializer for 'allocator_arg''
FUNC 1e10 f 0 std::`dynamic initializer for 'ignore''
FUNC 1e20 d 0 std::`dynamic initializer for 'piecewise_construct''
FUNC 1e30 d 0 std::`dynamic initializer for '_Tuple_alloc''
FUNC 1e40 d 0 std::`dynamic initializer for 'allocator_arg''
FUNC 1e50 f 0 std::`dynamic initializer for 'ignore''
FUNC 1e60 d 0 std::`dynamic initializer for 'piecewise_construct''
FUNC 1f50 8b 0 QtBreakpad::init(QString const &,bool (*)(void *,_EXCEPTION_POINTERS *,MDRawAssertionInfo *),bool (*)(wchar_t const *,wchar_t const *,void *,_EXCEPTION_POINTERS *,MDRawAssertionInfo *,bool),void *)
FUNC 1fe0 87 0 QtBreakpad::init(QString const &,bool (*)(QFile &,void *),void *)
FUNC 2070 3d 0 QtBreakpad::replaceInstance(QtBreakpad *)
FUNC 20b0 28 0 QtBreakpad::QtBreakpad(QString const &,bool (*)(void *,_EXCEPTION_POINTERS *,MDRawAssertionInfo *),bool (*)(wchar_t const *,wchar_t const *,void *,_EXCEPTION_POINTERS *,MDRawAssertionInfo *,bool),void *)
FUNC 20e0 a2 0 QtBreakpad::QtBreakpad(QString const &,bool (*)(QFile &,void *),void *)
FUNC 2190 62 0 QtBreakpad::~QtBreakpad()
FUNC 2200 bf 0 QtBreakpad::buildBreakpadHandler(QString const &,bool (*)(void *,_EXCEPTION_POINTERS *,MDRawAssertionInfo *),bool (*)(wchar_t const *,wchar_t const *,void *,_EXCEPTION_POINTERS *,MDRawAssertionInfo *,bool),void *)
FUNC 22c0 173 0 QtBreakpad::qMinidumpWrapper(wchar_t const *,wchar_t const *,QtBreakpad::QMinidumpContextWrapper *,_EXCEPTION_POINTERS *,MDRawAssertionInfo *,bool)
FUNC 2440 3b 0 std::_Allocate<char>(unsigned int,char *)
FUNC 2480 40 0 std::_Allocate<wchar_t>(unsigned int,wchar_t *)
FUNC 24c0 86 0 std::allocator<char>::construct<char *,char * &>(char * *,char * &)
FUNC 2550 1e 0 std::allocator_traits<std::allocator<char> >::construct<char *,char * &>(std::allocator<char> &,char * *,char * &)
FUNC 2570 31 0 QAtomicOpsBySize<4>::deref<int>(int &)
FUNC 25b0 d 0 std::allocator<char>::destroy<char *>(char * *)
FUNC 25c0 11 0 std::allocator_traits<std::allocator<wchar_t> >::destroy<wchar_t *>(std::allocator<wchar_t> &,wchar_t * *)
FUNC 25e0 a 0 QGenericAtomicOps<QAtomicOpsBySize<4> >::load<int>(int const &)
FUNC 25f0 15 0 qSwap<QTypedArrayData<unsigned short> *>(QTypedArrayData<unsigned short> * &,QTypedArrayData<unsigned short> * &)
FUNC 2610 33 0 QAtomicOpsBySize<4>::ref<int>(int &)
FUNC 2650 3f 0 std::swap<QTypedArrayData<unsigned short> *>(QTypedArrayData<unsigned short> * &,QTypedArrayData<unsigned short> * &)
FUNC 2690 18 0 std::_String_alloc<0,std::_String_base_types<wchar_t,std::allocator<wchar_t> > >::_String_alloc<0,std::_String_base_types<wchar_t,std::allocator<wchar_t> > >(std::allocator<wchar_t> const &)
FUNC 26b0 22 0 std::_String_val<std::_Simple_types<wchar_t> >::_String_val<std::_Simple_types<wchar_t> >()
FUNC 26e0 3b 0 std::basic_string<char,std::char_traits<char>,std::allocator<char> >::basic_string<char,std::char_traits<char>,std::allocator<char> >(char const *)
FUNC 2720 3b 0 std::basic_string<wchar_t,std::char_traits<wchar_t>,std::allocator<wchar_t> >::basic_string<wchar_t,std::char_traits<wchar_t>,std::allocator<wchar_t> >(wchar_t const *)
FUNC 2760 21 0 QtBreakpad::QMinidumpContextWrapper::QMinidumpContextWrapper(bool (*)(QFile &,void *),void *)
FUNC 2790 24 0 QString::QString(QString &&)
FUNC 27c0 29 0 QString::QString(QString const &)
FUNC 27f0 18 0 QString::QString()
FUNC 2810 1f 0 std::_Generic_error_category::_Generic_error_category()
FUNC 2830 e 0 std::allocator<wchar_t>::allocator<wchar_t>()
FUNC 2840 1f 0 std::_Iostream_error_category::_Iostream_error_category()
FUNC 2860 1f 0 std::_System_error_category::_System_error_category()
FUNC 2880 17 0 std::error_category::error_category()
FUNC 28a0 17 0 std::basic_string<wchar_t,std::char_traits<wchar_t>,std::allocator<wchar_t> >::~basic_string<wchar_t,std::char_traits<wchar_t>,std::allocator<wchar_t> >()
FUNC 28c0 b 0 QtBreakpad::QMinidumpContextWrapper::~QMinidumpContextWrapper()
FUNC 28d0 2a 0 QString::~QString()
FUNC 2900 13 0 std::_Generic_error_category::~_Generic_error_category()
FUNC 2920 13 0 std::_Iostream_error_category::~_Iostream_error_category()
FUNC 2940 14 0 std::error_category::~error_category()
FUNC 2960 8 0 operator new(unsigned int,void *)
FUNC 2970 5 0 operator delete(void *,void *)
FUNC 2980 2a 0 std::error_category::operator==(std::error_category const &)
FUNC 29b0 59 0 std::error_condition::operator==(std::error_condition const &)
FUNC 2a10 a9 0 operator+(QString const &,char const *)
FUNC 2ac0 19 0 QString::operator+=(QString const &)
FUNC 2ae0 2c 0 google_breakpad::ExceptionHandler::`scalar deleting destructor'(unsigned int)
FUNC 2b10 2c 0 QtBreakpad::QMinidumpContextWrapper::`scalar deleting destructor'(unsigned int)
FUNC 2b40 2c 0 QtBreakpad::`scalar deleting destructor'(unsigned int)
FUNC 2b70 2c 0 std::_Generic_error_category::`scalar deleting destructor'(unsigned int)
FUNC 2ba0 2c 0 std::_Iostream_error_category::`scalar deleting destructor'(unsigned int)
FUNC 2bd0 2c 0 std::error_category::`scalar deleting destructor'(unsigned int)
FUNC 2c00 1b5 0 std::basic_string<char,std::char_traits<char>,std::allocator<char> >::_Copy(unsigned int,unsigned int)
FUNC 2dc0 1b5 0 std::basic_string<wchar_t,std::char_traits<wchar_t>,std::allocator<wchar_t> >::_Copy(unsigned int,unsigned int)
FUNC 2f80 34 0 std::basic_string<char,std::char_traits<char>,std::allocator<char> >::_Eos(unsigned int)
FUNC 2fc0 39 0 std::basic_string<wchar_t,std::char_traits<wchar_t>,std::allocator<wchar_t> >::_Eos(unsigned int)
FUNC 3000 a7 0 std::basic_string<char,std::char_traits<char>,std::allocator<char> >::_Grow(unsigned int,bool)
FUNC 30b0 a7 0 std::basic_string<wchar_t,std::char_traits<wchar_t>,std::allocator<wchar_t> >::_Grow(unsigned int,bool)
FUNC 3160 3b 0 std::basic_string<char,std::char_traits<char>,std::allocator<char> >::_Inside(char const *)
FUNC 31a0 3e 0 std::basic_string<wchar_t,std::char_traits<wchar_t>,std::allocator<wchar_t> >::_Inside(wchar_t const *)
FUNC 31e0 32 0 std::_String_val<std::_Simple_types<char> >::_Myptr()
FUNC 3220 32 0 std::_String_val<std::_Simple_types<wchar_t> >::_Myptr()
FUNC 3260 9b 0 std::basic_string<char,std::char_traits<char>,std::allocator<char> >::_Tidy(bool,unsigned int)
FUNC 3300 9b 0 std::basic_string<wchar_t,std::char_traits<wchar_t>,std::allocator<wchar_t> >::_Tidy(bool,unsigned int)
FUNC 33a0 16 0 std::basic_string<wchar_t,std::char_traits<wchar_t>,std::allocator<wchar_t> >::_Xlen()
FUNC 33c0 16 0 std::basic_string<wchar_t,std::char_traits<wchar_t>,std::allocator<wchar_t> >::_Xran()
FUNC 33e0 19 0 std::_Wrap_alloc<std::allocator<char> >::allocate(unsigned int)
FUNC 3400 19 0 std::_Wrap_alloc<std::allocator<wchar_t> >::allocate(unsigned int)
FUNC 3420 1b 0 std::allocator<char>::allocate(unsigned int)
FUNC 3440 1b 0 std::allocator<wchar_t>::allocate(unsigned int)
FUNC 3460 ac 0 std::basic_string<char,std::char_traits<char>,std::allocator<char> >::assign(std::basic_string<char,std::char_traits<char>,std::allocator<char> > const &,unsigned int,unsigned int)
FUNC 3510 26 0 std::basic_string<char,std::char_traits<char>,std::allocator<char> >::assign(char const *)
FUNC 3540 7d 0 std::basic_string<char,std::char_traits<char>,std::allocator<char> >::assign(char const *,unsigned int)
FUNC 35c0 af 0 std::basic_string<wchar_t,std::char_traits<wchar_t>,std::allocator<wchar_t> >::assign(std::basic_string<wchar_t,std::char_traits<wchar_t>,std::allocator<wchar_t> > const &,unsigned int,unsigned int)
FUNC 3670 26 0 std::basic_string<wchar_t,std::char_traits<wchar_t>,std::allocator<wchar_t> >::assign(wchar_t const *)
FUNC 36a0 7f 0 std::basic_string<wchar_t,std::char_traits<wchar_t>,std::allocator<wchar_t> >::assign(wchar_t const *,unsigned int)
FUNC 3720 f 0 std::char_traits<char>::assign(char &,char const &)
FUNC 3730 11 0 std::char_traits<wchar_t>::assign(wchar_t &,wchar_t const &)
FUNC 3750 11 0 std::error_condition::category()
FUNC 3770 30 0 std::char_traits<char>::copy(char *,char const *,unsigned int)
FUNC 37a0 30 0 std::char_traits<wchar_t>::copy(wchar_t *,wchar_t const *,unsigned int)
FUNC 37d0 15 0 QTypedArrayData<unsigned short>::deallocate(QArrayData *)
FUNC 37f0 4c 0 std::_System_error_category::default_error_condition(int)
FUNC 3840 20 0 std::error_category::default_error_condition(int)
FUNC 3860 17 0 QBasicAtomicInteger<int>::deref()
FUNC 3880 34 0 QtPrivate::RefCount::deref()
FUNC 38c0 47 0 std::error_category::equivalent(std::error_code const &,int)
FUNC 3910 2f 0 std::error_category::equivalent(int,std::error_condition const &)
FUNC 3940 2f 0 std::basic_string<char,std::char_traits<char>,std::allocator<char> >::erase(unsigned int)
FUNC 3970 87 0 std::basic_string<char,std::char_traits<char>,std::allocator<char> >::erase(unsigned int,unsigned int)
FUNC 3a00 2f 0 std::basic_string<wchar_t,std::char_traits<wchar_t>,std::allocator<wchar_t> >::erase(unsigned int)
FUNC 3a30 8d 0 std::basic_string<wchar_t,std::char_traits<wchar_t>,std::allocator<wchar_t> >::erase(unsigned int,unsigned int)
FUNC 3ac0 54 0 QString::fromUtf8(char const *,int)
FUNC 3b20 100 0 QString::fromWCharArray(wchar_t const *,int)
FUNC 3c20 a 0 std::generic_category()
FUNC 3c30 2d 0 std::char_traits<char>::length(char const *)
FUNC 3c60 2e 0 std::char_traits<wchar_t>::length(wchar_t const *)
FUNC 3c90 17 0 QBasicAtomicInteger<int>::load()
FUNC 3cb0 17 0 std::_Wrap_alloc<std::allocator<char> >::max_size()
FUNC 3cd0 17 0 std::_Wrap_alloc<std::allocator<wchar_t> >::max_size()
FUNC 3cf0 e 0 std::allocator<char>::max_size()
FUNC 3d00 10 0 std::allocator<wchar_t>::max_size()
FUNC 3d10 d 0 std::allocator_traits<std::allocator<char> >::max_size(std::allocator<char> const &)
FUNC 3d20 d 0 std::allocator_traits<std::allocator<wchar_t> >::max_size(std::allocator<wchar_t> const &)
FUNC 3d30 3e 0 std::basic_string<char,std::char_traits<char>,std::allocator<char> >::max_size()
FUNC 3d70 3e 0 std::basic_string<wchar_t,std::char_traits<wchar_t>,std::allocator<wchar_t> >::max_size()
FUNC 3db0 53 0 std::_Generic_error_category::message(int)
FUNC 3e10 55 0 std::_Iostream_error_category::message(int)
FUNC 3e70 53 0 std::_System_error_category::message(int)
FUNC 3ed0 31 0 std::char_traits<char>::move(char *,char const *,unsigned int)
FUNC 3f10 30 0 std::char_traits<wchar_t>::move(wchar_t *,wchar_t const *,unsigned int)
FUNC 3f40 10 0 std::_Generic_error_category::name()
FUNC 3f50 10 0 std::_Iostream_error_category::name()
FUNC 3f60 10 0 std::_System_error_category::name()
FUNC 3f70 17 0 QBasicAtomicInteger<int>::ref()
FUNC 3f90 32 0 QtPrivate::RefCount::ref()
FUNC 3fd0 a 0 QArrayData::sharedNull()
FUNC 3fe0 11 0 std::basic_string<wchar_t,std::char_traits<wchar_t>,std::allocator<wchar_t> >::size()
FUNC 4000 a 0 std::system_category()
FUNC 4010 1b 0 wmemcpy
FUNC 4030 1c 0 wmemmove
FUNC 4050 ba 0 google_breakpad::ExceptionHandler::ExceptionHandler(std::basic_string<wchar_t,std::char_traits<wchar_t>,std::allocator<wchar_t> > const &,bool (*)(void *,_EXCEPTION_POINTERS *,MDRawAssertionInfo *),bool (*)(wchar_t const *,wchar_t const *,void *,_EXCEPTION_POINTERS *,MDRawAssertionInfo *,bool),void *,int)
FUNC 4110 c0 0 google_breakpad::ExceptionHandler::ExceptionHandler(std::basic_string<wchar_t,std::char_traits<wchar_t>,std::allocator<wchar_t> > const &,bool (*)(void *,_EXCEPTION_POINTERS *,MDRawAssertionInfo *),bool (*)(wchar_t const *,wchar_t const *,void *,_EXCEPTION_POINTERS *,MDRawAssertionInfo *,bool),void *,int,_MINIDUMP_TYPE,wchar_t const *,google_breakpad::CustomClientInfo const *)
FUNC 41d0 c0 0 google_breakpad::ExceptionHandler::ExceptionHandler(std::basic_string<wchar_t,std::char_traits<wchar_t>,std::allocator<wchar_t> > const &,bool (*)(void *,_EXCEPTION_POINTERS *,MDRawAssertionInfo *),bool (*)(wchar_t const *,wchar_t const *,void *,_EXCEPTION_POINTERS *,MDRawAssertionInfo *,bool),void *,int,_MINIDUMP_TYPE,void *,google_breakpad::CustomClientInfo const *)
FUNC 4290 bc 0 google_breakpad::ExceptionHandler::ExceptionHandler(std::basic_string<wchar_t,std::char_traits<wchar_t>,std::allocator<wchar_t> > const &,bool (*)(void *,_EXCEPTION_POINTERS *,MDRawAssertionInfo *),bool (*)(wchar_t const *,wchar_t const *,void *,_EXCEPTION_POINTERS *,MDRawAssertionInfo *,bool),void *,int,google_breakpad::CrashGenerationClient *)
FUNC 4350 2a7 0 google_breakpad::ExceptionHandler::~ExceptionHandler()
FUNC 4600 23 0 google_breakpad::ExceptionHandler::RequestUpload(unsigned long)
FUNC 4630 88 0 google_breakpad::ExceptionHandler::WriteMinidump()
FUNC 46c0 51 0 google_breakpad::ExceptionHandler::WriteMinidumpForException(_EXCEPTION_POINTERS *)
FUNC 4720 8f 0 google_breakpad::ExceptionHandler::WriteMinidump(std::basic_string<wchar_t,std::char_traits<wchar_t>,std::allocator<wchar_t> > const &,bool (*)(wchar_t const *,wchar_t const *,void *,_EXCEPTION_POINTERS *,MDRawAssertionInfo *,bool),void *)
FUNC 47b0 1d0 0 google_breakpad::ExceptionHandler::WriteMinidumpForChild(void *,unsigned long,std::basic_string<wchar_t,std::char_traits<wchar_t>,std::allocator<wchar_t> > const &,bool (*)(wchar_t const *,wchar_t const *,void *,_EXCEPTION_POINTERS *,MDRawAssertionInfo *,bool),void *)
FUNC 4980 a3 0 google_breakpad::ExceptionHandler::RegisterAppMemory(void *,unsigned int)
FUNC 4a30 87 0 google_breakpad::ExceptionHandler::UnregisterAppMemory(void *)
FUNC 4ac0 489 0 google_breakpad::ExceptionHandler::Initialize(std::basic_string<wchar_t,std::char_traits<wchar_t>,std::allocator<wchar_t> > const &,bool (*)(void *,_EXCEPTION_POINTERS *,MDRawAssertionInfo *),bool (*)(wchar_t const *,wchar_t const *,void *,_EXCEPTION_POINTERS *,MDRawAssertionInfo *,bool),void *,int,_MINIDUMP_TYPE,wchar_t const *,void *,google_breakpad::CrashGenerationClient *,google_breakpad::CustomClientInfo const *)
FUNC 4f50 88 0 google_breakpad::ExceptionHandler::ExceptionHandlerThreadMain(void *)
FUNC 4fe0 156 0 google_breakpad::ExceptionHandler::HandleException(_EXCEPTION_POINTERS *)
FUNC 5140 233 0 google_breakpad::ExceptionHandler::HandleInvalidParameter(wchar_t const *,wchar_t const *,wchar_t const *,unsigned int,unsigned int)
FUNC 5380 1c4 0 google_breakpad::ExceptionHandler::HandlePureVirtualCall()
FUNC 5550 d3 0 google_breakpad::ExceptionHandler::WriteMinidumpOnHandlerThread(_EXCEPTION_POINTERS *,MDRawAssertionInfo *)
FUNC 5630 cc 0 google_breakpad::ExceptionHandler::WriteMinidumpWithException(unsigned long,_EXCEPTION_POINTERS *,MDRawAssertionInfo *)
FUNC 5700 cc 0 google_breakpad::ExceptionHandler::MinidumpWriteDumpCallback(void *,_MINIDUMP_CALLBACK_INPUT * const,_MINIDUMP_CALLBACK_OUTPUT *)
FUNC 57d0 32d 0 google_breakpad::ExceptionHandler::WriteMinidumpWithExceptionForProcess(unsigned long,_EXCEPTION_POINTERS *,MDRawAssertionInfo *,void *,bool)
FUNC 5b00 144 0 google_breakpad::ExceptionHandler::UpdateNextID()
FUNC 5c50 2a 0 std::operator==<std::allocator<wchar_t>,std::allocator<wchar_t> >(std::_Wrap_alloc<std::allocator<wchar_t> > const &,std::_Wrap_alloc<std::allocator<wchar_t> > const &)
FUNC 5c80 32 0 std::operator!=<std::allocator<wchar_t>,std::allocator<wchar_t> >(std::_Wrap_alloc<std::allocator<wchar_t> > const &,std::_Wrap_alloc<std::allocator<wchar_t> > const &)
FUNC 5cc0 3f 0 std::_Allocate<std::_List_node<google_breakpad::AppMemory,void *> >(unsigned int,std::_List_node<google_breakpad::AppMemory,void *> *)
FUNC 5d00 e0 0 std::_List_buy<google_breakpad::AppMemory,std::allocator<google_breakpad::AppMemory> >::_Buynode<google_breakpad::AppMemory const &>(std::_List_node<google_breakpad::AppMemory,void *> *,std::_List_node<google_breakpad::AppMemory,void *> *,google_breakpad::AppMemory const &)
FUNC 5de0 2d 0 std::_Find<std::_List_unchecked_iterator<std::_List_val<std::_List_simple_types<google_breakpad::AppMemory> > >,void *>(std::_List_unchecked_iterator<std::_List_val<std::_List_simple_types<google_breakpad::AppMemory> > >,std::_List_unchecked_iterator<std::_List_val<std::_List_simple_types<google_breakpad::AppMemory> > >,void * const &)
FUNC 5e10 4d 0 std::_Find<std::_List_unchecked_iterator<std::_List_val<std::_List_simple_types<google_breakpad::AppMemory> > >,void *>(std::_List_unchecked_iterator<std::_List_val<std::_List_simple_types<google_breakpad::AppMemory> > >,std::_List_unchecked_iterator<std::_List_val<std::_List_simple_types<google_breakpad::AppMemory> > >,void * const &,std::integral_constant<bool,0>)
FUNC 5e60 7c 0 std::list<google_breakpad::AppMemory,std::allocator<google_breakpad::AppMemory> >::_Insert<google_breakpad::AppMemory const &>(std::_List_unchecked_const_iterator<std::_List_val<std::_List_simple_types<google_breakpad::AppMemory> >,std::_Iterator_base0>,google_breakpad::AppMemory const &)
FUNC 5ee0 34 0 std::_Move<google_breakpad::ExceptionHandler * *,google_breakpad::ExceptionHandler * *>(google_breakpad::ExceptionHandler * *,google_breakpad::ExceptionHandler * *,google_breakpad::ExceptionHandler * *)
FUNC 5f20 35 0 std::_Move<google_breakpad::ExceptionHandler * *,google_breakpad::ExceptionHandler * *>(google_breakpad::ExceptionHandler * *,google_breakpad::ExceptionHandler * *,google_breakpad::ExceptionHandler * *,std::_Scalar_ptr_iterator_tag)
FUNC 5f60 11 0 std::_Rechecked<std::_List_val<std::_List_simple_types<google_breakpad::AppMemory> > >(std::_List_iterator<std::_List_val<std::_List_simple_types<google_breakpad::AppMemory> > > &,std::_List_unchecked_iterator<std::_List_val<std::_List_simple_types<google_breakpad::AppMemory> > >)
FUNC 5f80 14 0 std::_Unchecked<std::_List_val<std::_List_simple_types<google_breakpad::AppMemory> > >(std::_List_iterator<std::_List_val<std::_List_simple_types<google_breakpad::AppMemory> > >)
FUNC 5fa0 49 0 std::basic_string<wchar_t,std::char_traits<wchar_t>,std::allocator<wchar_t> >::assign<std::_String_iterator<std::_String_val<std::_Simple_types<wchar_t> > > >(std::_String_iterator<std::_String_val<std::_Simple_types<wchar_t> > >,std::_String_iterator<std::_String_val<std::_Simple_types<wchar_t> > >)
FUNC 5ff0 2a 0 std::_Wrap_alloc<std::allocator<google_breakpad::ExceptionHandler *> >::construct<google_breakpad::ExceptionHandler *,google_breakpad::ExceptionHandler * &>(google_breakpad::ExceptionHandler * *,google_breakpad::ExceptionHandler * &)
FUNC 6020 2a 0 std::_Wrap_alloc<std::allocator<std::_List_node<google_breakpad::AppMemory,void *> > >::construct<google_breakpad::AppMemory,google_breakpad::AppMemory const &>(google_breakpad::AppMemory *,google_breakpad::AppMemory const &)
FUNC 6050 98 0 std::allocator<std::_List_node<google_breakpad::AppMemory,void *> >::construct<google_breakpad::AppMemory,google_breakpad::AppMemory const &>(google_breakpad::AppMemory *,google_breakpad::AppMemory const &)
FUNC 60f0 1e 0 std::allocator_traits<std::allocator<std::_List_node<google_breakpad::AppMemory,void *> > >::construct<google_breakpad::AppMemory,google_breakpad::AppMemory const &>(std::allocator<std::_List_node<google_breakpad::AppMemory,void *> > &,google_breakpad::AppMemory *,google_breakpad::AppMemory const &)
FUNC 6110 1d 0 std::_Wrap_alloc<std::allocator<google_breakpad::ExceptionHandler *> >::destroy<google_breakpad::ExceptionHandler *>(google_breakpad::ExceptionHandler * *)
FUNC 6130 59 0 std::find<std::_List_iterator<std::_List_val<std::_List_simple_types<google_breakpad::AppMemory> > >,void *>(std::_List_iterator<std::_List_val<std::_List_simple_types<google_breakpad::AppMemory> > >,std::_List_iterator<std::_List_val<std::_List_simple_types<google_breakpad::AppMemory> > >,void * const &)
FUNC 6190 49 0 std::max<unsigned __int64>(unsigned __int64 const &,unsigned __int64 const &)
FUNC 61e0 49 0 std::min<unsigned __int64>(unsigned __int64 const &,unsigned __int64 const &)
FUNC 6230 25 0 std::_List_alloc<0,std::_List_base_types<google_breakpad::AppMemory,std::allocator<google_breakpad::AppMemory> > >::_List_alloc<0,std::_List_base_types<google_breakpad::AppMemory,std::allocator<google_breakpad::AppMemory> > >(std::allocator<google_breakpad::AppMemory> const &)
FUNC 6260 1c 0 std::_List_buy<google_breakpad::AppMemory,std::allocator<google_breakpad::AppMemory> >::_List_buy<google_breakpad::AppMemory,std::allocator<google_breakpad::AppMemory> >(std::allocator<google_breakpad::AppMemory> const &)
FUNC 6280 20 0 std::_Vector_iterator<std::_Vector_val<std::_Simple_types<google_breakpad::ExceptionHandler *> > >::_Vector_iterator<std::_Vector_val<std::_Simple_types<google_breakpad::ExceptionHandler *> > >(google_breakpad::ExceptionHandler * *,std::_Container_base0 const *)
FUNC 62a0 16 0 std::_List_const_iterator<std::_List_val<std::_List_simple_types<google_breakpad::AppMemory> > >::_List_const_iterator<std::_List_val<std::_List_simple_types<google_breakpad::AppMemory> > >()
FUNC 62c0 20 0 std::_List_iterator<std::_List_val<std::_List_simple_types<google_breakpad::AppMemory> > >::_List_iterator<std::_List_val<std::_List_simple_types<google_breakpad::AppMemory> > >(std::_List_node<google_breakpad::AppMemory,void *> *,std::_List_val<std::_List_simple_types<google_breakpad::AppMemory> > const *)
FUNC 62e0 17 0 std::_List_unchecked_const_iterator<std::_List_val<std::_List_simple_types<google_breakpad::AppMemory> >,std::_Iterator_base0>::_List_unchecked_const_iterator<std::_List_val<std::_List_simple_types<google_breakpad::AppMemory> >,std::_Iterator_base0>()
FUNC 6300 21 0 std::_List_val<std::_List_simple_types<google_breakpad::AppMemory> >::_List_val<std::_List_simple_types<google_breakpad::AppMemory> >()
FUNC 6330 24 0 std::_String_const_iterator<std::_String_val<std::_Simple_types<wchar_t> > >::_String_const_iterator<std::_String_val<std::_Simple_types<wchar_t> > >(wchar_t const *,std::_Container_base0 const *)
FUNC 6360 20 0 std::_String_iterator<std::_String_val<std::_Simple_types<wchar_t> > >::_String_iterator<std::_String_val<std::_Simple_types<wchar_t> > >(wchar_t *,std::_Container_base0 const *)
FUNC 6380 18 0 std::_Vector_alloc<0,std::_Vec_base_types<google_breakpad::ExceptionHandler *,std::allocator<google_breakpad::ExceptionHandler *> > >::_Vector_alloc<0,std::_Vec_base_types<google_breakpad::ExceptionHandler *,std::allocator<google_breakpad::ExceptionHandler *> > >(std::allocator<google_breakpad::ExceptionHandler *> const &)
FUNC 63a0 16 0 std::_Wrap_alloc<std::allocator<std::_List_node<google_breakpad::AppMemory,void *> > >::_Wrap_alloc<std::allocator<std::_List_node<google_breakpad::AppMemory,void *> > >()
FUNC 63c0 10 0 std::allocator<wchar_t>::allocator<wchar_t>(std::allocator<wchar_t> const &)
FUNC 63d0 2d 0 std::basic_string<wchar_t,std::char_traits<wchar_t>,std::allocator<wchar_t> >::basic_string<wchar_t,std::char_traits<wchar_t>,std::allocator<wchar_t> >()
FUNC 6400 21 0 std::list<google_breakpad::AppMemory,std::allocator<google_breakpad::AppMemory> >::list<google_breakpad::AppMemory,std::allocator<google_breakpad::AppMemory> >()
FUNC 6430 83 0 google_breakpad::AutoExceptionHandler::AutoExceptionHandler()
FUNC 64c0 21 0 google_breakpad::MinidumpCallbackContext::MinidumpCallbackContext()
FUNC 64f0 19 0 std::_List_alloc<0,std::_List_base_types<google_breakpad::AppMemory,std::allocator<google_breakpad::AppMemory> > >::~_List_alloc<0,std::_List_base_types<google_breakpad::AppMemory,std::allocator<google_breakpad::AppMemory> > >()
FUNC 6510 13 0 std::_List_buy<google_breakpad::AppMemory,std::allocator<google_breakpad::AppMemory> >::~_List_buy<google_breakpad::AppMemory,std::allocator<google_breakpad::AppMemory> >()
FUNC 6530 1b 0 std::list<google_breakpad::AppMemory,std::allocator<google_breakpad::AppMemory> >::~list<google_breakpad::AppMemory,std::allocator<google_breakpad::AppMemory> >()
FUNC 6550 37 0 google_breakpad::scoped_ptr<google_breakpad::CrashGenerationClient>::~scoped_ptr<google_breakpad::CrashGenerationClient>()
FUNC 6590 4a 0 google_breakpad::AutoExceptionHandler::~AutoExceptionHandler()
FUNC 65e0 a9 0 std::basic_string<wchar_t,std::char_traits<wchar_t>,std::allocator<wchar_t> >::operator=(std::basic_string<wchar_t,std::char_traits<wchar_t>,std::allocator<wchar_t> > &&)
FUNC 6690 74 0 std::basic_string<wchar_t,std::char_traits<wchar_t>,std::allocator<wchar_t> >::operator=(std::basic_string<wchar_t,std::char_traits<wchar_t>,std::allocator<wchar_t> > const &)
FUNC 6710 19 0 std::basic_string<wchar_t,std::char_traits<wchar_t>,std::allocator<wchar_t> >::operator=(wchar_t const *)
FUNC 6730 2e 0 std::_List_unchecked_const_iterator<std::_List_val<std::_List_simple_types<google_breakpad::AppMemory> >,std::_Iterator_base0>::operator==(std::_List_unchecked_const_iterator<std::_List_val<std::_List_simple_types<google_breakpad::AppMemory> >,std::_Iterator_base0> const &)
FUNC 6760 3a 0 std::_String_const_iterator<std::_String_val<std::_Simple_types<wchar_t> > >::operator==(std::_String_const_iterator<std::_String_val<std::_Simple_types<wchar_t> > > const &)
FUNC 67a0 47 0 google_breakpad::AppMemory::operator==(void const *)
FUNC 67f0 35 0 std::_List_const_iterator<std::_List_val<std::_List_simple_types<google_breakpad::AppMemory> > >::operator!=(std::_List_const_iterator<std::_List_val<std::_List_simple_types<google_breakpad::AppMemory> > > const &)
FUNC 6830 1c 0 std::_List_unchecked_const_iterator<std::_List_val<std::_List_simple_types<google_breakpad::AppMemory> >,std::_Iterator_base0>::operator->()
FUNC 6850 19 0 std::_List_const_iterator<std::_List_val<std::_List_simple_types<google_breakpad::AppMemory> > >::operator*()
FUNC 6870 13 0 std::_List_unchecked_iterator<std::_List_val<std::_List_simple_types<google_breakpad::AppMemory> > >::operator*()
FUNC 6890 13 0 std::_String_iterator<std::_String_val<std::_Simple_types<wchar_t> > >::operator*()
FUNC 68b0 10 0 google_breakpad::AutoExceptionHandler::get_handler()
FUNC 68c0 2a 0 std::_List_const_iterator<std::_List_val<std::_List_simple_types<google_breakpad::AppMemory> > >::operator++(int)
FUNC 68f0 23 0 std::_List_const_iterator<std::_List_val<std::_List_simple_types<google_breakpad::AppMemory> > >::operator++()
FUNC 6920 16 0 std::_List_unchecked_iterator<std::_List_val<std::_List_simple_types<google_breakpad::AppMemory> > >::operator++()
FUNC 6940 1b 0 std::_Vector_const_iterator<std::_Vector_val<std::_Simple_types<google_breakpad::ExceptionHandler *> > >::operator++()
FUNC 6960 16 0 std::_Vector_iterator<std::_Vector_val<std::_Simple_types<google_breakpad::ExceptionHandler *> > >::operator++()
FUNC 6980 25 0 std::_String_const_iterator<std::_String_val<std::_Simple_types<wchar_t> > >::operator-(std::_String_const_iterator<std::_String_val<std::_Simple_types<wchar_t> > > const &)
FUNC 69b0 23 0 std::_String_iterator<std::_String_val<std::_Simple_types<wchar_t> > >::operator-(std::_String_const_iterator<std::_String_val<std::_Simple_types<wchar_t> > > const &)
FUNC 69e0 2d 0 std::_Vector_iterator<std::_Vector_val<std::_Simple_types<google_breakpad::ExceptionHandler *> > >::operator-(int)
FUNC 6a10 20 0 std::_Vector_const_iterator<std::_Vector_val<std::_Simple_types<google_breakpad::ExceptionHandler *> > >::operator+=(int)
FUNC 6a30 1c 0 std::_Vector_iterator<std::_Vector_val<std::_Simple_types<google_breakpad::ExceptionHandler *> > >::operator+=(int)
FUNC 6a50 1b 0 std::_Vector_iterator<std::_Vector_val<std::_Simple_types<google_breakpad::ExceptionHandler *> > >::operator-=(int)
FUNC 6a70 2c 0 std::vector<google_breakpad::ExceptionHandler *,std::allocator<google_breakpad::ExceptionHandler *> >::`scalar deleting destructor'(unsigned int)
FUNC 6aa0 2c 0 google_breakpad::CrashGenerationClient::`scalar deleting destructor'(unsigned int)
FUNC 6ad0 2f 0 google_breakpad::ExceptionHandler::IsOutOfProcess()
FUNC 6b00 7c 0 std::basic_string<wchar_t,std::char_traits<wchar_t>,std::allocator<wchar_t> >::_Assign_rv(std::basic_string<wchar_t,std::char_traits<wchar_t>,std::allocator<wchar_t> > &&)
FUNC 6b80 17 0 std::_List_alloc<0,std::_List_base_types<google_breakpad::AppMemory,std::allocator<google_breakpad::AppMemory> > >::_Buyheadnode()
FUNC 6ba0 11f 0 std::_List_alloc<0,std::_List_base_types<google_breakpad::AppMemory,std::allocator<google_breakpad::AppMemory> > >::_Buynode0(std::_List_node<google_breakpad::AppMemory,void *> *,std::_List_node<google_breakpad::AppMemory,void *> *)
FUNC 6cc0 7a 0 std::_List_alloc<0,std::_List_base_types<google_breakpad::AppMemory,std::allocator<google_breakpad::AppMemory> > >::_Freeheadnode(std::_List_node<google_breakpad::AppMemory,void *> *)
FUNC 6d40 a3 0 std::_List_buy<google_breakpad::AppMemory,std::allocator<google_breakpad::AppMemory> >::_Freenode(std::_List_node<google_breakpad::AppMemory,void *> *)
FUNC 6df0 d 0 std::_Iterator_base0::_Getcont()
FUNC 6e00 59 0 std::vector<google_breakpad::ExceptionHandler *,std::allocator<google_breakpad::ExceptionHandler *> >::_Grow_to(unsigned int)
FUNC 6e60 3d 0 std::list<google_breakpad::AppMemory,std::allocator<google_breakpad::AppMemory> >::_Incsize(unsigned int)
FUNC 6ea0 37 0 std::vector<google_breakpad::ExceptionHandler *,std::allocator<google_breakpad::ExceptionHandler *> >::_Inside(google_breakpad::ExceptionHandler * const *)
FUNC 6ee0 20 0 std::list<google_breakpad::AppMemory,std::allocator<google_breakpad::AppMemory> >::_Make_iter(std::_List_const_iterator<std::_List_val<std::_List_simple_types<google_breakpad::AppMemory> > >)
FUNC 6f00 20 0 std::vector<google_breakpad::ExceptionHandler *,std::allocator<google_breakpad::ExceptionHandler *> >::_Make_iter(std::_Vector_const_iterator<std::_Vector_val<std::_Simple_types<google_breakpad::ExceptionHandler *> > >)
FUNC 6f20 b 0 std::_List_val<std::_List_simple_types<google_breakpad::AppMemory> >::_Myval(std::_List_node<google_breakpad::AppMemory,void *> *)
FUNC 6f30 d 0 std::vector<google_breakpad::ExceptionHandler *,std::allocator<google_breakpad::ExceptionHandler *> >::_Orphan_range(google_breakpad::ExceptionHandler * *,google_breakpad::ExceptionHandler * *)
FUNC 6f40 29 0 std::basic_string<wchar_t,std::char_traits<wchar_t>,std::allocator<wchar_t> >::_Pdif(std::_String_const_iterator<std::_String_val<std::_Simple_types<wchar_t> > >,std::_String_const_iterator<std::_String_val<std::_Simple_types<wchar_t> > >)
FUNC 6f70 b 0 std::_List_val<std::_List_simple_types<google_breakpad::AppMemory> >::_Prevnode(std::_List_node<google_breakpad::AppMemory,void *> *)
FUNC 6f80 138 0 std::vector<google_breakpad::ExceptionHandler *,std::allocator<google_breakpad::ExceptionHandler *> >::_Reallocate(unsigned int)
FUNC 70c0 5a 0 std::vector<google_breakpad::ExceptionHandler *,std::allocator<google_breakpad::ExceptionHandler *> >::_Reserve(unsigned int)
FUNC 7120 13 0 std::list<google_breakpad::AppMemory,std::allocator<google_breakpad::AppMemory> >::_Tidy()
FUNC 7140 27 0 std::_List_iterator<std::_List_val<std::_List_simple_types<google_breakpad::AppMemory> > >::_Unchecked()
FUNC 7170 22 0 std::list<google_breakpad::AppMemory,std::allocator<google_breakpad::AppMemory> >::_Unchecked_end()
FUNC 71a0 80 0 std::list<google_breakpad::AppMemory,std::allocator<google_breakpad::AppMemory> >::_Unlinknode(std::_List_const_iterator<std::_List_val<std::_List_simple_types<google_breakpad::AppMemory> > >)
FUNC 7220 16 0 std::vector<google_breakpad::ExceptionHandler *,std::allocator<google_breakpad::ExceptionHandler *> >::_Xran()
FUNC 7240 19 0 std::_Wrap_alloc<std::allocator<std::_List_node<google_breakpad::AppMemory,void *> > >::allocate(unsigned int)
FUNC 7260 1b 0 std::allocator<std::_List_node<google_breakpad::AppMemory,void *> >::allocate(unsigned int)
FUNC 7280 21 0 std::basic_string<wchar_t,std::char_traits<wchar_t>,std::allocator<wchar_t> >::assign(std::basic_string<wchar_t,std::char_traits<wchar_t>,std::allocator<wchar_t> > const &)
FUNC 72b0 2d 0 std::vector<google_breakpad::ExceptionHandler *,std::allocator<google_breakpad::ExceptionHandler *> >::at(unsigned int)
FUNC 72e0 2d 0 std::vector<google_breakpad::ExceptionHandler *,std::allocator<google_breakpad::ExceptionHandler *> >::back()
FUNC 7310 25 0 std::basic_string<wchar_t,std::char_traits<wchar_t>,std::allocator<wchar_t> >::begin()
FUNC 7340 2d 0 std::list<google_breakpad::AppMemory,std::allocator<google_breakpad::AppMemory> >::begin()
FUNC 7370 13 0 std::basic_string<wchar_t,std::char_traits<wchar_t>,std::allocator<wchar_t> >::c_str()
FUNC 7390 85 0 std::list<google_breakpad::AppMemory,std::allocator<google_breakpad::AppMemory> >::clear()
FUNC 7420 3f 0 std::allocator<google_breakpad::ExceptionHandler *>::construct(google_breakpad::ExceptionHandler * *,google_breakpad::ExceptionHandler * const &)
FUNC 7460 2d 0 std::vector<google_breakpad::ExceptionHandler *,std::allocator<google_breakpad::ExceptionHandler *> >::empty()
FUNC 7490 2e 0 std::basic_string<wchar_t,std::char_traits<wchar_t>,std::allocator<wchar_t> >::end()
FUNC 74c0 22 0 std::list<google_breakpad::AppMemory,std::allocator<google_breakpad::AppMemory> >::end()
FUNC 74f0 23 0 std::vector<google_breakpad::ExceptionHandler *,std::allocator<google_breakpad::ExceptionHandler *> >::end()
FUNC 7520 4a 0 std::list<google_breakpad::AppMemory,std::allocator<google_breakpad::AppMemory> >::erase(std::_List_const_iterator<std::_List_val<std::_List_simple_types<google_breakpad::AppMemory> > >)
FUNC 7570 62 0 std::vector<google_breakpad::ExceptionHandler *,std::allocator<google_breakpad::ExceptionHandler *> >::erase(std::_Vector_const_iterator<std::_Vector_val<std::_Simple_types<google_breakpad::ExceptionHandler *> > >)
FUNC 75e0 20 0 std::list<google_breakpad::AppMemory,std::allocator<google_breakpad::AppMemory> >::front()
FUNC 7600 14 0 google_breakpad::ExceptionHandler::get_handle_debug_exceptions()
FUNC 7620 17 0 std::_Wrap_alloc<std::allocator<google_breakpad::ExceptionHandler *> >::max_size()
FUNC 7640 17 0 std::_Wrap_alloc<std::allocator<std::_List_node<google_breakpad::AppMemory,void *> > >::max_size()
FUNC 7660 10 0 std::allocator<google_breakpad::ExceptionHandler *>::max_size()
FUNC 7670 10 0 std::allocator<std::_List_node<google_breakpad::AppMemory,void *> >::max_size()
FUNC 7680 d 0 std::allocator_traits<std::allocator<std::_List_node<google_breakpad::AppMemory,void *> > >::max_size(std::allocator<std::_List_node<google_breakpad::AppMemory,void *> > const &)
FUNC 7690 20 0 std::list<google_breakpad::AppMemory,std::allocator<google_breakpad::AppMemory> >::max_size()
FUNC 76b0 11 0 std::pointer_traits<google_breakpad::AppMemory const *>::pointer_to(google_breakpad::AppMemory const &)
FUNC 76d0 39 0 std::vector<google_breakpad::ExceptionHandler *,std::allocator<google_breakpad::ExceptionHandler *> >::pop_back()
FUNC 7710 30 0 std::list<google_breakpad::AppMemory,std::allocator<google_breakpad::AppMemory> >::push_back(google_breakpad::AppMemory const &)
FUNC 7740 102 0 std::vector<google_breakpad::ExceptionHandler *,std::allocator<google_breakpad::ExceptionHandler *> >::push_back(google_breakpad::ExceptionHandler * const &)
FUNC 7850 21 0 google_breakpad::scoped_ptr<google_breakpad::CrashGenerationClient>::release()
FUNC 7880 31c 0 std::basic_string<wchar_t,std::char_traits<wchar_t>,std::allocator<wchar_t> >::replace(unsigned int,unsigned int,std::basic_string<wchar_t,std::char_traits<wchar_t>,std::allocator<wchar_t> > const &,unsigned int,unsigned int)
FUNC 7ba0 184 0 std::basic_string<wchar_t,std::char_traits<wchar_t>,std::allocator<wchar_t> >::replace(unsigned int,unsigned int,wchar_t const *,unsigned int)
FUNC 7d30 b3 0 std::basic_string<wchar_t,std::char_traits<wchar_t>,std::allocator<wchar_t> >::replace(std::_String_const_iterator<std::_String_val<std::_Simple_types<wchar_t> > >,std::_String_const_iterator<std::_String_val<std::_Simple_types<wchar_t> > >,std::_String_iterator<std::_String_val<std::_Simple_types<wchar_t> > >,std::_String_iterator<std::_String_val<std::_Simple_types<wchar_t> > >)
FUNC 7df0 4b 0 google_breakpad::scoped_ptr<google_breakpad::CrashGenerationClient>::reset(google_breakpad::CrashGenerationClient *)
FUNC 7e40 35 0 google_breakpad::ExceptionHandler::set_dump_path(std::basic_string<wchar_t,std::char_traits<wchar_t>,std::allocator<wchar_t> > const &)
FUNC 7e80 19 0 std::vector<google_breakpad::ExceptionHandler *,std::allocator<google_breakpad::ExceptionHandler *> >::size()
FUNC 7ea0 e2 0 google_breakpad::WindowsStringUtils::safe_mbstowcs(std::basic_string<char,std::char_traits<char>,std::allocator<char> > const &,std::basic_string<wchar_t,std::char_traits<wchar_t>,std::allocator<wchar_t> > *)
FUNC 7f90 e2 0 google_breakpad::WindowsStringUtils::safe_wcstombs(std::basic_string<wchar_t,std::char_traits<wchar_t>,std::allocator<wchar_t> > const &,std::basic_string<char,std::char_traits<char>,std::allocator<char> > *)
FUNC 8080 b5 0 google_breakpad::WindowsStringUtils::GetBaseName(std::basic_string<wchar_t,std::char_traits<wchar_t>,std::allocator<wchar_t> > const &)
FUNC 8140 30 0 std::_Fill_n<wchar_t *,unsigned int,wchar_t>(wchar_t *,unsigned int,wchar_t const &)
FUNC 8170 17 0 std::_Uninit_def_fill_n<char,unsigned int,char>(char *,unsigned int,std::_Wrap_alloc<std::allocator<char> > &,char *,std::_Scalar_ptr_iterator_tag)
FUNC 8190 22 0 std::_Uninit_def_fill_n<wchar_t,unsigned int,wchar_t>(wchar_t *,unsigned int,std::_Wrap_alloc<std::allocator<wchar_t> > &,wchar_t *,std::_Scalar_ptr_iterator_tag)
FUNC 81c0 41 0 std::_Uninitialized_default_fill_n<char *,unsigned int,std::_Wrap_alloc<std::allocator<char> > >(char *,unsigned int,std::_Wrap_alloc<std::allocator<char> > &)
FUNC 8210 41 0 std::_Uninitialized_default_fill_n<wchar_t *,unsigned int,std::_Wrap_alloc<std::allocator<wchar_t> > >(wchar_t *,unsigned int,std::_Wrap_alloc<std::allocator<wchar_t> > &)
FUNC 8260 2b 0 std::_Vector_val<std::_Simple_types<wchar_t> >::_Vector_val<std::_Simple_types<wchar_t> >()
FUNC 8290 48 0 std::basic_string<wchar_t,std::char_traits<wchar_t>,std::allocator<wchar_t> >::basic_string<wchar_t,std::char_traits<wchar_t>,std::allocator<wchar_t> >(std::basic_string<wchar_t,std::char_traits<wchar_t>,std::allocator<wchar_t> > &&)
FUNC 82e0 53 0 std::basic_string<wchar_t,std::char_traits<wchar_t>,std::allocator<wchar_t> >::basic_string<wchar_t,std::char_traits<wchar_t>,std::allocator<wchar_t> >(std::basic_string<wchar_t,std::char_traits<wchar_t>,std::allocator<wchar_t> > const &)
FUNC 8340 cb 0 std::vector<char,std::allocator<char> >::vector<char,std::allocator<char> >(unsigned int)
FUNC 8410 ce 0 std::vector<wchar_t,std::allocator<wchar_t> >::vector<wchar_t,std::allocator<wchar_t> >(unsigned int)
FUNC 84e0 13 0 std::vector<char,std::allocator<char> >::~vector<char,std::allocator<char> >()
FUNC 8500 13 0 std::vector<wchar_t,std::allocator<wchar_t> >::~vector<wchar_t,std::allocator<wchar_t> >()
FUNC 8520 19 0 std::basic_string<char,std::char_traits<char>,std::allocator<char> >::operator=(char const *)
FUNC 8540 15 0 std::vector<char,std::allocator<char> >::operator[](unsigned int)
FUNC 8560 18 0 std::vector<wchar_t,std::allocator<wchar_t> >::operator[](unsigned int)
FUNC 8580 86 0 std::vector<char,std::allocator<char> >::_Buy(unsigned int)
FUNC 8610 89 0 std::vector<wchar_t,std::allocator<wchar_t> >::_Buy(unsigned int)
FUNC 86a0 20 0 std::_Fill_n(char *,unsigned int,char)
FUNC 86c0 18 0 std::_Vector_alloc<0,std::_Vec_base_types<char,std::allocator<char> > >::_Getal()
FUNC 86e0 75 0 std::vector<char,std::allocator<char> >::_Tidy()
FUNC 8760 77 0 std::vector<wchar_t,std::allocator<wchar_t> >::_Tidy()
FUNC 87e0 13 0 std::basic_string<char,std::char_traits<char>,std::allocator<char> >::c_str()
FUNC 8800 34 0 std::char_traits<wchar_t>::find(wchar_t const *,unsigned int,wchar_t const &)
FUNC 8840 2a 0 std::basic_string<wchar_t,std::char_traits<wchar_t>,std::allocator<wchar_t> >::find_last_of(wchar_t const *,unsigned int)
FUNC 8870 a0 0 std::basic_string<wchar_t,std::char_traits<wchar_t>,std::allocator<wchar_t> >::find_last_of(wchar_t const *,unsigned int,unsigned int)
FUNC 8910 20 0 std::vector<char,std::allocator<char> >::max_size()
FUNC 8930 20 0 std::vector<wchar_t,std::allocator<wchar_t> >::max_size()
FUNC 8950 2b 0 std::_Wrap_alloc<std::allocator<wchar_t> >::select_on_container_copy_construction()
FUNC 8980 36 0 wmemchr
FUNC 89c0 110 0 google_breakpad::GUIDString::GUIDToWString(_GUID *)
FUNC 8ad0 110 0 google_breakpad::GUIDString::GUIDToSymbolServerWString(_GUID *)
FUNC 8be0 a5 0 google_breakpad::CrashGenerationClient::CrashGenerationClient(wchar_t const *,_MINIDUMP_TYPE,google_breakpad::CustomClientInfo const *)
FUNC 8c90 a0 0 google_breakpad::CrashGenerationClient::CrashGenerationClient(void *,_MINIDUMP_TYPE,google_breakpad::CustomClientInfo const *)
FUNC 8d30 55 0 google_breakpad::CrashGenerationClient::~CrashGenerationClient()
FUNC 8d90 51 0 google_breakpad::CrashGenerationClient::Register()
FUNC 8df0 96 0 google_breakpad::CrashGenerationClient::RequestUpload(unsigned long)
FUNC 8e90 73 0 google_breakpad::CrashGenerationClient::RequestDump(_EXCEPTION_POINTERS *,MDRawAssertionInfo *)
FUNC 8f10 1b 0 google_breakpad::CrashGenerationClient::RequestDump(_EXCEPTION_POINTERS *)
FUNC 8f30 1b 0 google_breakpad::CrashGenerationClient::RequestDump(MDRawAssertionInfo *)
FUNC 8f50 b3 0 google_breakpad::CrashGenerationClient::DuplicatePipeToClientProcess(wchar_t const *,void *)
FUNC 9010 66 0 google_breakpad::CrashGenerationClient::ConnectToServer()
FUNC 9080 ef 0 google_breakpad::CrashGenerationClient::RegisterClient(void *)
FUNC 9170 4e 0 google_breakpad::CrashGenerationClient::ValidateResponse(google_breakpad::ProtocolMessage const &)
FUNC 91c0 29 0 google_breakpad::CrashGenerationClient::IsRegistered()
FUNC 91f0 98 0 google_breakpad::CrashGenerationClient::ConnectToPipe(wchar_t const *,unsigned long,unsigned long)
FUNC 9290 78 0 google_breakpad::CrashGenerationClient::SignalCrashEventAndWait()
FUNC 9310 71 0 google_breakpad::ProtocolMessage::ProtocolMessage(google_breakpad::MessageTag,unsigned long,_MINIDUMP_TYPE,unsigned long *,_EXCEPTION_POINTERS * *,MDRawAssertionInfo *,google_breakpad::CustomClientInfo const &,void *,void *,void *)
FUNC 9390 74 0 google_breakpad::ProtocolMessage::ProtocolMessage()
FUNC 9410 a9 0 QtServiceController::QtServiceController(QString const &)
FUNC 94c0 41 0 QtServiceController::~QtServiceController()
FUNC 9510 39 0 QtServiceController::serviceName()
FUNC 9550 cf 0 QtServiceController::install(QString const &,QString const &,QString const &)
FUNC 9620 70 0 QtServiceController::start()
FUNC 9690 8 0 qGetPtrHelper<QtServiceControllerPrivate>
FUNC 96a0 20b 0 QtServiceBase::QtServiceBase(int,char * *,QString const &)
FUNC 98b0 4b 0 QtServiceBase::~QtServiceBase()
FUNC 9900 34 0 QtServiceBase::serviceName()
FUNC 9940 34 0 QtServiceBase::serviceDescription()
FUNC 9980 1f 0 QtServiceBase::setServiceDescription(QString const &)
FUNC 99a0 14 0 QtServiceBase::startupType()
FUNC 99c0 19 0 QtServiceBase::setStartupType(QtServiceController::StartupType)
FUNC 99e0 1e 0 QtServiceBase::serviceFlags()
FUNC 9a00 c84 0 QtServiceBase::exec()
FUNC a690 a 0 QtServiceBase::instance()
FUNC a6a0 b 0 QtServiceBase::stop()
FUNC a6b0 b 0 QtServiceBase::pause()
FUNC a6c0 b 0 QtServiceBase::resume()
FUNC a6d0 d 0 QtServiceBase::processCommand(int)
FUNC a6e0 b3 0 QtServiceBasePrivate::QtServiceBasePrivate(QString const &)
FUNC a7a0 68 0 QtServiceBasePrivate::~QtServiceBasePrivate()
FUNC a810 1c 0 QtServiceBasePrivate::startService()
FUNC a830 247 0 QtServiceBasePrivate::run(bool,QStringList const &)
FUNC aa80 3f 0 QtServiceStarter::metaObject()
FUNC aac0 3d 0 QtServiceStarter::qt_metacast(char const *)
FUNC ab00 8a 0 QtServiceStarter::qt_metacall(QMetaObject::Call,int,void * *)
FUNC ab90 2c 0 QtServiceStarter::qt_static_metacall(QObject *,QMetaObject::Call,int,void * *)
FUNC abc0 19 0 QFlags<QArrayData::AllocationOption>::QFlags<QArrayData::AllocationOption>(int QFlags<QArrayData::AllocationOption>::Private::*)
FUNC abe0 17 0 QList<QByteArray>::QList<QByteArray>()
FUNC ac00 24 0 QByteArray::QByteArray(QByteArray const &)
FUNC ac30 1b 0 QChar::QChar(char)
FUNC ac50 1e 0 QChar::QChar(int)
FUNC ac70 41 0 QLatin1String::QLatin1String(char const *)
FUNC acc0 3d 0 QMessageLogContext::QMessageLogContext(char const *,int,char const *,char const *)
FUNC ad00 29 0 QMessageLogger::QMessageLogger(char const *,int,char const *)
FUNC ad30 2f 0 QString::QString(QLatin1String)
FUNC ad60 16 0 QStringList::QStringList()
FUNC ad80 16 0 QtServiceControllerPrivate::QtServiceControllerPrivate()
FUNC ada0 2c 0 QtServiceStarter::QtServiceStarter(QtServiceBasePrivate *)
FUNC add0 2a 0 QList<QByteArray>::~QList<QByteArray>()
FUNC ae00 2a 0 QList<QString>::~QList<QString>()
FUNC ae30 2a 0 QVector<char *>::~QVector<char *>()
FUNC ae60 2a 0 QByteArray::~QByteArray()
FUNC ae90 13 0 QStringList::~QStringList()
FUNC aeb0 13 0 QtServiceControllerPrivate::~QtServiceControllerPrivate()
FUNC aed0 13 0 QtServiceStarter::~QtServiceStarter()
FUNC aef0 1c 0 QStringList::operator<<(QString const &)
FUNC af10 2d 0 QList<QByteArray>::operator[](int)
FUNC af40 20 0 QVector<char *>::operator[](int)
FUNC af60 15 0 QScopedPointer<QObjectData,QScopedPointerDeleter<QObjectData> >::operator->()
FUNC af80 2c 0 QByteArray::`scalar deleting destructor'(unsigned int)
FUNC afb0 2c 0 QString::`scalar deleting destructor'(unsigned int)
FUNC afe0 2c 0 QtServiceBase::`scalar deleting destructor'(unsigned int)
FUNC b010 2c 0 QtServiceBasePrivate::`scalar deleting destructor'(unsigned int)
FUNC b040 2c 0 QtServiceController::`scalar deleting destructor'(unsigned int)
FUNC b070 2c 0 QtServiceControllerPrivate::`scalar deleting destructor'(unsigned int)
FUNC b0a0 19 0 QTypedArrayData<char *>::allocate(unsigned int,QFlags<QArrayData::AllocationOption>)
FUNC b0c0 16f 0 QList<QByteArray>::append(QByteArray const &)
FUNC b230 16f 0 QList<QString>::append(QString const &)
FUNC b3a0 25 0 QList<QString>::at(int)
FUNC b3d0 24 0 QListData::at(int)
FUNC b400 15 0 QTypedArrayData<char *>::begin(char * *)
FUNC b420 1c 0 QListData::begin()
FUNC b440 15 0 QByteArray::constData()
FUNC b460 3a 0 QString::contains(QChar,Qt::CaseSensitivity)
FUNC b4a0 1a 0 QtServiceController::d_func()
FUNC b4c0 13 0 QTypedArrayData<char *>::data()
FUNC b4e0 1b 0 QArrayData::data()
FUNC b500 1d 0 QByteArray::data()
FUNC b520 3d 0 QList<QByteArray>::dealloc(QListData::Data *)
FUNC b560 3d 0 QList<QString>::dealloc(QListData::Data *)
FUNC b5a0 15 0 QTypedArrayData<char>::deallocate(QArrayData *)
FUNC b5c0 15 0 QTypedArrayData<char *>::deallocate(QArrayData *)
FUNC b5e0 78 0 QVector<char *>::defaultConstruct(char * *,char * *)
FUNC b660 24 0 QVector<char *>::destruct(char * *,char * *)
FUNC b690 24 0 QList<QByteArray>::detach()
FUNC b6c0 24 0 QList<QString>::detach()
FUNC b6f0 4e 0 QByteArray::detach()
FUNC b740 65 0 QArrayData::detachFlags()
FUNC b7b0 da 0 QList<QByteArray>::detach_helper(int)
FUNC b890 1c 0 QList<QByteArray>::detach_helper()
FUNC b8b0 da 0 QList<QString>::detach_helper(int)
FUNC b990 1c 0 QList<QString>::detach_helper()
FUNC b9b0 186 0 QList<QByteArray>::detach_helper_grow(int,int)
FUNC bb40 186 0 QList<QString>::detach_helper_grow(int,int)
FUNC bcd0 19 0 QListData::dispose()
FUNC bcf0 1e 0 QTypedArrayData<char *>::end(char * *)
FUNC bd10 1c 0 QListData::end()
FUNC bd30 37 0 QVector<char *>::freeData(QTypedArrayData<char *> *)
FUNC bd70 54 0 QString::fromLocal8Bit(char const *,int)
FUNC bdd0 a 0 QCoreApplication::instance()
FUNC bde0 31 0 QVector<char *>::isDetached()
FUNC be20 37 0 QtPrivate::RefCount::isShared()
FUNC be60 e6 0 QList<QByteArray>::node_construct(QList<QByteArray>::Node *,QByteArray const &)
FUNC bf50 e6 0 QList<QString>::node_construct(QList<QString>::Node *,QString const &)
FUNC c040 223 0 QList<QByteArray>::node_copy(QList<QByteArray>::Node *,QList<QByteArray>::Node *,QList<QByteArray>::Node *)
FUNC c270 223 0 QList<QString>::node_copy(QList<QString>::Node *,QList<QString>::Node *,QList<QString>::Node *)
FUNC c4a0 78 0 QList<QByteArray>::node_destruct(QList<QByteArray>::Node *,QList<QByteArray>::Node *)
FUNC c520 52 0 QList<QByteArray>::node_destruct(QList<QByteArray>::Node *)
FUNC c580 78 0 QList<QString>::node_destruct(QList<QString>::Node *,QList<QString>::Node *)
FUNC c600 52 0 QList<QString>::node_destruct(QList<QString>::Node *)
FUNC c660 3ba 0 QVector<char *>::reallocData(int,int,QFlags<QArrayData::AllocationOption>)
FUNC ca20 49 0 QList<QString>::removeAt(int)
FUNC ca70 13 0 QList<QString>::size()
FUNC ca90 1d 0 QListData::size()
FUNC cab0 16 0 QtServiceStarter::slotStart()
FUNC cad0 24 0 QList<QString>::Node::t()
FUNC cb00 7b 0 QtServiceController::isInstalled()
FUNC cb80 be 0 QtServiceController::isRunning()
FUNC cc40 1e3 0 QtServiceController::serviceDescription()
FUNC ce30 12e 0 QtServiceController::startupType()
FUNC cf60 1e1 0 QtServiceController::serviceFilePath()
FUNC d150 8f 0 QtServiceController::uninstall()
FUNC d1e0 13f 0 QtServiceController::start(QStringList const &)
FUNC d320 13d 0 QtServiceController::stop()
FUNC d460 a3 0 QtServiceController::pause()
FUNC d510 a3 0 QtServiceController::resume()
FUNC d5c0 d3 0 QtServiceController::sendCommand(int)
FUNC d6a0 8 0 qGetPtrHelper<QtServiceControllerPrivate>
FUNC d6b0 57 0 QtServiceBase::setServiceFlags(QFlags<QtServiceBase::ServiceFlag>)
FUNC d710 146 0 QtServiceBase::logMessage(QString const &,QtServiceBase::MessageType,int,unsigned int,QByteArray const &)
FUNC d860 8 0 qGetPtrHelper<QtServiceBasePrivate>
FUNC d870 27d 0 QtServiceBasePrivate::install(QString const &,QString const &)
FUNC daf0 3fe 0 QtServiceBasePrivate::start()
FUNC def0 6e 0 QtServiceBasePrivate::filePath()
FUNC df60 f2 0 QtServiceBasePrivate::sysInit()
FUNC e060 b 0 QtServiceBasePrivate::sysSetPath()
FUNC e070 4b 0 QtServiceBasePrivate::sysCleanup()
FUNC e0c0 1cc 0 winServiceInit
FUNC e290 3f 0 QtServiceControllerHandler::metaObject()
FUNC e2d0 3d 0 QtServiceControllerHandler::qt_metacast(char const *)
FUNC e310 32 0 QtServiceControllerHandler::qt_metacall(QMetaObject::Call,int,void * *)
FUNC e350 5 0 QtServiceControllerHandler::qt_static_metacall(QObject *,QMetaObject::Call,int,void * *)
FUNC e360 2c 0 QtServiceControllerHandler::QtServiceControllerHandler(QtServiceSysPrivate *)
FUNC e390 1c 0 QtServiceControllerHandler::customEvent(QEvent *)
FUNC e3b0 97 0 QtServiceSysPrivate::QtServiceSysPrivate()
FUNC e450 38 0 QtServiceSysPrivate::setStatus(unsigned long)
FUNC e490 41 0 QtServiceSysPrivate::setServiceFlags(QFlags<QtServiceBase::ServiceFlag>)
FUNC e4e0 82 0 QtServiceSysPrivate::serviceFlags(QFlags<QtServiceBase::ServiceFlag>)
FUNC e570 136 0 QtServiceSysPrivate::serviceMain(unsigned long,wchar_t * *)
FUNC e6b0 430 0 QtServiceSysPrivate::handler(unsigned long)
FUNC eae0 105 0 QtServiceSysPrivate::handleCustomEvent(QEvent *)
FUNC ebf0 3a 0 QtServiceAppEventFilter::nativeEventFilter(QByteArray const &,void *,long *)
FUNC ec30 47 0 ``anonymous namespace'::Q_QGS_qtServiceAppEventFilter::innerFunction'::`8'::Cleanup::~Cleanup
FUNC ec80 1f 0 QGenericAtomicOps<QAtomicOpsBySize<4> >::loadAcquire<int>(int const &)
FUNC eca0 d 0 QGenericAtomicOps<QAtomicOpsBySize<4> >::store<int,int>(int &,int)
FUNC ecb0 23 0 QList<QString>::QList<QString>(QList<QString> &&)
FUNC ece0 dd 0 QList<QString>::QList<QString>(QList<QString> const &)
FUNC edc0 6f 0 QVector<wchar_t const *>::QVector<wchar_t const *>(int)
FUNC ee30 2f 0 HandlerThread::HandlerThread()
FUNC ee60 1e 0 QChar::QChar(QLatin1Char)
FUNC ee80 18 0 QLatin1Char::QLatin1Char(char)
FUNC eea0 38 0 QMutexLocker::QMutexLocker(QBasicMutex *)
FUNC eee0 45 0 QString::QString(char const *)
FUNC ef30 25 0 QStringList::QStringList(QList<QString> &&)
FUNC ef60 1f 0 QtServiceAppEventFilter::QtServiceAppEventFilter()
FUNC ef80 13 0 HandlerThread::~HandlerThread()
FUNC efa0 13 0 QMutexLocker::~QMutexLocker()
FUNC efc0 13 0 QtServiceAppEventFilter::~QtServiceAppEventFilter()
FUNC efe0 86 0 QtServiceSysPrivate::~QtServiceSysPrivate()
FUNC f070 28 0 QFlags<QtServiceBase::ServiceFlag>::operator!()
FUNC f0a0 2e 0 QFlags<QtServiceBase::ServiceFlag>::operator&(QtServiceBase::ServiceFlag)
FUNC f0d0 23 0 QGlobalStatic<QtServiceAppEventFilter,&`anonymous namespace'::Q_QGS_qtServiceAppEventFilter::innerFunction(void),QBasicAtomicInteger<int> A0x419c5a08::Q_QGS_qtServiceAppEventFilter::guard>::operator()()
FUNC f100 2c 0 HandlerThread::`scalar deleting destructor'(unsigned int)
FUNC f130 2c 0 QtServiceAppEventFilter::`scalar deleting destructor'(unsigned int)
FUNC f160 2c 0 QtServiceSysPrivate::`scalar deleting destructor'(unsigned int)
FUNC f190 29 0 QtServiceSysPrivate::available()
FUNC f1c0 11 0 HandlerThread::calledOk()
FUNC f1e0 1a 0 QtServiceBase::d_func()
FUNC f200 1f 0 QVector<wchar_t const *>::data()
FUNC f220 64 0 QVector<wchar_t const *>::detach()
FUNC f290 f0 0 `anonymous namespace'::Q_QGS_qtServiceAppEventFilter::innerFunction()
FUNC f380 2f 0 QGlobalStatic<QtServiceAppEventFilter,&`anonymous namespace'::Q_QGS_qtServiceAppEventFilter::innerFunction(void),QBasicAtomicInteger<int> A0x419c5a08::Q_QGS_qtServiceAppEventFilter::guard>::isDestroyed()
FUNC f3b0 2b 0 QString::isEmpty()
FUNC f3e0 17 0 QBasicAtomicInteger<int>::loadAcquire()
FUNC f400 19f 0 QList<QString>::mid(int,int)
FUNC f5a0 13 0 QMutexLocker::mutex()
FUNC f5c0 1f 0 QString::prepend(QLatin1String)
FUNC f5e0 45 0 QList<QString>::reserve(int)
FUNC f630 1e2 0 HandlerThread::run()
FUNC f820 11 0 HandlerThread::runningAsConsole()
FUNC f840 a 0 QTypedArrayData<char>::sharedNull()
FUNC f850 1d 0 QBasicAtomicInteger<int>::store(int)
FUNC f870 12 0 QEvent::type()
FUNC f890 12 0 QLatin1Char::unicode()
FUNC f8b0 31 0 QMutexLocker::unlock()
FUNC f8f0 19 0 QTypedArrayData<wchar_t const *>::unsharableEmpty()
FUNC f910 89 0 main
FUNC f9a0 b3 0 EtDaemon::EtDaemon(int,char * *)
FUNC fa60 86 0 EtDaemon::~EtDaemon()
FUNC faf0 aa 0 EtDaemon::start()
FUNC fba0 b 0 EtDaemon::stop()
FUNC fbb0 37 0 QtService<QCoreApplication>::QtService<QCoreApplication>(int,char * *,QString const &)
FUNC fbf0 1c 0 QtService<QCoreApplication>::~QtService<QCoreApplication>()
FUNC fc10 2c 0 QtService<QCoreApplication>::`scalar deleting destructor'(unsigned int)
FUNC fc40 2c 0 EtDaemon::`scalar deleting destructor'(unsigned int)
FUNC fc70 93 0 QtService<QCoreApplication>::createApplication(int &,char * *)
FUNC fd10 10 0 QtService<QCoreApplication>::executeApplication()
FUNC fd20 24e 0 ServerSocket::ServerSocket()
FUNC ff70 6a 0 ServerSocket::~ServerSocket()
FUNC ffe0 114 0 ServerSocket::on_newConnection()
FUNC 10100 45 0 ServerSocket::on_timerTick()
FUNC 10150 32 0 ServerSocket::on_socketDisconnected()
FUNC 10190 51 0 ServerSocket::on_socketError(QAbstractSocket::SocketError)
FUNC 101f0 156 0 ServerSocket::on_readyRead()
FUNC 10350 399 0 ServerSocket::processLineFromSocket()
FUNC 106f0 60 0 ServerSocket::terminateSessionAndVpn()
FUNC 10750 41 0 QString::QString(QByteArray const &)
FUNC 107a0 20 0 QByteArray::operator=(QByteArray &&)
FUNC 107c0 2d 0 QList<QString>::operator[](int)
FUNC 107f0 7e 0 operator+(QString const &,QString const &)
FUNC 10870 84 0 operator+(char const *,QString const &)
FUNC 10900 2c 0 ServerSocket::`scalar deleting destructor'(unsigned int)
FUNC 10930 15 0 QString::compare(QString const &,QString const &,Qt::CaseSensitivity)
FUNC 10950 45 0 qstrnlen(char const *,unsigned int)
FUNC 109a0 39 0 StopSessionRequest::StopSessionRequest()
FUNC 109e0 2c 0 StopSessionRequest::`scalar deleting destructor'(unsigned int)
FUNC 10a10 219 0 VpnConnector::VpnConnector()
FUNC 10c30 6b 0 VpnConnector::~VpnConnector()
FUNC 10ca0 6e 0 VpnConnector::connectToVpn(QString)
FUNC 10d10 34 0 VpnConnector::terminateVpnConnection()
FUNC 10d50 6e 0 VpnConnector::on_stateChangedEvent()
FUNC 10dc0 95 0 VpnConnector::on_processStateChanged(QProcess::ProcessState)
FUNC 10e60 f4 0 VpnConnector::on_processError(QProcess::ProcessError)
FUNC 10f60 b6 0 VpnConnector::on_processReadyReadStandardError()
FUNC 11020 b6 0 VpnConnector::on_processReadyReadStandardOutput()
FUNC 110e0 95 0 VpnConnector::on_socketStateChanged(QAbstractSocket::SocketState)
FUNC 11180 d9 0 VpnConnector::on_socketError(QAbstractSocket::SocketError)
FUNC 11260 c3 0 VpnConnector::on_socketReadyRead()
FUNC 11330 65 0 VpnConnector::on_timerTick()
FUNC 113a0 6b 0 VpnConnector::startNewConnection()
FUNC 11410 7f 0 VpnConnector::endCurrentConnection()
FUNC 11490 4a 0 VpnConnector::endCurrentProcess()
FUNC 114e0 147 0 VpnConnector::sendManagementCommand(QString)
FUNC 11630 4e8 0 VpnConnector::buildOpenVpnCommandArgsList(QStringList &)
FUNC 11b20 1f9 0 VpnConnector::startProcess()
FUNC 11d20 df 0 VpnConnector::connectSocket()
FUNC 11e00 43 0 VpnConnector::startVpn()
FUNC 11e50 be 0 VpnConnector::cleanupQProcess()
FUNC 11f10 3f 0 std::basic_string<char,std::char_traits<char>,std::allocator<char> >::basic_string<char,std::char_traits<char>,std::allocator<char> >(char const *,unsigned int)
FUNC 11f50 17 0 ETException::ETException()
FUNC 11f70 17 0 std::basic_string<char,std::char_traits<char>,std::allocator<char> >::~basic_string<char,std::char_traits<char>,std::allocator<char> >()
FUNC 11f90 6f 0 QString::operator=(QString::Null const &)
FUNC 12000 86 0 operator+(char const *,QByteArray const &)
FUNC 12090 19 0 QByteArray::operator+=(QByteArray const &)
FUNC 120b0 2c 0 VpnConnector::`scalar deleting destructor'(unsigned int)
FUNC 120e0 44 0 QStringList::join(QString const &)
FUNC 12130 3c 0 QByteArray::toStdString()
FUNC 12170 80 0 QString::toStdString()
FUNC 121f0 2f 0 ETException::what()
FUNC 12220 29 0 QIODevice::write(QByteArray const &)
FUNC 12250 2b 0 StaticQGenericEnginePluginPluginInstance::StaticQGenericEnginePluginPluginInstance()
FUNC 12280 2b 0 StaticQNativeWifiEnginePluginPluginInstance::StaticQNativeWifiEnginePluginPluginInstance()
FUNC 122b0 3f 0 ServerSocket::metaObject()
FUNC 122f0 3d 0 ServerSocket::qt_metacast(char const *)
FUNC 12330 8e 0 ServerSocket::qt_metacall(QMetaObject::Call,int,void * *)
FUNC 123c0 f0 0 ServerSocket::qt_static_metacall(QObject *,QMetaObject::Call,int,void * *)
FUNC 124b0 74 0 qRegisterMetaType<QAbstractSocket::SocketError>(char const *,QAbstractSocket::SocketError *,QtPrivate::MetaTypeDefinedHelper<QAbstractSocket::SocketError,1>::DefinedType)
FUNC 12530 a 0 qRegisterMetaType<QAbstractSocket::SocketError>()
FUNC 12540 d4 0 qRegisterNormalizedMetaType<QAbstractSocket::SocketError>(QByteArray const &,QAbstractSocket::SocketError *,QtPrivate::MetaTypeDefinedHelper<QAbstractSocket::SocketError,1>::DefinedType)
FUNC 12620 11 0 QGenericAtomicOps<QAtomicOpsBySize<4> >::releaseMemoryFence<int>(int const &)
FUNC 12640 19 0 QGenericAtomicOps<QAtomicOpsBySize<4> >::storeRelease<int,int>(int &,int)
FUNC 12660 1d 0 QFlags<QMetaType::TypeFlag>::operator|=(QMetaType::TypeFlag)
FUNC 12680 59 0 QtMetaTypePrivate::QMetaTypeFunctionHelper<QAbstractSocket::SocketError,1>::Construct(void *,void const *)
FUNC 126e0 6f 0 QtMetaTypePrivate::QMetaTypeFunctionHelper<QAbstractSocket::SocketError,1>::Create(void const *)
FUNC 12750 1a 0 QtMetaTypePrivate::QMetaTypeFunctionHelper<QAbstractSocket::SocketError,1>::Delete(void *)
FUNC 12770 a 0 QMetaTypeId2<QAbstractSocket::SocketError>::qt_metatype_id()
FUNC 12780 47 0 QMetaTypeId<QAbstractSocket::SocketError>::qt_metatype_id()
FUNC 127d0 a 0 qMetaTypeId<QAbstractSocket::SocketError>()
FUNC 127e0 1d 0 QBasicAtomicInteger<int>::storeRelease(int)
FUNC 12800 3f 0 VpnConnector::metaObject()
FUNC 12840 3d 0 VpnConnector::qt_metacast(char const *)
FUNC 12880 8e 0 VpnConnector::qt_metacall(QMetaObject::Call,int,void * *)
FUNC 12910 1bc 0 VpnConnector::qt_static_metacall(QObject *,QMetaObject::Call,int,void * *)
FUNC 12ad0 74 0 qRegisterMetaType<QAbstractSocket::SocketState>(char const *,QAbstractSocket::SocketState *,QtPrivate::MetaTypeDefinedHelper<QAbstractSocket::SocketState,1>::DefinedType)
FUNC 12b50 a 0 qRegisterMetaType<QAbstractSocket::SocketState>()
FUNC 12b60 d4 0 qRegisterNormalizedMetaType<QAbstractSocket::SocketState>(QByteArray const &,QAbstractSocket::SocketState *,QtPrivate::MetaTypeDefinedHelper<QAbstractSocket::SocketState,1>::DefinedType)
FUNC 12c40 a 0 QMetaTypeId2<QAbstractSocket::SocketState>::qt_metatype_id()
FUNC 12c50 47 0 QMetaTypeId<QAbstractSocket::SocketState>::qt_metatype_id()
FUNC 12ca0 a 0 qMetaTypeId<QAbstractSocket::SocketState>()
FUNC 12cb0 7 0 QtPrivate::MetaObjectForType<QAbstractSocket::SocketState,0>::value()
FUNC 12cc0 130 0 BreakpadHandler::init(QString)
FUNC 12df0 cf 0 BreakpadHandler::getInstance()
FUNC 12ec0 124 0 BreakpadHandler::BreakpadHandler(QString)
FUNC 12ff0 62 0 BreakpadHandler::~BreakpadHandler()
FUNC 13060 ec 0 BreakpadHandler::qMinidumpCallback(QFile &,void *)
FUNC 13150 2da 0 std::operator<<<char,std::char_traits<char>,std::allocator<char> >(std::basic_ostream<char,std::char_traits<char> > &,std::basic_string<char,std::char_traits<char>,std::allocator<char> > const &)
FUNC 13430 329 0 std::operator<<<std::char_traits<char> >(std::basic_ostream<char,std::char_traits<char> > &,char const *)
FUNC 13760 7 0 std::operator==<char,char>(std::allocator<char> const &,std::allocator<char> const &)
FUNC 13770 48 0 std::basic_string<char,std::char_traits<char>,std::allocator<char> >::basic_string<char,std::char_traits<char>,std::allocator<char> >(std::basic_string<char,std::char_traits<char>,std::allocator<char> > &&)
FUNC 137c0 2d 0 std::basic_string<char,std::char_traits<char>,std::allocator<char> >::basic_string<char,std::char_traits<char>,std::allocator<char> >()
FUNC 137f0 7e 0 std::basic_stringbuf<char,std::char_traits<char>,std::allocator<char> >::basic_stringbuf<char,std::char_traits<char>,std::allocator<char> >(int)
FUNC 13870 d3 0 std::basic_stringstream<char,std::char_traits<char>,std::allocator<char> >::basic_stringstream<char,std::char_traits<char>,std::allocator<char> >(int)
FUNC 13950 39 0 std::fpos<int>::fpos<int>(__int64)
FUNC 13990 a9 0 ETCustomException::ETCustomException(std::basic_string<char,std::char_traits<char>,std::allocator<char> >,std::basic_string<char,std::char_traits<char>,std::allocator<char> >)
FUNC 13a40 60 0 std::basic_ostream<char,std::char_traits<char> >::_Sentry_base::_Sentry_base(std::basic_ostream<char,std::char_traits<char> > &)
FUNC 13aa0 cd 0 std::basic_ostream<char,std::char_traits<char> >::sentry::sentry(std::basic_ostream<char,std::char_traits<char> > &)
FUNC 13b70 25 0 std::basic_stringbuf<char,std::char_traits<char>,std::allocator<char> >::~basic_stringbuf<char,std::char_traits<char>,std::allocator<char> >()
FUNC 13ba0 52 0 std::basic_stringstream<char,std::char_traits<char>,std::allocator<char> >::~basic_stringstream<char,std::char_traits<char>,std::allocator<char> >()
FUNC 13c00 55 0 std::basic_ostream<char,std::char_traits<char> >::_Sentry_base::~_Sentry_base()
FUNC 13c60 2b 0 std::basic_ostream<char,std::char_traits<char> >::sentry::~sentry()
FUNC 13c90 74 0 std::basic_string<char,std::char_traits<char>,std::allocator<char> >::operator=(std::basic_string<char,std::char_traits<char>,std::allocator<char> > const &)
FUNC 13d10 22 0 std::fpos<int>::operator __int64()
FUNC 13d40 11 0 std::basic_ostream<char,std::char_traits<char> >::sentry::operator bool()
FUNC 13d60 22 0 std::basic_stringstream<char,std::char_traits<char>,std::allocator<char> >::`vbase destructor'()
FUNC 13d90 2c 0 std::basic_stringbuf<char,std::char_traits<char>,std::allocator<char> >::`scalar deleting destructor'(unsigned int)
FUNC 13dc0 35 0 std::basic_stringstream<char,std::char_traits<char>,std::allocator<char> >::`scalar deleting destructor'(unsigned int)
FUNC 13e00 2c 0 BreakpadContext::`scalar deleting destructor'(unsigned int)
FUNC 13e30 2c 0 QTemporaryDir::`scalar deleting destructor'(unsigned int)
FUNC 13e60 7c 0 std::basic_string<char,std::char_traits<char>,std::allocator<char> >::_Assign_rv(std::basic_string<char,std::char_traits<char>,std::allocator<char> > &&)
FUNC 13ee0 5d 0 std::basic_stringbuf<char,std::char_traits<char>,std::allocator<char> >::_Getstate(int)
FUNC 13f40 101 0 std::basic_stringbuf<char,std::char_traits<char>,std::allocator<char> >::_Init(char const *,unsigned int,int)
FUNC 14050 98 0 std::basic_stringbuf<char,std::char_traits<char>,std::allocator<char> >::_Tidy()
FUNC 140f0 21 0 std::basic_string<char,std::char_traits<char>,std::allocator<char> >::assign(std::basic_string<char,std::char_traits<char>,std::allocator<char> > const &)
FUNC 14120 13 0 std::basic_string<char,std::char_traits<char>,std::allocator<char> >::data()
FUNC 14140 8 0 std::char_traits<char>::eof()
FUNC 14150 2b 0 std::char_traits<char>::eq(char const &,char const &)
FUNC 14180 27 0 std::char_traits<char>::eq_int_type(int const &,int const &)
FUNC 141b0 39 0 QString::fromStdString(std::basic_string<char,std::char_traits<char>,std::allocator<char> > const &)
FUNC 141f0 42 0 std::char_traits<char>::not_eof(int const &)
FUNC 14240 2f1 0 std::basic_stringbuf<char,std::char_traits<char>,std::allocator<char> >::overflow(int)
FUNC 14540 f0 0 std::basic_stringbuf<char,std::char_traits<char>,std::allocator<char> >::pbackfail(int)
FUNC 14630 2b8 0 std::basic_stringbuf<char,std::char_traits<char>,std::allocator<char> >::seekoff(__int64,int,int)
FUNC 148f0 1fe 0 std::basic_stringbuf<char,std::char_traits<char>,std::allocator<char> >::seekpos(std::fpos<int>,int)
FUNC 14af0 148 0 std::basic_stringbuf<char,std::char_traits<char>,std::allocator<char> >::str()
FUNC 14c40 31 0 std::basic_stringstream<char,std::char_traits<char>,std::allocator<char> >::str()
FUNC 14c80 a 0 std::char_traits<char>::to_char_type(int const &)
FUNC 14c90 b 0 std::char_traits<char>::to_int_type(char const &)
FUNC 14ca0 fd 0 std::basic_stringbuf<char,std::char_traits<char>,std::allocator<char> >::underflow()
FUNC 14da0 11a 0 ETCustomException::what()
FUNC 14ec0 86 0 Logging::getInstance()
FUNC 14f50 93 0 Logging::debug(QString)
FUNC 14ff0 93 0 Logging::info(QString)
FUNC 15090 93 0 Logging::error(QString)
FUNC 15130 20a 0 Logging::setPath(QDir const *)
FUNC 15340 17 0 Logging::Logging()
FUNC 15360 1c 0 Logging::~Logging()
FUNC 15380 213 0 Logging::log(QString,QString)
FUNC 155a0 33 0 std::endl<char,std::char_traits<char> >(std::basic_ostream<char,std::char_traits<char> > &)
FUNC 155e0 f 0 operator<<(QTextStream &,QTextStream & (*)(QTextStream &))
FUNC 155f0 26 0 operator|(QDir::Filter,QDir::Filter)
FUNC 15620 8f 0 DataStore::getInstance()
FUNC 156b0 b 0 DataStore::~DataStore()
FUNC 156c0 1a2 0 DataStore::getLatestClientInfo(QString *,QString *)
FUNC 15870 133 0 DataStore::saveNewClientInfo(QString,int,QString)
FUNC 159b0 a1 0 DataStore::saveLatestClientInfo()
FUNC 15a60 2c7 0 DataStore::retrieveExistingClientIds(QString,QString,int *,int *)
FUNC 15d30 f9 0 DataStore::saveCerts(CertificateContainer const *)
FUNC 15e30 148 0 DataStore::getClientDataDir()
FUNC 15f80 4b 0 DataStore::resetClientDataDir()
FUNC 15fd0 10 0 DataStore::getUserDataRootDir()
FUNC 15fe0 11 0 DataStore::getSystemDataRootDir()
FUNC 16000 3a 0 DataStore::getRootCertPath()
FUNC 16040 3a 0 DataStore::getClientCertPath()
FUNC 16080 3a 0 DataStore::getClientKeyPath()
FUNC 160c0 20 0 DataStore::setSystemLogging()
FUNC 160e0 20 0 DataStore::setClientLogging()
FUNC 16100 2be 0 DataStore::DataStore()
FUNC 163c0 1ef 0 DataStore::getUserDataRootDirPath(QString *)
FUNC 165b0 1ef 0 DataStore::getSystemDataRootDirPath(QString *)
FUNC 167a0 c3 0 buggyFunc()
FUNC 16870 59 0 std::basic_string<char,std::char_traits<char>,std::allocator<char> >::basic_string<char,std::char_traits<char>,std::allocator<char> ><std::_String_iterator<std::_String_val<std::_Simple_types<wchar_t> > >,void>(std::_String_iterator<std::_String_val<std::_Simple_types<wchar_t> > >,std::_String_iterator<std::_String_val<std::_Simple_types<wchar_t> > >)
FUNC 168d0 dd 0 std::basic_string<char,std::char_traits<char>,std::allocator<char> >::_Construct<std::_String_iterator<std::_String_val<std::_Simple_types<wchar_t> > > >(std::_String_iterator<std::_String_val<std::_Simple_types<wchar_t> > >,std::_String_iterator<std::_String_val<std::_Simple_types<wchar_t> > >,std::forward_iterator_tag)
FUNC 169b0 1b 0 std::_Distance2<std::_String_iterator<std::_String_val<std::_Simple_types<wchar_t> > >,unsigned int>(std::_String_iterator<std::_String_val<std::_Simple_types<wchar_t> > >,std::_String_iterator<std::_String_val<std::_Simple_types<wchar_t> > >,unsigned int &,std::random_access_iterator_tag)
FUNC 169d0 32 0 std::_Distance<std::_String_iterator<std::_String_val<std::_Simple_types<wchar_t> > >,unsigned int>(std::_String_iterator<std::_String_val<std::_Simple_types<wchar_t> > >,std::_String_iterator<std::_String_val<std::_Simple_types<wchar_t> > >,unsigned int &)
FUNC 16a10 13 0 std::_Iter_cat<std::_String_iterator<std::_String_val<std::_Simple_types<wchar_t> > > >(std::_String_iterator<std::_String_val<std::_Simple_types<wchar_t> > > const &)
FUNC 16a30 1d 0 QFlags<QDir::Filter>::QFlags<QDir::Filter>(QFlag)
FUNC 16a50 63 0 QListIterator<QString>::QListIterator<QString>(QList<QString> const &)
FUNC 16ac0 1c 0 std::_Wrap_alloc<std::allocator<char> >::_Wrap_alloc<std::allocator<char> >(std::allocator<char> const &)
FUNC 16ae0 53 0 std::basic_string<char,std::char_traits<char>,std::allocator<char> >::basic_string<char,std::char_traits<char>,std::allocator<char> >(std::basic_string<char,std::char_traits<char>,std::allocator<char> > const &)
FUNC 16b40 7f 0 ETIOException::ETIOException(std::basic_string<char,std::char_traits<char>,std::allocator<char> >)
FUNC 16bc0 c6 0 ETIONotFoundException::ETIONotFoundException(std::basic_string<char,std::char_traits<char>,std::allocator<char> >,std::basic_string<char,std::char_traits<char>,std::allocator<char> >)
FUNC 16c90 18 0 QFlags<QDir::SortFlag>::QFlags<QDir::SortFlag>(QDir::SortFlag)
FUNC 16cb0 16 0 ETIOException::~ETIOException()
FUNC 16cd0 35 0 std::_String_const_iterator<std::_String_val<std::_Simple_types<wchar_t> > >::operator!=(std::_String_const_iterator<std::_String_val<std::_Simple_types<wchar_t> > > const &)
FUNC 16d10 2e 0 QList<QString>::const_iterator::operator!=(QList<QString>::const_iterator const &)
FUNC 16d40 15 0 QList<QString>::const_iterator::operator*()
FUNC 16d60 1b 0 std::_String_const_iterator<std::_String_val<std::_Simple_types<wchar_t> > >::operator++()
FUNC 16d80 16 0 std::_String_iterator<std::_String_val<std::_Simple_types<wchar_t> > >::operator++()
FUNC 16da0 33 0 QList<QString>::const_iterator::operator++(int)
FUNC 16de0 7f 0 operator+(QString const &,QChar)
FUNC 16e60 a4 0 QString::operator+=(QChar)
FUNC 16f10 2c 0 QDir::`scalar deleting destructor'(unsigned int)
FUNC 16f40 4a 0 std::basic_string<char,std::char_traits<char>,std::allocator<char> >::_Chassign(unsigned int,unsigned int,char)
FUNC 16f90 76 0 std::basic_string<char,std::char_traits<char>,std::allocator<char> >::append(unsigned int,char)
FUNC 17010 1a 0 std::char_traits<char>::assign(char *,unsigned int,char)
FUNC 17030 21 0 QList<QString>::constBegin()
FUNC 17060 21 0 QList<QString>::constEnd()
FUNC 17090 25 0 QListIterator<QString>::hasNext()
FUNC 170c0 25 0 QListIterator<QString>::next()
FUNC 170f0 4f 0 std::basic_string<char,std::char_traits<char>,std::allocator<char> >::reserve(unsigned int)
FUNC 17140 fc 0 ETIOException::what()
FUNC 17240 14b 0 ETIONotFoundException::what()
FUNC 17390 e 0 StringsHelper::StringsHelper()
FUNC 173a0 ec 0 StringsHelper::basicCheck(QString)
FUNC 17490 af 0 StringsHelper::base64Encode(QString)
FUNC 17540 b3 0 StringsHelper::base64Decode(QString)
FUNC 17600 86 0 StringsHelper::trim(std::basic_string<char,std::char_traits<char>,std::allocator<char> >)
FUNC 17690 48 0 QString::operator==(char const *)
FUNC 176e0 76 0 QByteArray::append(QString const &)
FUNC 17760 35 0 std::char_traits<char>::find(char const *,unsigned int,char const &)
FUNC 177a0 2a 0 std::basic_string<char,std::char_traits<char>,std::allocator<char> >::find_last_not_of(char const *,unsigned int)
FUNC 177d0 91 0 std::basic_string<char,std::char_traits<char>,std::allocator<char> >::find_last_not_of(char const *,unsigned int,unsigned int)
FUNC 17870 13 0 QString::size()
FUNC 17890 138 0 LocalStateHolder::createInstance(int,int,QString)
FUNC 179d0 cf 0 LocalStateHolder::getInstance()
FUNC 17aa0 24 0 LocalStateHolder::hasInstance()
FUNC 17ad0 3e 0 LocalStateHolder::destroyInstance()
FUNC 17b10 16 0 LocalStateHolder::~LocalStateHolder()
FUNC 17b30 10 0 LocalStateHolder::getUserId()
FUNC 17b40 31 0 LocalStateHolder::getB64Password()
FUNC 17b80 11 0 LocalStateHolder::getClientId()
FUNC 17ba0 1a5 0 LocalStateHolder::updateETState(rapidjson::GenericDocument<rapidjson::UTF8<char>,rapidjson::MemoryPoolAllocator<rapidjson::CrtAllocator> > const *)
FUNC 17d50 11 0 LocalStateHolder::getLatestETState()
FUNC 17d70 c2 0 LocalStateHolder::LocalStateHolder(int,int,QString)
FUNC 17e40 2c 0 ETState::`scalar deleting destructor'(unsigned int)
FUNC 17e70 2c 0 LocalStateHolder::`scalar deleting destructor'(unsigned int)
FUNC 17ea0 107 0 Request::~Request()
FUNC 17fb0 103 0 Request::addHeader(QString,QString)
FUNC 180c0 78 0 Request::addRequestField(char const *,QString)
FUNC 18140 28 0 Request::addRequestField(char const *,int)
FUNC 18170 14a 0 Request::send()
FUNC 182c0 7f 0 Request::addAuthHeaders()
FUNC 18340 10c 0 Request::addAuthHeaders(int,QString,int)
FUNC 18450 16 0 Request::setTimeout(int)
FUNC 18470 8e 0 Request::websiteUrl()
FUNC 18500 338 0 Request::Request(HttpVerb,QString)
FUNC 18840 cb 0 Request::initBody()
FUNC 18910 80 0 Request::verbToString(HttpVerb)
FUNC 18990 4b 0 Request::on_timeOut()
FUNC 189e0 70 0 Request::on_RequestBack(QNetworkReply *)
FUNC 18a50 2c 0 Json::`scalar deleting destructor'(unsigned int)
FUNC 18a80 2c 0 Request::`scalar deleting destructor'(unsigned int)
FUNC 18ab0 2c 0 Response::`scalar deleting destructor'(unsigned int)
FUNC 18ae0 29 0 QTimer::isActive()
FUNC 18b10 25 0 QTimer::setSingleShot(bool)
FUNC 18b40 86 0 StatePinger::getInstance()
FUNC 18bd0 86 0 StatePinger::~StatePinger()
FUNC 18c60 16 0 StatePinger::start()
FUNC 18c80 16 0 StatePinger::stop()
FUNC 18ca0 116 0 StatePinger::StatePinger()
FUNC 18dc0 5f 0 StatePinger::on_timerTick()
FUNC 18e20 2c 0 StatePinger::`scalar deleting destructor'(unsigned int)
FUNC 18e50 23d 0 SocketUtils::findFreePort()
FUNC 19090 3f 0 Request::metaObject()
FUNC 190d0 3d 0 Request::qt_metacast(char const *)
FUNC 19110 8e 0 Request::qt_metacall(QMetaObject::Call,int,void * *)
FUNC 191a0 1d4 0 Request::qt_static_metacall(QObject *,QMetaObject::Call,int,void * *)
FUNC 19380 33 0 Request::sig_RequestSucceeded(Response *)
FUNC 193c0 33 0 Request::sig_RequestFailed(QNetworkReply::NetworkError)
FUNC 19400 20 0 Request::sig_Timeout()
FUNC 19420 2d 0 qMax<unsigned int>(unsigned int const &,unsigned int const &)
FUNC 19450 a 0 qMetaTypeId<QNetworkReply *>()
FUNC 19460 a 0 qRegisterMetaType<QNetworkReply *>()
FUNC 19470 74 0 qRegisterMetaType<QNetworkReply::NetworkError>(char const *,QNetworkReply::NetworkError *,QtPrivate::MetaTypeDefinedHelper<QNetworkReply::NetworkError,1>::DefinedType)
FUNC 194f0 a 0 qRegisterMetaType<QNetworkReply::NetworkError>()
FUNC 19500 d4 0 qRegisterNormalizedMetaType<QNetworkReply *>(QByteArray const &,QNetworkReply * *,QtPrivate::MetaTypeDefinedHelper<QNetworkReply *,1>::DefinedType)
FUNC 195e0 d4 0 qRegisterNormalizedMetaType<QNetworkReply::NetworkError>(QByteArray const &,QNetworkReply::NetworkError *,QtPrivate::MetaTypeDefinedHelper<QNetworkReply::NetworkError,1>::DefinedType)
FUNC 196c0 2e 0 QFlags<QArrayData::AllocationOption>::operator|(QArrayData::AllocationOption)
FUNC 196f0 a 0 QMetaTypeId2<QNetworkReply *>::qt_metatype_id()
FUNC 19700 a 0 QMetaTypeId2<QNetworkReply::NetworkError>::qt_metatype_id()
FUNC 19710 47 0 QMetaTypeId<QNetworkReply::NetworkError>::qt_metatype_id()
FUNC 19760 a 0 QtPrivate::QMetaTypeIdHelper<QNetworkReply::NetworkError,1>::qt_metatype_id()
FUNC 19770 d1 0 QMetaTypeIdQObject<QNetworkReply *,1>::qt_metatype_id()
FUNC 19850 7 0 QtPrivate::IsPair<QNetworkReply *>::registerConverter(int)
FUNC 19860 9c 0 QByteArray::reserve(int)
FUNC 19900 a 0 QtPrivate::MetaObjectForType<QNetworkReply *,1>::value()
FUNC 19910 86 0 CustomErrorHandler::getInstance()
FUNC 199a0 39 0 CustomErrorHandler::throwError(ETException *)
FUNC 199e0 21 0 CustomErrorHandler::CustomErrorHandler()
FUNC 19a10 101 0 Machine::Machine(QString,QString,QString,int)
FUNC 19b20 31 0 Machine::getName()
FUNC 19b60 11 0 Machine::getVpnStatus()
FUNC 19b80 11 0 Machine::getClientId()
FUNC 19ba0 31 0 Machine::getVirtualIp()
FUNC 19be0 16 0 Machine::setRequestedStatus(int)
FUNC 19c00 11 0 Machine::getRequestedStatus()
FUNC 19c20 37 0 Machine::isStable()
FUNC 19c60 20f 0 Machine::toString()
FUNC 19e70 19e 0 Machine::toVpnStatus(QString)
FUNC 1a010 65 0 Machine::~Machine()
FUNC 1a080 2c 0 Machine::`scalar deleting destructor'(unsigned int)
FUNC 1a0b0 659 0 ETState::ETState(rapidjson::GenericDocument<rapidjson::UTF8<char>,rapidjson::MemoryPoolAllocator<rapidjson::CrtAllocator> > const *,int)
FUNC 1a710 74 0 ETState::~ETState()
FUNC 1a790 11 0 ETState::getMaxVpnConnections()
FUNC 1a7b0 11 0 ETState::getCurrentVpnConnections()
FUNC 1a7d0 11 0 ETState::getMaxETConnections()
FUNC 1a7f0 11 0 ETState::getCurrentETConnections()
FUNC 1a810 2e 0 ETState::isEntrepriseAccount()
FUNC 1a840 31 0 ETState::getVpnIp()
FUNC 1a880 31 0 ETState::getVpnStatus()
FUNC 1a8c0 2e 0 ETState::getOtherMachines()
FUNC 1a8f0 11 0 ETState::getLocalMachine()
FUNC 1a910 14 0 ETState::getTimestamp()
FUNC 1a930 31 0 ETState::getStatusVersion()
FUNC 1a970 6a 0 ETState::isNewer(ETState *)
FUNC 1a9e0 29 0 rapidjson::internal::StrLen<char>(char const *)
FUNC 1aa10 41 0 std::_Allocate<Machine *>(unsigned int,Machine * *)
FUNC 1aa60 34 0 std::_Destroy_range<std::_Wrap_alloc<std::allocator<Machine *> > >(Machine * *,Machine * *,std::_Wrap_alloc<std::allocator<Machine *> > &)
FUNC 1aaa0 b 0 std::_Ptr_cat<Machine *,Machine *>(Machine * *,Machine * *)
FUNC 1aab0 10 0 std::_Rechecked<Machine * *,Machine * *>(Machine * * &,Machine * *)
FUNC 1aac0 33 0 std::vector<Machine *,std::allocator<Machine *> >::_Ucopy<Machine * *>(Machine * *,Machine * *,Machine * *)
FUNC 1ab00 33 0 std::vector<Machine *,std::allocator<Machine *> >::_Ucopy<std::_Vector_const_iterator<std::_Vector_val<std::_Simple_types<Machine *> > > >(std::_Vector_const_iterator<std::_Vector_val<std::_Simple_types<Machine *> > >,std::_Vector_const_iterator<std::_Vector_val<std::_Simple_types<Machine *> > >,Machine * *)
FUNC 1ab40 33 0 std::vector<Machine *,std::allocator<Machine *> >::_Umove<Machine * *>(Machine * *,Machine * *,Machine * *)
FUNC 1ab80 8 0 std::_Unchecked<Machine * *>(Machine * *)
FUNC 1ab90 d 0 std::_Unchecked<std::_Vector_val<std::_Simple_types<Machine *> > >(std::_Vector_const_iterator<std::_Vector_val<std::_Simple_types<Machine *> > >)
FUNC 1aba0 32 0 std::_Uninit_copy<Machine *,Machine *>(Machine * *,Machine * *,Machine * *,std::_Wrap_alloc<std::allocator<Machine *> > &,std::_Scalar_ptr_iterator_tag)
FUNC 1abe0 38 0 std::_Uninit_copy<Machine * const *,Machine * *,std::_Wrap_alloc<std::allocator<Machine *> > >(Machine * const *,Machine * const *,Machine * *,std::_Wrap_alloc<std::allocator<Machine *> > &)
FUNC 1ac20 45 0 std::_Uninit_move<Machine * *,Machine * *,std::_Wrap_alloc<std::allocator<Machine *> > >(Machine * *,Machine * *,Machine * *,std::_Wrap_alloc<std::allocator<Machine *> > &)
FUNC 1ac70 47 0 std::_Uninitialized_copy<Machine * *,Machine * *,std::_Wrap_alloc<std::allocator<Machine *> > >(Machine * *,Machine * *,Machine * *,std::_Wrap_alloc<std::allocator<Machine *> > &)
FUNC 1acc0 47 0 std::_Uninitialized_copy<std::_Vector_const_iterator<std::_Vector_val<std::_Simple_types<Machine *> > >,Machine * *,std::_Wrap_alloc<std::allocator<Machine *> > >(std::_Vector_const_iterator<std::_Vector_val<std::_Simple_types<Machine *> > >,std::_Vector_const_iterator<std::_Vector_val<std::_Simple_types<Machine *> > >,Machine * *,std::_Wrap_alloc<std::allocator<Machine *> > &)
FUNC 1ad10 47 0 std::_Uninitialized_move<Machine * *,Machine * *,std::_Wrap_alloc<std::allocator<Machine *> > >(Machine * *,Machine * *,Machine * *,std::_Wrap_alloc<std::allocator<Machine *> > &)
FUNC 1ad60 2a 0 std::_Wrap_alloc<std::allocator<Machine *> >::construct<Machine *,Machine * const &>(Machine * *,Machine * const &)
FUNC 1ad90 1e 0 std::allocator_traits<std::allocator<Machine *> >::construct<Machine *,Machine * const &>(std::allocator<Machine *> &,Machine * *,Machine * const &)
FUNC 1adb0 18 0 rapidjson::GenericValue<rapidjson::UTF8<char>,rapidjson::MemoryPoolAllocator<rapidjson::CrtAllocator> >::GenericValue<rapidjson::UTF8<char>,rapidjson::MemoryPoolAllocator<rapidjson::CrtAllocator> >()
FUNC 1add0 24 0 std::_Vector_const_iterator<std::_Vector_val<std::_Simple_types<Machine *> > >::_Vector_const_iterator<std::_Vector_val<std::_Simple_types<Machine *> > >(Machine * *,std::_Container_base0 const *)
FUNC 1ae00 e6 0 std::vector<Machine *,std::allocator<Machine *> >::vector<Machine *,std::allocator<Machine *> >(std::vector<Machine *,std::allocator<Machine *> > const &)
FUNC 1aef0 21 0 std::vector<Machine *,std::allocator<Machine *> >::vector<Machine *,std::allocator<Machine *> >()
FUNC 1af20 db 0 rapidjson::GenericValue<rapidjson::UTF8<char>,rapidjson::MemoryPoolAllocator<rapidjson::CrtAllocator> >::~GenericValue<rapidjson::UTF8<char>,rapidjson::MemoryPoolAllocator<rapidjson::CrtAllocator> >()
FUNC 1b000 13 0 std::vector<Machine *,std::allocator<Machine *> >::~vector<Machine *,std::allocator<Machine *> >()
FUNC 1b020 23d 0 std::vector<Machine *,std::allocator<Machine *> >::operator=(std::vector<Machine *,std::allocator<Machine *> > const &)
FUNC 1b260 9c 0 rapidjson::GenericValue<rapidjson::UTF8<char>,rapidjson::MemoryPoolAllocator<rapidjson::CrtAllocator> >::operator[](char const *)
FUNC 1b300 19 0 rapidjson::GenericValue<rapidjson::UTF8<char>,rapidjson::MemoryPoolAllocator<rapidjson::CrtAllocator> >::operator[](char const *)
FUNC 1b320 2c 0 rapidjson::GenericValue<rapidjson::UTF8<char>,rapidjson::MemoryPoolAllocator<rapidjson::CrtAllocator> >::`scalar deleting destructor'(unsigned int)
FUNC 1b350 78 0 rapidjson::GenericValue<rapidjson::UTF8<char>,rapidjson::MemoryPoolAllocator<rapidjson::CrtAllocator> >::FindMember(char const *)
FUNC 1b3d0 13 0 rapidjson::GenericValue<rapidjson::UTF8<char>,rapidjson::MemoryPoolAllocator<rapidjson::CrtAllocator> >::GetUint64()
FUNC 1b3f0 2e 0 rapidjson::GenericValue<rapidjson::UTF8<char>,rapidjson::MemoryPoolAllocator<rapidjson::CrtAllocator> >::IsString()
FUNC 1b420 19 0 rapidjson::GenericValue<rapidjson::UTF8<char>,rapidjson::MemoryPoolAllocator<rapidjson::CrtAllocator> >::MemberEnd()
FUNC 1b440 89 0 std::vector<Machine *,std::allocator<Machine *> >::_Buy(unsigned int)
FUNC 1b4d0 2f 0 std::vector<Machine *,std::allocator<Machine *> >::_Destroy(Machine * *,Machine * *)
FUNC 1b500 78 0 std::vector<Machine *,std::allocator<Machine *> >::_Tidy()
FUNC 1b580 1a 0 std::vector<Machine *,std::allocator<Machine *> >::_Unused_capacity()
FUNC 1b5a0 16 0 std::vector<Machine *,std::allocator<Machine *> >::_Xlen()
FUNC 1b5c0 19 0 std::_Wrap_alloc<std::allocator<Machine *> >::allocate(unsigned int)
FUNC 1b5e0 1b 0 std::allocator<Machine *>::allocate(unsigned int)
FUNC 1b600 22 0 std::vector<Machine *,std::allocator<Machine *> >::begin()
FUNC 1b630 19 0 std::vector<Machine *,std::allocator<Machine *> >::capacity()
FUNC 1b650 34 0 std::vector<Machine *,std::allocator<Machine *> >::clear()
FUNC 1b690 1d 0 std::_Wrap_alloc<std::allocator<Machine *> >::deallocate(Machine * *,unsigned int)
FUNC 1b6b0 19 0 std::allocator<Machine *>::deallocate(Machine * *,unsigned int)
FUNC 1b6d0 23 0 std::vector<Machine *,std::allocator<Machine *> >::end()
FUNC 1b700 d 0 std::allocator_traits<std::allocator<Machine *> >::max_size(std::allocator<Machine *> const &)
FUNC 1b710 20 0 std::vector<Machine *,std::allocator<Machine *> >::max_size()
FUNC 1b730 1c 0 std::allocator<Machine *>::select_on_container_copy_construction()
FUNC 1b750 14 0 std::allocator_traits<std::allocator<Machine *> >::select_on_container_copy_construction(std::allocator<Machine *> const &)
FUNC 1b770 86 0 EventAggregator::getInstance()
FUNC 1b800 13 0 EventAggregator::raiseStateChangeEvent()
FUNC 1b820 13 0 EventAggregator::raiseAuthSucceededEvent()
FUNC 1b840 19 0 EventAggregator::raiseAuthFailedEvent(int)
FUNC 1b860 13 0 EventAggregator::raiseLogOffRequestedEvent()
FUNC 1b880 13 0 EventAggregator::raiseMainWinDisabledEvent()
FUNC 1b8a0 21 0 EventAggregator::EventAggregator()
FUNC 1b8d0 2c 0 EventAggregator::`scalar deleting destructor'(unsigned int)
FUNC 1b900 eb 0 BreakpadContext::BreakpadContext(QString)
FUNC 1b9f0 74 0 BreakpadContext::~BreakpadContext()
FUNC 1ba70 2e 0 BreakpadContext::startedAtUtc()
FUNC 1baa0 31 0 BreakpadContext::gitRev()
FUNC 1bae0 31 0 BreakpadContext::appName()
FUNC 1bb20 31 0 BreakpadContext::buildType()
FUNC 1bb60 7c 0 QString::operator=(char const *)
FUNC 1bbe0 177 0 ErrorReportRequest::ErrorReportRequest(QString,BreakpadContext const *)
FUNC 1bd60 37 0 ErrorReportRequest::~ErrorReportRequest()
FUNC 1bda0 25b 0 ErrorReportRequest::send()
FUNC 1c000 284 0 CertificateContainer::fromJson(rapidjson::GenericDocument<rapidjson::UTF8<char>,rapidjson::MemoryPoolAllocator<rapidjson::CrtAllocator> > const *)
FUNC 1c290 2e 0 CertificateContainer::getRootCertificate()
FUNC 1c2c0 31 0 CertificateContainer::getClientCertificate()
FUNC 1c300 31 0 CertificateContainer::getClientKey()
FUNC 1c340 65 0 CertificateContainer::~CertificateContainer()
FUNC 1c3b0 bc 0 CertificateContainer::CertificateContainer(QString,QString,QString)
FUNC 1c470 e 0 ETIOUtils::ETIOUtils()
FUNC 1c480 b 0 ETIOUtils::~ETIOUtils()
FUNC 1c490 8c 0 ETIOUtils::readFromFile(QFile *)
FUNC 1c520 c8 0 ETIOUtils::readFromFile(QString)
FUNC 1c5f0 bd 0 ETIOUtils::saveToFile(QString,QString)
FUNC 1c6b0 80 0 ETIOUtils::appendNewLineToFile(QFile *,QString)
FUNC 1c730 a6 0 ETIOUtils::readAll(QString)
FUNC 1c7e0 1a 0 QString::QString(QString::Null const &)
FUNC 1c800 8e 0 Json::Json()
FUNC 1c890 37 0 Json::~Json()
FUNC 1c8d0 d2 0 Json::addProperty(char const *,QString)
FUNC 1c9b0 8d 0 Json::addProperty(char const *,int)
FUNC 1ca40 9f 0 Json::toBin(QByteArray *)
FUNC 1cae0 1ec 0 rapidjson::GenericValue<rapidjson::UTF8<char>,rapidjson::MemoryPoolAllocator<rapidjson::CrtAllocator> >::Accept<rapidjson::Writer<rapidjson::GenericStringBuffer<rapidjson::UTF8<char>,rapidjson::CrtAllocator>,rapidjson::UTF8<char>,rapidjson::MemoryPoolAllocator<rapidjson::CrtAllocator> > >(rapidjson::Writer<rapidjson::GenericStringBuffer<rapidjson::UTF8<char>,rapidjson::CrtAllocator>,rapidjson::UTF8<char>,rapidjson::MemoryPoolAllocator<rapidjson::CrtAllocator> > &)
FUNC 1ccd0 11 0 rapidjson::internal::Stack<rapidjson::CrtAllocator>::Bottom<char>()
FUNC 1ccf0 22 0 rapidjson::internal::Stack<rapidjson::CrtAllocator>::Pop<char>(unsigned int)
FUNC 1cd20 27 0 rapidjson::internal::Stack<rapidjson::MemoryPoolAllocator<rapidjson::CrtAllocator> >::Pop<rapidjson::Writer<rapidjson::GenericStringBuffer<rapidjson::UTF8<char>,rapidjson::CrtAllocator>,rapidjson::UTF8<char>,rapidjson::MemoryPoolAllocator<rapidjson::CrtAllocator> >::Level>(unsigned int)
FUNC 1cd50 b9 0 rapidjson::internal::Stack<rapidjson::CrtAllocator>::Push<char>(unsigned int)
FUNC 1ce10 c6 0 rapidjson::internal::Stack<rapidjson::MemoryPoolAllocator<rapidjson::CrtAllocator> >::Push<rapidjson::Writer<rapidjson::GenericStringBuffer<rapidjson::UTF8<char>,rapidjson::CrtAllocator>,rapidjson::UTF8<char>,rapidjson::MemoryPoolAllocator<rapidjson::CrtAllocator> >::Level>(unsigned int)
FUNC 1cee0 14 0 rapidjson::internal::Stack<rapidjson::MemoryPoolAllocator<rapidjson::CrtAllocator> >::Top<rapidjson::Writer<rapidjson::GenericStringBuffer<rapidjson::UTF8<char>,rapidjson::CrtAllocator>,rapidjson::UTF8<char>,rapidjson::MemoryPoolAllocator<rapidjson::CrtAllocator> >::Level>()
FUNC 1cf00 77 0 rapidjson::GenericDocument<rapidjson::UTF8<char>,rapidjson::MemoryPoolAllocator<rapidjson::CrtAllocator> >::GenericDocument<rapidjson::UTF8<char>,rapidjson::MemoryPoolAllocator<rapidjson::CrtAllocator> >(rapidjson::MemoryPoolAllocator<rapidjson::CrtAllocator> *,unsigned int)
FUNC 1cf80 20 0 rapidjson::GenericStringBuffer<rapidjson::UTF8<char>,rapidjson::CrtAllocator>::GenericStringBuffer<rapidjson::UTF8<char>,rapidjson::CrtAllocator>(rapidjson::CrtAllocator *,unsigned int)
FUNC 1cfa0 3d 0 rapidjson::GenericValue<rapidjson::UTF8<char>,rapidjson::MemoryPoolAllocator<rapidjson::CrtAllocator> >::GenericValue<rapidjson::UTF8<char>,rapidjson::MemoryPoolAllocator<rapidjson::CrtAllocator> >(int)
FUNC 1cfe0 2b 0 rapidjson::GenericValue<rapidjson::UTF8<char>,rapidjson::MemoryPoolAllocator<rapidjson::CrtAllocator> >::GenericValue<rapidjson::UTF8<char>,rapidjson::MemoryPoolAllocator<rapidjson::CrtAllocator> >(char const *,unsigned int)
FUNC 1d010 30 0 rapidjson::GenericValue<rapidjson::UTF8<char>,rapidjson::MemoryPoolAllocator<rapidjson::CrtAllocator> >::GenericValue<rapidjson::UTF8<char>,rapidjson::MemoryPoolAllocator<rapidjson::CrtAllocator> >(rapidjson::Type)
FUNC 1d040 a8 0 rapidjson::MemoryPoolAllocator<rapidjson::CrtAllocator>::MemoryPoolAllocator<rapidjson::CrtAllocator>(unsigned int,rapidjson::CrtAllocator *)
FUNC 1d0f0 108 0 rapidjson::internal::Stack<rapidjson::MemoryPoolAllocator<rapidjson::CrtAllocator> >::Stack<rapidjson::MemoryPoolAllocator<rapidjson::CrtAllocator> >(rapidjson::MemoryPoolAllocator<rapidjson::CrtAllocator> *,unsigned int)
FUNC 1d200 d9 0 rapidjson::internal::Stack<rapidjson::CrtAllocator>::Stack<rapidjson::CrtAllocator>(rapidjson::CrtAllocator *,unsigned int)
FUNC 1d2e0 2e 0 rapidjson::Writer<rapidjson::GenericStringBuffer<rapidjson::UTF8<char>,rapidjson::CrtAllocator>,rapidjson::UTF8<char>,rapidjson::MemoryPoolAllocator<rapidjson::CrtAllocator> >::Writer<rapidjson::GenericStringBuffer<rapidjson::UTF8<char>,rapidjson::CrtAllocator>,rapidjson::UTF8<char>,rapidjson::MemoryPoolAllocator<rapidjson::CrtAllocator> >(rapidjson::GenericStringBuffer<rapidjson::UTF8<char>,rapidjson::CrtAllocator> &,rapidjson::MemoryPoolAllocator<rapidjson::CrtAllocator> *,unsigned int)
FUNC 1d310 22 0 rapidjson::Writer<rapidjson::GenericStringBuffer<rapidjson::UTF8<char>,rapidjson::CrtAllocator>,rapidjson::UTF8<char>,rapidjson::MemoryPoolAllocator<rapidjson::CrtAllocator> >::Level::Level(bool)
FUNC 1d340 56 0 rapidjson::GenericDocument<rapidjson::UTF8<char>,rapidjson::MemoryPoolAllocator<rapidjson::CrtAllocator> >::~GenericDocument<rapidjson::UTF8<char>,rapidjson::MemoryPoolAllocator<rapidjson::CrtAllocator> >()
FUNC 1d3a0 13 0 rapidjson::GenericStringBuffer<rapidjson::UTF8<char>,rapidjson::CrtAllocator>::~GenericStringBuffer<rapidjson::UTF8<char>,rapidjson::CrtAllocator>()
FUNC 1d3c0 2a 0 rapidjson::MemoryPoolAllocator<rapidjson::CrtAllocator>::~MemoryPoolAllocator<rapidjson::CrtAllocator>()
FUNC 1d3f0 47 0 rapidjson::internal::Stack<rapidjson::MemoryPoolAllocator<rapidjson::CrtAllocator> >::~Stack<rapidjson::MemoryPoolAllocator<rapidjson::CrtAllocator> >()
FUNC 1d440 31 0 rapidjson::internal::Stack<rapidjson::CrtAllocator>::~Stack<rapidjson::CrtAllocator>()
FUNC 1d480 16 0 rapidjson::Writer<rapidjson::GenericStringBuffer<rapidjson::UTF8<char>,rapidjson::CrtAllocator>,rapidjson::UTF8<char>,rapidjson::MemoryPoolAllocator<rapidjson::CrtAllocator> >::~Writer<rapidjson::GenericStringBuffer<rapidjson::UTF8<char>,rapidjson::CrtAllocator>,rapidjson::UTF8<char>,rapidjson::MemoryPoolAllocator<rapidjson::CrtAllocator> >()
FUNC 1d4a0 2c 0 rapidjson::GenericDocument<rapidjson::UTF8<char>,rapidjson::MemoryPoolAllocator<rapidjson::CrtAllocator> >::`scalar deleting destructor'(unsigned int)
FUNC 1d4d0 2c 0 rapidjson::MemoryPoolAllocator<rapidjson::CrtAllocator>::`scalar deleting destructor'(unsigned int)
FUNC 1d500 49 0 rapidjson::MemoryPoolAllocator<rapidjson::CrtAllocator>::AddChunk(unsigned int)
FUNC 1d550 d0 0 rapidjson::GenericValue<rapidjson::UTF8<char>,rapidjson::MemoryPoolAllocator<rapidjson::CrtAllocator> >::AddMember(rapidjson::GenericValue<rapidjson::UTF8<char>,rapidjson::MemoryPoolAllocator<rapidjson::CrtAllocator> > &,rapidjson::GenericValue<rapidjson::UTF8<char>,rapidjson::MemoryPoolAllocator<rapidjson::CrtAllocator> > &,rapidjson::MemoryPoolAllocator<rapidjson::CrtAllocator> &)
FUNC 1d620 8f 0 rapidjson::GenericValue<rapidjson::UTF8<char>,rapidjson::MemoryPoolAllocator<rapidjson::CrtAllocator> >::AddMember(char const *,rapidjson::GenericValue<rapidjson::UTF8<char>,rapidjson::MemoryPoolAllocator<rapidjson::CrtAllocator> > &,rapidjson::MemoryPoolAllocator<rapidjson::CrtAllocator> &)
FUNC 1d6b0 43 0 rapidjson::Writer<rapidjson::GenericStringBuffer<rapidjson::UTF8<char>,rapidjson::CrtAllocator>,rapidjson::UTF8<char>,rapidjson::MemoryPoolAllocator<rapidjson::CrtAllocator> >::Bool(bool)
FUNC 1d700 45 0 rapidjson::MemoryPoolAllocator<rapidjson::CrtAllocator>::Clear()
FUNC 1d750 2f 0 rapidjson::Writer<rapidjson::GenericStringBuffer<rapidjson::UTF8<char>,rapidjson::CrtAllocator>,rapidjson::UTF8<char>,rapidjson::MemoryPoolAllocator<rapidjson::CrtAllocator> >::Double(double)
FUNC 1d780 25 0 rapidjson::Writer<rapidjson::GenericStringBuffer<rapidjson::UTF8<char>,rapidjson::CrtAllocator>,rapidjson::UTF8<char>,rapidjson::MemoryPoolAllocator<rapidjson::CrtAllocator> >::EndArray(unsigned int)
FUNC 1d7b0 25 0 rapidjson::Writer<rapidjson::GenericStringBuffer<rapidjson::UTF8<char>,rapidjson::CrtAllocator>,rapidjson::UTF8<char>,rapidjson::MemoryPoolAllocator<rapidjson::CrtAllocator> >::EndObject(unsigned int)
FUNC 1d7e0 12 0 rapidjson::CrtAllocator::Free(void *)
FUNC 1d800 16 0 rapidjson::GenericDocument<rapidjson::UTF8<char>,rapidjson::MemoryPoolAllocator<rapidjson::CrtAllocator> >::GetAllocator()
FUNC 1d820 17 0 rapidjson::internal::Stack<rapidjson::CrtAllocator>::GetSize()
FUNC 1d840 2a 0 rapidjson::GenericStringBuffer<rapidjson::UTF8<char>,rapidjson::CrtAllocator>::GetString()
FUNC 1d870 16 0 rapidjson::GenericValue<rapidjson::UTF8<char>,rapidjson::MemoryPoolAllocator<rapidjson::CrtAllocator> >::GetType()
FUNC 1d890 2a 0 rapidjson::Writer<rapidjson::GenericStringBuffer<rapidjson::UTF8<char>,rapidjson::CrtAllocator>,rapidjson::UTF8<char>,rapidjson::MemoryPoolAllocator<rapidjson::CrtAllocator> >::Int64(__int64)
FUNC 1d8c0 26 0 rapidjson::Writer<rapidjson::GenericStringBuffer<rapidjson::UTF8<char>,rapidjson::CrtAllocator>,rapidjson::UTF8<char>,rapidjson::MemoryPoolAllocator<rapidjson::CrtAllocator> >::Int(int)
FUNC 1d8f0 2e 0 rapidjson::GenericValue<rapidjson::UTF8<char>,rapidjson::MemoryPoolAllocator<rapidjson::CrtAllocator> >::IsInt64()
FUNC 1d920 2e 0 rapidjson::GenericValue<rapidjson::UTF8<char>,rapidjson::MemoryPoolAllocator<rapidjson::CrtAllocator> >::IsInt()
FUNC 1d950 2e 0 rapidjson::GenericValue<rapidjson::UTF8<char>,rapidjson::MemoryPoolAllocator<rapidjson::CrtAllocator> >::IsUint64()
FUNC 1d980 2e 0 rapidjson::GenericValue<rapidjson::UTF8<char>,rapidjson::MemoryPoolAllocator<rapidjson::CrtAllocator> >::IsUint()
FUNC 1d9b0 81 0 rapidjson::MemoryPoolAllocator<rapidjson::CrtAllocator>::Malloc(unsigned int)
FUNC 1da40 1a 0 rapidjson::CrtAllocator::Malloc(unsigned int)
FUNC 1da60 20 0 rapidjson::Writer<rapidjson::GenericStringBuffer<rapidjson::UTF8<char>,rapidjson::CrtAllocator>,rapidjson::UTF8<char>,rapidjson::MemoryPoolAllocator<rapidjson::CrtAllocator> >::Null()
FUNC 1da80 88 0 rapidjson::Writer<rapidjson::GenericStringBuffer<rapidjson::UTF8<char>,rapidjson::CrtAllocator>,rapidjson::UTF8<char>,rapidjson::MemoryPoolAllocator<rapidjson::CrtAllocator> >::Prefix(rapidjson::Type)
FUNC 1db10 1c 0 rapidjson::GenericStringBuffer<rapidjson::UTF8<char>,rapidjson::CrtAllocator>::Put(char)
FUNC 1db30 29 0 rapidjson::GenericValue<rapidjson::UTF8<char>,rapidjson::MemoryPoolAllocator<rapidjson::CrtAllocator> >::RawAssign(rapidjson::GenericValue<rapidjson::UTF8<char>,rapidjson::MemoryPoolAllocator<rapidjson::CrtAllocator> > &)
FUNC 1db60 b0 0 rapidjson::MemoryPoolAllocator<rapidjson::CrtAllocator>::Realloc(void *,unsigned int,unsigned int)
FUNC 1dc10 1e 0 rapidjson::CrtAllocator::Realloc(void *,unsigned int,unsigned int)
FUNC 1dc30 89 0 rapidjson::GenericValue<rapidjson::UTF8<char>,rapidjson::MemoryPoolAllocator<rapidjson::CrtAllocator> >::SetInt(int)
FUNC 1dcc0 85 0 rapidjson::GenericValue<rapidjson::UTF8<char>,rapidjson::MemoryPoolAllocator<rapidjson::CrtAllocator> >::SetObject()
FUNC 1dd50 2d 0 rapidjson::GenericValue<rapidjson::UTF8<char>,rapidjson::MemoryPoolAllocator<rapidjson::CrtAllocator> >::SetString(char const *,rapidjson::MemoryPoolAllocator<rapidjson::CrtAllocator> &)
FUNC 1dd80 2e 0 rapidjson::GenericValue<rapidjson::UTF8<char>,rapidjson::MemoryPoolAllocator<rapidjson::CrtAllocator> >::SetString(char const *,unsigned int,rapidjson::MemoryPoolAllocator<rapidjson::CrtAllocator> &)
FUNC 1ddb0 56 0 rapidjson::GenericValue<rapidjson::UTF8<char>,rapidjson::MemoryPoolAllocator<rapidjson::CrtAllocator> >::SetStringRaw(char const *,unsigned int,rapidjson::MemoryPoolAllocator<rapidjson::CrtAllocator> &)
FUNC 1de10 9d 0 rapidjson::Writer<rapidjson::GenericStringBuffer<rapidjson::UTF8<char>,rapidjson::CrtAllocator>,rapidjson::UTF8<char>,rapidjson::MemoryPoolAllocator<rapidjson::CrtAllocator> >::StartArray()
FUNC 1deb0 9d 0 rapidjson::Writer<rapidjson::GenericStringBuffer<rapidjson::UTF8<char>,rapidjson::CrtAllocator>,rapidjson::UTF8<char>,rapidjson::MemoryPoolAllocator<rapidjson::CrtAllocator> >::StartObject()
FUNC 1df50 2a 0 rapidjson::Writer<rapidjson::GenericStringBuffer<rapidjson::UTF8<char>,rapidjson::CrtAllocator>,rapidjson::UTF8<char>,rapidjson::MemoryPoolAllocator<rapidjson::CrtAllocator> >::String(char const *,unsigned int,bool)
FUNC 1df80 2a 0 rapidjson::Writer<rapidjson::GenericStringBuffer<rapidjson::UTF8<char>,rapidjson::CrtAllocator>,rapidjson::UTF8<char>,rapidjson::MemoryPoolAllocator<rapidjson::CrtAllocator> >::Uint64(unsigned __int64)
FUNC 1dfb0 26 0 rapidjson::Writer<rapidjson::GenericStringBuffer<rapidjson::UTF8<char>,rapidjson::CrtAllocator>,rapidjson::UTF8<char>,rapidjson::MemoryPoolAllocator<rapidjson::CrtAllocator> >::Uint(unsigned int)
FUNC 1dfe0 83 0 rapidjson::Writer<rapidjson::GenericStringBuffer<rapidjson::UTF8<char>,rapidjson::CrtAllocator>,rapidjson::UTF8<char>,rapidjson::MemoryPoolAllocator<rapidjson::CrtAllocator> >::WriteBool(bool)
FUNC 1e070 76 0 rapidjson::Writer<rapidjson::GenericStringBuffer<rapidjson::UTF8<char>,rapidjson::CrtAllocator>,rapidjson::UTF8<char>,rapidjson::MemoryPoolAllocator<rapidjson::CrtAllocator> >::WriteDouble(double)
FUNC 1e0f0 17 0 rapidjson::Writer<rapidjson::GenericStringBuffer<rapidjson::UTF8<char>,rapidjson::CrtAllocator>,rapidjson::UTF8<char>,rapidjson::MemoryPoolAllocator<rapidjson::CrtAllocator> >::WriteEndArray()
FUNC 1e110 17 0 rapidjson::Writer<rapidjson::GenericStringBuffer<rapidjson::UTF8<char>,rapidjson::CrtAllocator>,rapidjson::UTF8<char>,rapidjson::MemoryPoolAllocator<rapidjson::CrtAllocator> >::WriteEndObject()
FUNC 1e130 4a 0 rapidjson::Writer<rapidjson::GenericStringBuffer<rapidjson::UTF8<char>,rapidjson::CrtAllocator>,rapidjson::UTF8<char>,rapidjson::MemoryPoolAllocator<rapidjson::CrtAllocator> >::WriteInt64(__int64)
FUNC 1e180 33 0 rapidjson::Writer<rapidjson::GenericStringBuffer<rapidjson::UTF8<char>,rapidjson::CrtAllocator>,rapidjson::UTF8<char>,rapidjson::MemoryPoolAllocator<rapidjson::CrtAllocator> >::WriteInt(int)
FUNC 1e1c0 3b 0 rapidjson::Writer<rapidjson::GenericStringBuffer<rapidjson::UTF8<char>,rapidjson::CrtAllocator>,rapidjson::UTF8<char>,rapidjson::MemoryPoolAllocator<rapidjson::CrtAllocator> >::WriteNull()
FUNC 1e200 17 0 rapidjson::Writer<rapidjson::GenericStringBuffer<rapidjson::UTF8<char>,rapidjson::CrtAllocator>,rapidjson::UTF8<char>,rapidjson::MemoryPoolAllocator<rapidjson::CrtAllocator> >::WriteStartArray()
FUNC 1e220 17 0 rapidjson::Writer<rapidjson::GenericStringBuffer<rapidjson::UTF8<char>,rapidjson::CrtAllocator>,rapidjson::UTF8<char>,rapidjson::MemoryPoolAllocator<rapidjson::CrtAllocator> >::WriteStartObject()
FUNC 1e240 105 0 rapidjson::Writer<rapidjson::GenericStringBuffer<rapidjson::UTF8<char>,rapidjson::CrtAllocator>,rapidjson::UTF8<char>,rapidjson::MemoryPoolAllocator<rapidjson::CrtAllocator> >::WriteString(char const *,unsigned int)
FUNC 1e350 95 0 rapidjson::Writer<rapidjson::GenericStringBuffer<rapidjson::UTF8<char>,rapidjson::CrtAllocator>,rapidjson::UTF8<char>,rapidjson::MemoryPoolAllocator<rapidjson::CrtAllocator> >::WriteUint64(unsigned __int64)
FUNC 1e3f0 7d 0 rapidjson::Writer<rapidjson::GenericStringBuffer<rapidjson::UTF8<char>,rapidjson::CrtAllocator>,rapidjson::UTF8<char>,rapidjson::MemoryPoolAllocator<rapidjson::CrtAllocator> >::WriteUint(unsigned int)
FUNC 1e470 21 0 Response::Response()
FUNC 1e4a0 37 0 Response::~Response()
FUNC 1e4e0 135 0 Response::load(QNetworkReply *)
FUNC 1e620 10 0 Response::getJson()
FUNC 1e630 11 0 Response::getHttpStatusCode()
FUNC 1e650 38 0 Response::isSuccessful()
FUNC 1e690 85 0 Response::updateState()
FUNC 1e720 27 0 rapidjson::GenericDocument<rapidjson::UTF8<char>,rapidjson::MemoryPoolAllocator<rapidjson::CrtAllocator> >::Parse<0>(char const *)
FUNC 1e750 142 0 rapidjson::GenericReader<rapidjson::UTF8<char>,rapidjson::MemoryPoolAllocator<rapidjson::CrtAllocator> >::Parse<0,rapidjson::GenericStringStream<rapidjson::UTF8<char> >,rapidjson::GenericDocument<rapidjson::UTF8<char>,rapidjson::MemoryPoolAllocator<rapidjson::CrtAllocator> > >(rapidjson::GenericStringStream<rapidjson::UTF8<char> > &,rapidjson::GenericDocument<rapidjson::UTF8<char>,rapidjson::MemoryPoolAllocator<rapidjson::CrtAllocator> > &)
FUNC 1e8a0 e3 0 rapidjson::GenericReader<rapidjson::UTF8<char>,rapidjson::MemoryPoolAllocator<rapidjson::CrtAllocator> >::ParseArray<0,rapidjson::GenericStringStream<rapidjson::UTF8<char> >,rapidjson::GenericDocument<rapidjson::UTF8<char>,rapidjson::MemoryPoolAllocator<rapidjson::CrtAllocator> > >(rapidjson::GenericStringStream<rapidjson::UTF8<char> > &,rapidjson::GenericDocument<rapidjson::UTF8<char>,rapidjson::MemoryPoolAllocator<rapidjson::CrtAllocator> > &)
FUNC 1e990 8f 0 rapidjson::GenericReader<rapidjson::UTF8<char>,rapidjson::MemoryPoolAllocator<rapidjson::CrtAllocator> >::ParseFalse<0,rapidjson::GenericStringStream<rapidjson::UTF8<char> >,rapidjson::GenericDocument<rapidjson::UTF8<char>,rapidjson::MemoryPoolAllocator<rapidjson::CrtAllocator> > >(rapidjson::GenericStringStream<rapidjson::UTF8<char> > &,rapidjson::GenericDocument<rapidjson::UTF8<char>,rapidjson::MemoryPoolAllocator<rapidjson::CrtAllocator> > &)
FUNC 1ea20 f9 0 rapidjson::GenericReader<rapidjson::UTF8<char>,rapidjson::MemoryPoolAllocator<rapidjson::CrtAllocator> >::ParseHex4<rapidjson::GenericStringStream<rapidjson::UTF8<char> > >(rapidjson::GenericStringStream<rapidjson::UTF8<char> > &)
FUNC 1eb20 7d 0 rapidjson::GenericReader<rapidjson::UTF8<char>,rapidjson::MemoryPoolAllocator<rapidjson::CrtAllocator> >::ParseNull<0,rapidjson::GenericStringStream<rapidjson::UTF8<char> >,rapidjson::GenericDocument<rapidjson::UTF8<char>,rapidjson::MemoryPoolAllocator<rapidjson::CrtAllocator> > >(rapidjson::GenericStringStream<rapidjson::UTF8<char> > &,rapidjson::GenericDocument<rapidjson::UTF8<char>,rapidjson::MemoryPoolAllocator<rapidjson::CrtAllocator> > &)
FUNC 1eba0 799 c rapidjson::GenericReader<rapidjson::UTF8<char>,rapidjson::MemoryPoolAllocator<rapidjson::CrtAllocator> >::ParseNumber<0,rapidjson::GenericStringStream<rapidjson::UTF8<char> >,rapidjson::GenericDocument<rapidjson::UTF8<char>,rapidjson::MemoryPoolAllocator<rapidjson::CrtAllocator> > >(rapidjson::GenericStringStream<rapidjson::UTF8<char> > &,rapidjson::GenericDocument<rapidjson::UTF8<char>,rapidjson::MemoryPoolAllocator<rapidjson::CrtAllocator> > &)
FUNC 1f340 18b 0 rapidjson::GenericReader<rapidjson::UTF8<char>,rapidjson::MemoryPoolAllocator<rapidjson::CrtAllocator> >::ParseObject<0,rapidjson::GenericStringStream<rapidjson::UTF8<char> >,rapidjson::GenericDocument<rapidjson::UTF8<char>,rapidjson::MemoryPoolAllocator<rapidjson::CrtAllocator> > >(rapidjson::GenericStringStream<rapidjson::UTF8<char> > &,rapidjson::GenericDocument<rapidjson::UTF8<char>,rapidjson::MemoryPoolAllocator<rapidjson::CrtAllocator> > &)
FUNC 1f4d0 e3 0 rapidjson::GenericDocument<rapidjson::UTF8<char>,rapidjson::MemoryPoolAllocator<rapidjson::CrtAllocator> >::ParseStream<0,rapidjson::GenericStringStream<rapidjson::UTF8<char> > >(rapidjson::GenericStringStream<rapidjson::UTF8<char> > &)
FUNC 1f5c0 3d4 0 rapidjson::GenericReader<rapidjson::UTF8<char>,rapidjson::MemoryPoolAllocator<rapidjson::CrtAllocator> >::ParseString<0,rapidjson::GenericStringStream<rapidjson::UTF8<char> >,rapidjson::GenericDocument<rapidjson::UTF8<char>,rapidjson::MemoryPoolAllocator<rapidjson::CrtAllocator> > >(rapidjson::GenericStringStream<rapidjson::UTF8<char> > &,rapidjson::GenericDocument<rapidjson::UTF8<char>,rapidjson::MemoryPoolAllocator<rapidjson::CrtAllocator> > &)
FUNC 1f9a0 7c 0 rapidjson::GenericReader<rapidjson::UTF8<char>,rapidjson::MemoryPoolAllocator<rapidjson::CrtAllocator> >::ParseTrue<0,rapidjson::GenericStringStream<rapidjson::UTF8<char> >,rapidjson::GenericDocument<rapidjson::UTF8<char>,rapidjson::MemoryPoolAllocator<rapidjson::CrtAllocator> > >(rapidjson::GenericStringStream<rapidjson::UTF8<char> > &,rapidjson::GenericDocument<rapidjson::UTF8<char>,rapidjson::MemoryPoolAllocator<rapidjson::CrtAllocator> > &)
FUNC 1fa20 132 0 rapidjson::GenericReader<rapidjson::UTF8<char>,rapidjson::MemoryPoolAllocator<rapidjson::CrtAllocator> >::ParseValue<0,rapidjson::GenericStringStream<rapidjson::UTF8<char> >,rapidjson::GenericDocument<rapidjson::UTF8<char>,rapidjson::MemoryPoolAllocator<rapidjson::CrtAllocator> > >(rapidjson::GenericStringStream<rapidjson::UTF8<char> > &,rapidjson::GenericDocument<rapidjson::UTF8<char>,rapidjson::MemoryPoolAllocator<rapidjson::CrtAllocator> > &)
FUNC 1fb60 27 0 rapidjson::internal::Stack<rapidjson::MemoryPoolAllocator<rapidjson::CrtAllocator> >::Pop<rapidjson::GenericValue<rapidjson::UTF8<char>,rapidjson::MemoryPoolAllocator<rapidjson::CrtAllocator> >::Member>(unsigned int)
FUNC 1fb90 27 0 rapidjson::internal::Stack<rapidjson::MemoryPoolAllocator<rapidjson::CrtAllocator> >::Pop<rapidjson::GenericValue<rapidjson::UTF8<char>,rapidjson::MemoryPoolAllocator<rapidjson::CrtAllocator> > >(unsigned int)
FUNC 1fbc0 b9 0 rapidjson::internal::Stack<rapidjson::MemoryPoolAllocator<rapidjson::CrtAllocator> >::Push<char>(unsigned int)
FUNC 1fc80 c8 0 rapidjson::internal::Stack<rapidjson::MemoryPoolAllocator<rapidjson::CrtAllocator> >::Push<rapidjson::GenericValue<rapidjson::UTF8<char>,rapidjson::MemoryPoolAllocator<rapidjson::CrtAllocator> > >(unsigned int)
FUNC 1fd50 70 0 rapidjson::SkipWhitespace<rapidjson::GenericStringStream<rapidjson::UTF8<char> > >(rapidjson::GenericStringStream<rapidjson::UTF8<char> > &)
FUNC 1fdc0 14 0 rapidjson::internal::Stack<rapidjson::MemoryPoolAllocator<rapidjson::CrtAllocator> >::Top<rapidjson::GenericValue<rapidjson::UTF8<char>,rapidjson::MemoryPoolAllocator<rapidjson::CrtAllocator> > >()
FUNC 1fde0 34 0 rapidjson::GenericReader<rapidjson::UTF8<char>,rapidjson::MemoryPoolAllocator<rapidjson::CrtAllocator> >::GenericReader<rapidjson::UTF8<char>,rapidjson::MemoryPoolAllocator<rapidjson::CrtAllocator> >(rapidjson::MemoryPoolAllocator<rapidjson::CrtAllocator> *,unsigned int)
FUNC 1fe20 21 0 rapidjson::GenericStringStream<rapidjson::UTF8<char> >::GenericStringStream<rapidjson::UTF8<char> >(char const *)
FUNC 1fe50 43 0 rapidjson::GenericValue<rapidjson::UTF8<char>,rapidjson::MemoryPoolAllocator<rapidjson::CrtAllocator> >::GenericValue<rapidjson::UTF8<char>,rapidjson::MemoryPoolAllocator<rapidjson::CrtAllocator> >(unsigned int)
FUNC 1fea0 26 0 rapidjson::GenericValue<rapidjson::UTF8<char>,rapidjson::MemoryPoolAllocator<rapidjson::CrtAllocator> >::GenericValue<rapidjson::UTF8<char>,rapidjson::MemoryPoolAllocator<rapidjson::CrtAllocator> >(double)
FUNC 1fed0 24 0 rapidjson::GenericValue<rapidjson::UTF8<char>,rapidjson::MemoryPoolAllocator<rapidjson::CrtAllocator> >::GenericValue<rapidjson::UTF8<char>,rapidjson::MemoryPoolAllocator<rapidjson::CrtAllocator> >(char const *,unsigned int,rapidjson::MemoryPoolAllocator<rapidjson::CrtAllocator> &)
FUNC 1ff00 c4 0 rapidjson::GenericValue<rapidjson::UTF8<char>,rapidjson::MemoryPoolAllocator<rapidjson::CrtAllocator> >::GenericValue<rapidjson::UTF8<char>,rapidjson::MemoryPoolAllocator<rapidjson::CrtAllocator> >(__int64)
FUNC 1ffd0 ae 0 rapidjson::GenericValue<rapidjson::UTF8<char>,rapidjson::MemoryPoolAllocator<rapidjson::CrtAllocator> >::GenericValue<rapidjson::UTF8<char>,rapidjson::MemoryPoolAllocator<rapidjson::CrtAllocator> >(unsigned __int64)
FUNC 20080 33 0 rapidjson::GenericValue<rapidjson::UTF8<char>,rapidjson::MemoryPoolAllocator<rapidjson::CrtAllocator> >::GenericValue<rapidjson::UTF8<char>,rapidjson::MemoryPoolAllocator<rapidjson::CrtAllocator> >(bool)
FUNC 200c0 13 0 rapidjson::GenericReader<rapidjson::UTF8<char>,rapidjson::MemoryPoolAllocator<rapidjson::CrtAllocator> >::~GenericReader<rapidjson::UTF8<char>,rapidjson::MemoryPoolAllocator<rapidjson::CrtAllocator> >()
FUNC 200e0 2c 0 CertificateContainer::`scalar deleting destructor'(unsigned int)
FUNC 20110 8d 0 rapidjson::GenericDocument<rapidjson::UTF8<char>,rapidjson::MemoryPoolAllocator<rapidjson::CrtAllocator> >::Bool(bool)
FUNC 201a0 17 0 rapidjson::internal::Stack<rapidjson::MemoryPoolAllocator<rapidjson::CrtAllocator> >::Clear()
FUNC 201c0 43 0 rapidjson::GenericDocument<rapidjson::UTF8<char>,rapidjson::MemoryPoolAllocator<rapidjson::CrtAllocator> >::ClearStack()
FUNC 20210 95 0 rapidjson::GenericDocument<rapidjson::UTF8<char>,rapidjson::MemoryPoolAllocator<rapidjson::CrtAllocator> >::Double(double)
FUNC 202b0 13b 0 rapidjson::UTF8<char>::Encode(char *,unsigned int)
FUNC 203f0 44 0 rapidjson::GenericDocument<rapidjson::UTF8<char>,rapidjson::MemoryPoolAllocator<rapidjson::CrtAllocator> >::EndArray(unsigned int)
FUNC 20440 44 0 rapidjson::GenericDocument<rapidjson::UTF8<char>,rapidjson::MemoryPoolAllocator<rapidjson::CrtAllocator> >::EndObject(unsigned int)
FUNC 20490 11 0 rapidjson::GenericReader<rapidjson::UTF8<char>,rapidjson::MemoryPoolAllocator<rapidjson::CrtAllocator> >::GetErrorOffset()
FUNC 204b0 11 0 rapidjson::GenericReader<rapidjson::UTF8<char>,rapidjson::MemoryPoolAllocator<rapidjson::CrtAllocator> >::GetParseError()
FUNC 204d0 90 0 rapidjson::GenericDocument<rapidjson::UTF8<char>,rapidjson::MemoryPoolAllocator<rapidjson::CrtAllocator> >::Int64(__int64)
FUNC 20560 8c 0 rapidjson::GenericDocument<rapidjson::UTF8<char>,rapidjson::MemoryPoolAllocator<rapidjson::CrtAllocator> >::Int(int)
FUNC 205f0 86 0 rapidjson::GenericDocument<rapidjson::UTF8<char>,rapidjson::MemoryPoolAllocator<rapidjson::CrtAllocator> >::Null()
FUNC 20680 12 0 rapidjson::GenericStringStream<rapidjson::UTF8<char> >::Peek()
FUNC 206a0 36 0 rapidjson::internal::Pow10(int)
FUNC 206e0 f 0 rapidjson::GenericStringStream<rapidjson::UTF8<char> >::PutEnd(char *)
FUNC 206f0 56 0 rapidjson::GenericValue<rapidjson::UTF8<char>,rapidjson::MemoryPoolAllocator<rapidjson::CrtAllocator> >::SetArrayRaw(rapidjson::GenericValue<rapidjson::UTF8<char>,rapidjson::MemoryPoolAllocator<rapidjson::CrtAllocator> > *,unsigned int,rapidjson::MemoryPoolAllocator<rapidjson::CrtAllocator> &)
FUNC 20750 83 0 rapidjson::GenericValue<rapidjson::UTF8<char>,rapidjson::MemoryPoolAllocator<rapidjson::CrtAllocator> >::SetNull()
FUNC 207e0 56 0 rapidjson::GenericValue<rapidjson::UTF8<char>,rapidjson::MemoryPoolAllocator<rapidjson::CrtAllocator> >::SetObjectRaw(rapidjson::GenericValue<rapidjson::UTF8<char>,rapidjson::MemoryPoolAllocator<rapidjson::CrtAllocator> >::Member *,unsigned int,rapidjson::MemoryPoolAllocator<rapidjson::CrtAllocator> &)
FUNC 20840 88 0 rapidjson::GenericDocument<rapidjson::UTF8<char>,rapidjson::MemoryPoolAllocator<rapidjson::CrtAllocator> >::StartArray()
FUNC 208d0 88 0 rapidjson::GenericDocument<rapidjson::UTF8<char>,rapidjson::MemoryPoolAllocator<rapidjson::CrtAllocator> >::StartObject()
FUNC 20960 fa 0 rapidjson::GenericDocument<rapidjson::UTF8<char>,rapidjson::MemoryPoolAllocator<rapidjson::CrtAllocator> >::String(char const *,unsigned int,bool)
FUNC 20a60 27 0 rapidjson::GenericStringStream<rapidjson::UTF8<char> >::Take()
FUNC 20a90 16 0 rapidjson::GenericStringStream<rapidjson::UTF8<char> >::Tell()
FUNC 20ab0 90 0 rapidjson::GenericDocument<rapidjson::UTF8<char>,rapidjson::MemoryPoolAllocator<rapidjson::CrtAllocator> >::Uint64(unsigned __int64)
FUNC 20b40 8c 0 rapidjson::GenericDocument<rapidjson::UTF8<char>,rapidjson::MemoryPoolAllocator<rapidjson::CrtAllocator> >::Uint(unsigned int)
FUNC 20bd0 39 0 StatusRequest::StatusRequest()
FUNC 20c10 e5 0 StatusRequest::setLatestStatusVersion()
FUNC 20d00 13 0 StatusRequest::~StatusRequest()
FUNC 20d20 3f 0 StatePinger::metaObject()
FUNC 20d60 3d 0 StatePinger::qt_metacast(char const *)
FUNC 20da0 8a 0 StatePinger::qt_metacall(QMetaObject::Call,int,void * *)
FUNC 20e30 2c 0 StatePinger::qt_static_metacall(QObject *,QMetaObject::Call,int,void * *)
FUNC 20e60 3f 0 CustomErrorHandler::metaObject()
FUNC 20ea0 3d 0 CustomErrorHandler::qt_metacast(char const *)
FUNC 20ee0 8a 0 CustomErrorHandler::qt_metacall(QMetaObject::Call,int,void * *)
FUNC 20f70 7b 0 CustomErrorHandler::qt_static_metacall(QObject *,QMetaObject::Call,int,void * *)
FUNC 20ff0 33 0 CustomErrorHandler::sig_abortExec(ETException *)
FUNC 21030 3f 0 Machine::metaObject()
FUNC 21070 3d 0 Machine::qt_metacast(char const *)
FUNC 210b0 32 0 Machine::qt_metacall(QMetaObject::Call,int,void * *)
FUNC 210f0 5 0 Machine::qt_static_metacall(QObject *,QMetaObject::Call,int,void * *)
FUNC 21100 3f 0 EventAggregator::metaObject()
FUNC 21140 3d 0 EventAggregator::qt_metacast(char const *)
FUNC 21180 8a 0 EventAggregator::qt_metacall(QMetaObject::Call,int,void * *)
FUNC 21210 118 0 EventAggregator::qt_static_metacall(QObject *,QMetaObject::Call,int,void * *)
FUNC 21330 20 0 EventAggregator::sig_stateChangedEvent()
FUNC 21350 20 0 EventAggregator::sig_authSucceededEvent()
FUNC 21370 33 0 EventAggregator::sig_authFailedEvent(int)
FUNC 213b0 20 0 EventAggregator::sig_logOffRequestedEvent()
FUNC 213d0 20 0 EventAggregator::sig_mainWinDisabledEvent()
PUBLIC 213f0 0 QWeakPointer<QObject>::assign<QObject>(QObject *)
PUBLIC 21460 0 QGenericEnginePlugin::`vector deleting destructor'(unsigned int)
PUBLIC 21490 0 QGenericEnginePlugin::create(QString const &)
PUBLIC 214d0 0 QGenericEnginePlugin::metaObject()
PUBLIC 214f0 0 QGenericEnginePlugin::qt_metacast(char const *)
PUBLIC 21600 0 qt_static_plugin_QGenericEnginePlugin()
PUBLIC 21610 0 QExplicitlySharedDataPointer<QNetworkConfigurationPrivate>::QExplicitlySharedDataPointer<QNetworkConfigurationPrivate>(QExplicitlySharedDataPointer<QNetworkConfigurationPrivate> const &)
PUBLIC 21630 0 QGenericEngine::QGenericEngine(QObject *)
PUBLIC 21670 0 QNetworkConfigurationPrivate::QNetworkConfigurationPrivate()
PUBLIC 216d0 0 QNetworkSessionPrivateImpl::QNetworkSessionPrivateImpl()
PUBLIC 21750 0 QList<QNetworkAddressEntry>::~QList<QNetworkAddressEntry>()
PUBLIC 217b0 0 QList<QNetworkInterface>::~QList<QNetworkInterface>()
PUBLIC 21810 0 QGenericEngine::~QGenericEngine()
PUBLIC 21870 0 QNetworkConfigurationPrivate::~QNetworkConfigurationPrivate()
PUBLIC 21960 0 operator!=(QString const &,QString const &)
PUBLIC 21980 0 QBearerEngineImpl::`vector deleting destructor'(unsigned int)
PUBLIC 219b0 0 QGenericEngine::`vector deleting destructor'(unsigned int)
PUBLIC 219d0 0 QNetworkConfigurationPrivate::`vector deleting destructor'(unsigned int)
PUBLIC 219f0 0 QNetworkSessionPrivate::`vector deleting destructor'(unsigned int)
PUBLIC 21a40 0 QBearerEngineImpl::bytesReceived(QString const &)
PUBLIC 21a50 0 QGenericEngine::capabilities()
PUBLIC 21a60 0 QGenericEngine::connectToId(QString const &)
PUBLIC 21a70 0 QHash<QString,QExplicitlySharedDataPointer<QNetworkConfigurationPrivate> >::createNode(unsigned int,QString const &,QExplicitlySharedDataPointer<QNetworkConfigurationPrivate> const &,QHashNode<QString,QExplicitlySharedDataPointer<QNetworkConfigurationPrivate> > * *)
PUBLIC 21af0 0 QGenericEngine::createSessionBackend()
PUBLIC 21b10 0 QHash<QString,QExplicitlySharedDataPointer<QNetworkConfigurationPrivate> >::deleteNode2(QHashData::Node *)
PUBLIC 21b70 0 QHash<QString,QExplicitlySharedDataPointer<QNetworkConfigurationPrivate> >::deleteNode(QHashNode<QString,QExplicitlySharedDataPointer<QNetworkConfigurationPrivate> > *)
PUBLIC 21be0 0 QMapNode<unsigned int,QExplicitlySharedDataPointer<QNetworkConfigurationPrivate> >::destroySubTree()
PUBLIC 21c20 0 QMapNode<QString,QString>::destroySubTree()
PUBLIC 21c90 0 QHash<QString,QExplicitlySharedDataPointer<QNetworkConfigurationPrivate> >::detach()
PUBLIC 21cf0 0 QList<QNetworkInterface>::detach_helper(int)
PUBLIC 21d90 0 QMap<QString,QString>::detach_helper()
PUBLIC 21e10 0 QGenericEngine::doRequestUpdate()
PUBLIC 22870 0 QHash<QString,QExplicitlySharedDataPointer<QNetworkConfigurationPrivate> >::duplicateNode(QHashData::Node *,void *)
PUBLIC 228c0 0 QList<QString>::erase(QList<QString>::iterator)
PUBLIC 22960 0 QList<QString>::first()
PUBLIC 22990 0 QString::fromLatin1(char const *,int)
PUBLIC 229d0 0 QGenericEngine::getInterfaceFromId(QString const &)
PUBLIC 22aa0 0 QGenericEngine::hasIdentifier(QString const &)
PUBLIC 22b10 0 QHashData::hasShrunk()
PUBLIC 22b60 0 QList<QString>::indexOf(QString const &,int)
PUBLIC 22c00 0 QHash<QString,QExplicitlySharedDataPointer<QNetworkConfigurationPrivate> >::insert(QString const &,QExplicitlySharedDataPointer<QNetworkConfigurationPrivate> const &)
PUBLIC 22d00 0 QMap<QString,QString>::insert(QString const &,QString const &)
PUBLIC 22dc0 0 QHash<QString,QExplicitlySharedDataPointer<QNetworkConfigurationPrivate> >::keys()
PUBLIC 22eb0 0 QList<QNetworkAddressEntry>::node_destruct(QList<QNetworkAddressEntry>::Node *,QList<QNetworkAddressEntry>::Node *)
PUBLIC 22ee0 0 QList<QNetworkInterface>::node_destruct(QList<QNetworkInterface>::Node *,QList<QNetworkInterface>::Node *)
PUBLIC 230b0 0 QMap<QString,QString>::remove(QString const &)
PUBLIC 231a0 0 QList<QString>::removeAll(QString const &)
PUBLIC 232d0 0 QGenericEngine::initialize()
PUBLIC 232e0 0 QGenericEngine::sessionStateForId(QString const &)
PUBLIC 233b0 0 QHash<QString,QExplicitlySharedDataPointer<QNetworkConfigurationPrivate> >::take(QString const &)
PUBLIC 23490 0 QHash<QString,QExplicitlySharedDataPointer<QNetworkConfigurationPrivate> >::value(QString const &)
PUBLIC 23530 0 QBearerEngineImpl::qt_static_metacall(QObject *,QMetaObject::Call,int,void * *)
PUBLIC 23610 0 QtMetaTypePrivate::QMetaTypeFunctionHelper<int,1>::Create(void const *)
PUBLIC 23640 0 QBearerEngineImpl::connectionError(QString const &,QBearerEngineImpl::ConnectionError)
PUBLIC 23690 0 QBearerEngineImpl::metaObject()
PUBLIC 236b0 0 QBearerEngineImpl::qt_metacall(QMetaObject::Call,int,void * *)
PUBLIC 23710 0 QBearerEngineImpl::qt_metacast(char const *)
PUBLIC 23770 0 QMetaTypeId<QBearerEngineImpl::ConnectionError>::qt_metatype_id()
PUBLIC 23800 0 QGenericEngine::qt_static_metacall(QObject *,QMetaObject::Call,int,void * *)
PUBLIC 23840 0 QGenericEngine::metaObject()
PUBLIC 23860 0 QGenericEngine::qt_metacall(QMetaObject::Call,int,void * *)
PUBLIC 238f0 0 QGenericEngine::qt_metacast(char const *)
PUBLIC 23950 0 QNetworkSessionPrivateImpl::qt_static_metacall(QObject *,QMetaObject::Call,int,void * *)
PUBLIC 23a50 0 QtMetaTypePrivate::QMetaTypeFunctionHelper<QExplicitlySharedDataPointer<QNetworkConfigurationPrivate>,1>::Construct(void *,void const *)
PUBLIC 23a90 0 QtMetaTypePrivate::QMetaTypeFunctionHelper<QNetworkConfiguration,1>::Construct(void *,void const *)
PUBLIC 23ac0 0 QtMetaTypePrivate::QMetaTypeFunctionHelper<QExplicitlySharedDataPointer<QNetworkConfigurationPrivate>,1>::Create(void const *)
PUBLIC 23b10 0 QtMetaTypePrivate::QMetaTypeFunctionHelper<QNetworkConfiguration,1>::Create(void const *)
PUBLIC 23b40 0 QtMetaTypePrivate::QMetaTypeFunctionHelper<QExplicitlySharedDataPointer<QNetworkConfigurationPrivate>,1>::Delete(void *)
PUBLIC 23b80 0 QtMetaTypePrivate::QMetaTypeFunctionHelper<QNetworkConfiguration,1>::Delete(void *)
PUBLIC 23ba0 0 QtMetaTypePrivate::QMetaTypeFunctionHelper<QExplicitlySharedDataPointer<QNetworkConfigurationPrivate>,1>::Destruct(void *)
PUBLIC 23bd0 0 QtMetaTypePrivate::QMetaTypeFunctionHelper<QNetworkConfiguration,1>::Destruct(void *)
PUBLIC 23be0 0 QNetworkSessionPrivateImpl::metaObject()
PUBLIC 23c00 0 QNetworkSessionPrivateImpl::qt_metacall(QMetaObject::Call,int,void * *)
PUBLIC 23c50 0 QNetworkSessionPrivateImpl::qt_metacast(char const *)
PUBLIC 23cb0 0 QMetaTypeId<QExplicitlySharedDataPointer<QNetworkConfigurationPrivate> >::qt_metatype_id()
PUBLIC 23d40 0 QMetaTypeId<QNetworkConfiguration>::qt_metatype_id()
PUBLIC 23dd0 0 QNetworkSessionManagerPrivate::qt_static_metacall(QObject *,QMetaObject::Call,int,void * *)
PUBLIC 23e70 0 QForeachContainer<QList<QNetworkConfiguration> >::QForeachContainer<QList<QNetworkConfiguration> >(QList<QNetworkConfiguration> const &)
PUBLIC 23ef0 0 QList<QNetworkConfiguration>::~QList<QNetworkConfiguration>()
PUBLIC 23f50 0 QNetworkSessionManagerPrivate::`vector deleting destructor'(unsigned int)
PUBLIC 23f80 0 QNetworkSessionPrivateImpl::activeTime()
PUBLIC 23fd0 0 QNetworkSessionPrivateImpl::bytesReceived()
PUBLIC 24040 0 QNetworkSessionPrivateImpl::bytesWritten()
PUBLIC 240b0 0 QNetworkSessionPrivateImpl::close()
PUBLIC 240f0 0 QNetworkSessionPrivateImpl::configurationChanged(QExplicitlySharedDataPointer<QNetworkConfigurationPrivate>)
PUBLIC 24260 0 QNetworkSessionPrivateImpl::connectionError(QString const &,QBearerEngineImpl::ConnectionError)
PUBLIC 242f0 0 QNetworkSessionPrivateImpl::currentInterface()
PUBLIC 243d0 0 QNetworkSessionPrivateImpl::decrementTimeout()
PUBLIC 24410 0 QNetworkSessionPrivateImpl::error()
PUBLIC 24420 0 QNetworkSessionPrivateImpl::errorString()
PUBLIC 244f0 0 QNetworkSessionManagerPrivate::forcedSessionClose(QNetworkConfiguration const &)
PUBLIC 24520 0 QNetworkSessionPrivateImpl::forcedSessionClose(QNetworkConfiguration const &)
PUBLIC 24690 0 `anonymous namespace'::Q_QGS_sessionManager::innerFunction()
PUBLIC 24730 0 QNetworkSessionManagerPrivate::metaObject()
PUBLIC 24750 0 QNetworkSessionPrivateImpl::networkConfigurationsChanged()
PUBLIC 247d0 0 QList<QNetworkConfiguration>::node_copy(QList<QNetworkConfiguration>::Node *,QList<QNetworkConfiguration>::Node *,QList<QNetworkConfiguration>::Node *)
PUBLIC 24810 0 QList<QNetworkConfiguration>::node_destruct(QList<QNetworkConfiguration>::Node *,QList<QNetworkConfiguration>::Node *)
PUBLIC 24840 0 QNetworkSessionPrivateImpl::open()
PUBLIC 24940 0 QNetworkSessionManagerPrivate::qt_metacall(QMetaObject::Call,int,void * *)
PUBLIC 249a0 0 QNetworkSessionManagerPrivate::qt_metacast(char const *)
PUBLIC 24a00 0 QNetworkSessionPrivateImpl::sessionProperty(QString const &)
PUBLIC 24a90 0 QNetworkSessionPrivateImpl::setSessionProperty(QString const &,QVariant const &)
PUBLIC 24b50 0 QNetworkSessionPrivateImpl::setUsagePolicies(QFlags<QNetworkSession::UsagePolicy>)
PUBLIC 24b70 0 QNetworkSessionPrivateImpl::stop()
PUBLIC 24c60 0 QNetworkSessionPrivateImpl::syncStateWithInterface()
PUBLIC 24da0 0 QNetworkSessionPrivateImpl::updateStateFromActiveConfig()
PUBLIC 24e40 0 QNetworkSessionPrivateImpl::updateStateFromServiceNetwork()
PUBLIC 250e0 0 QNetworkSessionPrivateImpl::usagePolicies()
PUBLIC 250f0 0 QNativeWifiEnginePlugin::`vector deleting destructor'(unsigned int)
PUBLIC 25120 0 QNativeWifiEnginePlugin::create(QString const &)
PUBLIC 25190 0 QNativeWifiEnginePlugin::metaObject()
PUBLIC 251b0 0 QGenericEnginePlugin::qt_metacall(QMetaObject::Call,int,void * *)
PUBLIC 251c0 0 QNativeWifiEnginePlugin::qt_metacast(char const *)
PUBLIC 252d0 0 qt_static_plugin_QNativeWifiEnginePlugin()
PUBLIC 25690 0 QNativeWifiEngine::QNativeWifiEngine(QObject *)
PUBLIC 256e0 0 QNativeWifiEngine::`vector deleting destructor'(unsigned int)
PUBLIC 25730 0 QString::arg(int,int,int,QChar)
PUBLIC 25760 0 QNativeWifiEngine::available()
PUBLIC 257c0 0 QNativeWifiEngine::capabilities()
PUBLIC 257d0 0 QString::clear()
PUBLIC 25810 0 QNativeWifiEngine::closeHandle()
PUBLIC 25830 0 QNativeWifiEngine::connectToId(QString const &)
PUBLIC 25c80 0 QGenericEngine::defaultConfiguration()
PUBLIC 25c90 0 QNativeWifiEngine::disconnectFromId(QString const &)
PUBLIC 26010 0 QString::fromUtf8(QByteArray const &)
PUBLIC 26070 0 QNativeWifiEngine::getInterfaceFromId(QString const &)
PUBLIC 26490 0 QNativeWifiEngine::hasIdentifier(QString const &)
PUBLIC 26870 0 QNativeWifiEngine::initialize()
PUBLIC 26880 0 QMetaObject::invokeMethod(QObject *,char const *,Qt::ConnectionType,QGenericArgument,QGenericArgument,QGenericArgument,QGenericArgument,QGenericArgument,QGenericArgument,QGenericArgument,QGenericArgument,QGenericArgument,QGenericArgument)
PUBLIC 268f0 0 qNotificationCallback(WLAN_NOTIFICATION_DATA *,QNativeWifiEngine *)
PUBLIC 26970 0 QNativeWifiEngine::requestUpdate()
PUBLIC 26a80 0 QNativeWifiEngine::scanComplete()
PUBLIC 27430 0 QNativeWifiEngine::sessionStateForId(QString const &)
PUBLIC 274e0 0 QNativeWifiEngine::qt_static_metacall(QObject *,QMetaObject::Call,int,void * *)
PUBLIC 27530 0 QNativeWifiEngine::metaObject()
PUBLIC 27550 0 QNativeWifiEngine::qt_metacall(QMetaObject::Call,int,void * *)
PUBLIC 275b0 0 QNativeWifiEngine::qt_metacast(char const *)
PUBLIC 27610 0 QHostAddress::QHostAddress(QHostAddress const &)
PUBLIC 27690 0 QHostAddress::QHostAddress(QString const &)
PUBLIC 276f0 0 QHostAddress::QHostAddress(unsigned int)
PUBLIC 27770 0 QHostAddress::QHostAddress(QHostAddress::SpecialAddress)
PUBLIC 278c0 0 QHostAddress::QHostAddress()
PUBLIC 27910 0 QNetmaskAddress::QNetmaskAddress()
PUBLIC 27970 0 QPair<QHostAddress,int>::~QPair<QHostAddress,int>()
PUBLIC 27990 0 QHostAddress::operator=(QHostAddress const &)
PUBLIC 279e0 0 QDebug::operator<<(QString const &)
PUBLIC 27a40 0 QDebug::operator<<(char const *)
PUBLIC 27ac0 0 QHostAddress::operator==(QHostAddress const &)
PUBLIC 27b50 0 QHostAddress::operator==(QHostAddress::SpecialAddress)
PUBLIC 27bf0 0 QStringBuilder<QLatin1Char,QString>::operator QString()
PUBLIC 27c40 0 QHostAddress::clear()
PUBLIC 27cc0 0 QHostAddress::isInSubnet(QPair<QHostAddress,int> const &)
PUBLIC 27cd0 0 QHostAddress::isInSubnet(QHostAddress const &,int)
PUBLIC 27e50 0 QHostAddress::isLoopback()
PUBLIC 27fd0 0 QHostAddress::isNull()
PUBLIC 28110 0 QList<QString>::last()
PUBLIC 28140 0 QHostAddressPrivate::parse()
PUBLIC 283e0 0 QHostAddress::parseSubnet(QString const &)
PUBLIC 28890 0 QNetmaskAddress::prefixLength()
PUBLIC 288a0 0 QHostAddress::protocol()
PUBLIC 289e0 0 qHash(QHostAddress const &,unsigned int)
PUBLIC 28a50 0 QList<QString>::removeLast()
PUBLIC 28a90 0 QHostAddress::scopeId()
PUBLIC 28b70 0 QHostAddress::setAddress(QIPv6Address const &)
PUBLIC 28bb0 0 QHostAddress::setAddress(unsigned int)
PUBLIC 28bf0 0 QHostAddress::setAddress(unsigned char *)
PUBLIC 28c00 0 QHostAddress::setAddress(QString const &)
PUBLIC 28c20 0 QHostAddressPrivate::setAddress(QIPv6Address const &)
PUBLIC 28c60 0 QHostAddressPrivate::setAddress(unsigned int)
PUBLIC 28ca0 0 QHostAddressPrivate::setAddress(unsigned char const *)
PUBLIC 28d30 0 QNetmaskAddress::setAddress(QHostAddress const &)
PUBLIC 29010 0 QNetmaskAddress::setAddress(QString const &)
PUBLIC 290b0 0 QNetmaskAddress::setPrefixLength(QAbstractSocket::NetworkLayerProtocol,int)
PUBLIC 29170 0 QHostAddress::setScopeId(QString const &)
PUBLIC 292c0 0 QHostAddress::toIPv4Address()
PUBLIC 29400 0 QHostAddress::toIPv6Address()
PUBLIC 29550 0 QHostAddress::toString()
PUBLIC 29660 0 QTcpServer::qt_static_metacall(QObject *,QMetaObject::Call,int,void * *)
PUBLIC 29750 0 QList<QNetworkCookie>::QList<QNetworkCookie>(QList<QNetworkCookie> const &)
PUBLIC 297c0 0 QTcpServer::QTcpServer(QObject *)
PUBLIC 29800 0 QTcpServerPrivate::QTcpServerPrivate()
PUBLIC 29870 0 QList<QNetworkProxy>::~QList<QNetworkProxy>()
PUBLIC 298d0 0 QTcpServer::~QTcpServer()
PUBLIC 298f0 0 QTcpServerPrivate::~QTcpServerPrivate()
PUBLIC 29980 0 QList<QNetworkProxy>::operator<<(QNetworkProxy const &)
PUBLIC 299d1 0 [thunk]:QTcpServerPrivate::`vector deleting destructor'`adjustor{64}' (unsigned int)
PUBLIC 299e0 0 QAbstractSocketEngineReceiver::`vector deleting destructor'(unsigned int)
PUBLIC 29a00 0 QTcpServer::`vector deleting destructor'(unsigned int)
PUBLIC 29a30 0 QTcpServerPrivate::`vector deleting destructor'(unsigned int)
PUBLIC 29a50 0 QTcpServer::acceptError(QAbstractSocket::SocketError)
PUBLIC 29a80 0 QTcpServer::close()
PUBLIC 29b00 0 QSpdyProtocolHandler::_q_readyRead()
PUBLIC 29b10 0 QList<QNetworkProxy>::detach_helper_grow(int,int)
PUBLIC 29c20 0 QList<QFtpCommand *>::erase(QList<QFtpCommand *>::iterator)
PUBLIC 29ca0 0 QTcpServer::hasPendingConnections()
PUBLIC 29cc0 0 QTcpServer::incomingConnection(int)
PUBLIC 29d30 0 QTcpServer::isListening()
PUBLIC 29d50 0 QTcpServer::listen(QHostAddress const &,unsigned short)
PUBLIC 29fb0 0 QTcpServer::metaObject()
PUBLIC 29fd0 0 QTcpServer::newConnection()
PUBLIC 29ff0 0 QTcpServer::nextPendingConnection()
PUBLIC 2a030 0 QList<QNetworkProxy>::node_destruct(QList<QNetworkProxy>::Node *,QList<QNetworkProxy>::Node *)
PUBLIC 2a060 0 QTcpServer::proxy()
PUBLIC 2a080 0 QTcpServerPrivate::proxyAuthenticationRequired(QNetworkProxy const &,QAuthenticator *)
PUBLIC 2a090 0 QTcpServer::qt_metacall(QMetaObject::Call,int,void * *)
PUBLIC 2a0e0 0 QTcpServer::qt_metacast(char const *)
PUBLIC 2a140 0 QTcpServerPrivate::readNotification()
PUBLIC 2a2c0 0 QTcpServerPrivate::resolveProxy(QHostAddress const &,unsigned short)
PUBLIC 2a6c0 0 QTcpServer::serverPort()
PUBLIC 2a6e0 0 QList<QTcpSocket *>::takeFirst()
PUBLIC 2a740 0 QTcpServer::waitForNewConnection(int,bool *)
PUBLIC 2a7e0 0 QAbstractSocket::qt_static_metacall(QObject *,QMetaObject::Call,int,void * *)
PUBLIC 2a990 0 QForeachContainer<QList<QHostAddress> >::QForeachContainer<QList<QHostAddress> >(QList<QHostAddress> const &)
PUBLIC 2aa10 0 QList<QHostAddress>::QList<QHostAddress>(QList<QHostAddress> const &)
PUBLIC 2aa80 0 QAbstractSocket::QAbstractSocket(QAbstractSocket::SocketType,QAbstractSocketPrivate &,QObject *)
PUBLIC 2aab0 0 QAbstractSocketPrivate::QAbstractSocketPrivate()
PUBLIC 2ac00 0 QRingBuffer::QRingBuffer(int)
PUBLIC 2ac80 0 QList<QHostAddress>::~QList<QHostAddress>()
PUBLIC 2acb0 0 QAbstractSocket::~QAbstractSocket()
PUBLIC 2ace0 0 QAbstractSocketPrivate::~QAbstractSocketPrivate()
PUBLIC 2ae10 0 QForeachContainer<QList<QByteArray> >::~QForeachContainer<QList<QByteArray> >()
PUBLIC 2ae60 0 QList<QHostAddress>::operator=(QList<QHostAddress> const &)
PUBLIC 2aeb0 0 operator<<(QDebug,QAbstractSocket::SocketError)
PUBLIC 2b0d0 0 QList<QHostAddress>::operator+=(QList<QHostAddress> const &)
PUBLIC 2b150 0 QAbstractSocket::`vector deleting destructor'(unsigned int)
PUBLIC 2b190 0 QtMetaTypePrivate::QMetaTypeFunctionHelper<QSharedPointer<char>,1>::Construct(void *,void const *)
PUBLIC 2b1f0 0 QtMetaTypePrivate::QMetaTypeFunctionHelper<QSharedPointer<char>,1>::Create(void const *)
PUBLIC 2b250 0 QtMetaTypePrivate::QMetaTypeFunctionHelper<QSharedPointer<char>,1>::Destruct(void *)
PUBLIC 2b290 0 QAbstractSocketPrivate::_q_abortConnectionAttempt()
PUBLIC 2b3a0 0 QAbstractSocketPrivate::_q_connectToNextAddress()
PUBLIC 2b860 0 QAbstractSocketPrivate::_q_forceDisconnect()
PUBLIC 2b8a0 0 QAbstractSocketPrivate::_q_startConnecting(QHostInfo const &)
PUBLIC 2bb90 0 QAbstractSocketPrivate::_q_testConnection()
PUBLIC 2bc60 0 QAbstractSocket::abort()
PUBLIC 2bcd0 0 QList<QHostAddress>::append(QHostAddress const &)
PUBLIC 2bd40 0 QAbstractSocket::atEnd()
PUBLIC 2bd70 0 QAbstractSocket::bind(QHostAddress const &,unsigned short,QFlags<QAbstractSocket::BindFlag>)
PUBLIC 2bfb0 0 QAbstractSocket::bind(unsigned short,QFlags<QAbstractSocket::BindFlag>)
PUBLIC 2bff0 0 QAbstractSocket::bytesAvailable()
PUBLIC 2c040 0 QAbstractSocket::bytesToWrite()
PUBLIC 2c050 0 QAbstractSocketPrivate::canCloseNotification()
PUBLIC 2c0f0 0 QAbstractSocket::canReadLine()
PUBLIC 2c120 0 QAbstractSocketPrivate::canReadNotification()
PUBLIC 2c370 0 QAbstractSocketPrivate::canWriteNotification()
PUBLIC 2c3e0 0 QIODevicePrivateLinearBuffer::chop(__int64)
PUBLIC 2c440 0 QIODevicePrivateLinearBuffer::clear()
PUBLIC 2c480 0 QRingBuffer::clear()
PUBLIC 2c530 0 QAbstractSocket::close()
PUBLIC 2c5c0 0 QAbstractSocketPrivate::closeNotification()
PUBLIC 2c5d0 0 QAbstractSocket::connectToHost(QHostAddress const &,unsigned short,QFlags<QIODevice::OpenModeFlag>)
PUBLIC 2c630 0 QAbstractSocket::connectToHost(QString const &,unsigned short,QFlags<QIODevice::OpenModeFlag>,QAbstractSocket::NetworkLayerProtocol)
PUBLIC 2c9e0 0 QAbstractSocket::connected()
PUBLIC 2ca00 0 QAbstractSocketPrivate::connectionNotification()
PUBLIC 2ca20 0 QtPrivate::ConverterFunctor<QSharedPointer<QNetworkSession>,QObject *,QtPrivate::QSmartPointerConvertFunctor<QSharedPointer<QNetworkSession> > >::convert(QtPrivate::AbstractConverterFunction const *,void const *,void *)
PUBLIC 2ca30 0 QList<QHostAddress>::dealloc(QListData::Data *)
PUBLIC 2ca80 0 QList<QHostAddress>::detach_helper_grow(int,int)
PUBLIC 2cb30 0 QAbstractSocket::disconnectFromHost()
PUBLIC 2cdb0 0 QAbstractSocket::disconnected()
PUBLIC 2cdd0 0 QList<QByteArray>::erase(QList<QByteArray>::iterator,QList<QByteArray>::iterator)
PUBLIC 2cef0 0 QList<QByteArray>::erase(QList<QByteArray>::iterator)
PUBLIC 2cf90 0 QAbstractSocket::error(QAbstractSocket::SocketError)
PUBLIC 2cfc0 0 QAbstractSocket::error()
PUBLIC 2cfd0 0 QAbstractSocketPrivate::fetchConnectionParameters()
PUBLIC 2d0e0 0 QAbstractSocket::flush()
PUBLIC 2d110 0 QAbstractSocketPrivate::flush()
PUBLIC 2d300 0 QRingBuffer::free(int)
PUBLIC 2d3b0 0 QAbstractSocket::hostFound()
PUBLIC 2d3d0 0 QAbstractSocketPrivate::initSocketLayer(QAbstractSocket::NetworkLayerProtocol)
PUBLIC 2d500 0 QAbstractSocket::isValid()
PUBLIC 2d520 0 QAbstractSocket::localAddress()
PUBLIC 2d540 0 QAbstractSocket::localPort()
PUBLIC 2d550 0 QIODevicePrivateLinearBuffer::makeSpace(unsigned int,QIODevicePrivateLinearBuffer::FreeSpacePos)
PUBLIC 2d600 0 QAbstractSocket::metaObject()
PUBLIC 2d620 0 QtPrivate::QVariantValueHelper<QSharedPointer<QNetworkSession> >::metaType(QVariant const &)
PUBLIC 2d700 0 QRingBuffer::nextDataBlockSize()
PUBLIC 2d720 0 QList<QHostAddress>::node_copy(QList<QHostAddress>::Node *,QList<QHostAddress>::Node *,QList<QHostAddress>::Node *)
PUBLIC 2d760 0 QAbstractSocket::pauseMode()
PUBLIC 2d780 0 QAbstractSocketPrivate::pauseSocketNotifiers(QAbstractSocket *)
PUBLIC 2d800 0 QAbstractSocket::peerAddress()
PUBLIC 2d820 0 QAbstractSocket::peerName()
PUBLIC 2d860 0 QAbstractSocket::peerPort()
PUBLIC 2d870 0 QAbstractSocket::proxy()
PUBLIC 2d890 0 QAbstractSocket::proxyAuthenticationRequired(QNetworkProxy const &,QAuthenticator *)
PUBLIC 2d8f0 0 QAbstractSocketPrivate::proxyAuthenticationRequired(QNetworkProxy const &,QAuthenticator *)
PUBLIC 2d950 0 QAbstractSocket::qt_metacall(QMetaObject::Call,int,void * *)
PUBLIC 2d9a0 0 QAbstractSocket::qt_metacast(char const *)
PUBLIC 2da00 0 QtPrivate::SharedPointerMetaTypeIdHelper<QSharedPointer<QNetworkSession>,1>::qt_metatype_id()
PUBLIC 2daf0 0 QAbstractSocket::readBufferSize()
PUBLIC 2db00 0 QAbstractSocket::readData(char *,__int64)
PUBLIC 2dc60 0 QAbstractSocketPrivate::readFromSocket()
PUBLIC 2dde0 0 QAbstractSocket::readLineData(char *,__int64)
PUBLIC 2de00 0 QAbstractSocketPrivate::readNotification()
PUBLIC 2de10 0 QRingBuffer::readPointer()
PUBLIC 2de30 0 QtPrivate::MetaTypeSmartPointerHelper<QSharedPointer<QNetworkSession>,void>::registerConverter(int)
PUBLIC 2de90 0 QIODevicePrivateLinearBuffer::reserve(__int64)
PUBLIC 2dec0 0 QRingBuffer::reserve(int)
PUBLIC 2e030 0 QAbstractSocketPrivate::resetSocketLayer()
PUBLIC 2e0a0 0 QAbstractSocketPrivate::resolveProxy(QString const &,unsigned short)
PUBLIC 2e340 0 QAbstractSocket::resume()
PUBLIC 2e390 0 QAbstractSocketPrivate::resumeSocketNotifiers(QAbstractSocket *)
PUBLIC 2e3f0 0 QAbstractSocket::setLocalAddress(QHostAddress const &)
PUBLIC 2e400 0 QAbstractSocket::setLocalPort(unsigned short)
PUBLIC 2e420 0 QAbstractSocket::setPeerAddress(QHostAddress const &)
PUBLIC 2e430 0 QAbstractSocket::setPeerName(QString const &)
PUBLIC 2e440 0 QAbstractSocket::setPeerPort(unsigned short)
PUBLIC 2e460 0 QAbstractSocket::setProxy(QNetworkProxy const &)
PUBLIC 2e470 0 QAbstractSocket::setReadBufferSize(__int64)
PUBLIC 2e4e0 0 QAbstractSocket::setSocketDescriptor(int,QAbstractSocket::SocketState,QFlags<QIODevice::OpenModeFlag>)
PUBLIC 2e740 0 QAbstractSocket::setSocketError(QAbstractSocket::SocketError)
PUBLIC 2e750 0 QAbstractSocket::setSocketOption(QAbstractSocket::SocketOption,QVariant const &)
PUBLIC 2e860 0 QAbstractSocket::setSocketState(QAbstractSocket::SocketState)
PUBLIC 2e870 0 QAbstractSocket::socketDescriptor()
PUBLIC 2e880 0 QAbstractSocket::socketOption(QAbstractSocket::SocketOption)
PUBLIC 2e910 0 QAbstractSocketPrivate::startConnectingByName(QString const &)
PUBLIC 2ea70 0 QAbstractSocket::state()
PUBLIC 2ea80 0 QAbstractSocket::stateChanged(QAbstractSocket::SocketState)
PUBLIC 2eab0 0 QAbstractSocket::waitForBytesWritten(int)
PUBLIC 2ec90 0 QAbstractSocket::waitForConnected(int)
PUBLIC 2f020 0 QAbstractSocket::waitForDisconnected(int)
PUBLIC 2f250 0 QAbstractSocket::waitForReadyRead(int)
PUBLIC 2f430 0 QAbstractSocket::writeData(char const *,__int64)
PUBLIC 2f6c0 0 QAbstractSocketPrivate::writeNotification()
PUBLIC 2f6d0 0 QTcpSocket::QTcpSocket(QTcpSocketPrivate &,QObject *)
PUBLIC 2f700 0 QTcpSocket::QTcpSocket(QObject *)
PUBLIC 2f760 0 QTcpSocket::~QTcpSocket()
PUBLIC 2f76b 0 [thunk]:QAbstractSocketPrivate::`vector deleting destructor'`adjustor{136}' (unsigned int)
PUBLIC 2f780 0 QTcpSocket::`vector deleting destructor'(unsigned int)
PUBLIC 2f7b0 0 QAbstractSocketPrivate::`vector deleting destructor'(unsigned int)
PUBLIC 2f7d0 0 QtMetaTypePrivate::QSequentialIterableImpl::QSequentialIterableImpl<QList<QNetworkCookie> >(QList<QNetworkCookie> const *)
PUBLIC 2f840 0 QtMetaTypePrivate::QSequentialIterableImpl::atImpl<QList<QNetworkCookie> >(void const *,int)
PUBLIC 2f860 0 QVariant::fromValue<QList<QNetworkCookie> >(QList<QNetworkCookie> const &)
PUBLIC 2f880 0 QtMetaTypePrivate::QSequentialIterableImpl::getImpl<QList<QNetworkCookie> >(void * const *,int,unsigned int)
PUBLIC 2f8a0 0 QtMetaTypePrivate::QSequentialIterableImpl::moveToBeginImpl<QList<QPair<QByteArray,QByteArray> > >(void const *,void * *)
PUBLIC 2f8e0 0 QtMetaTypePrivate::QSequentialIterableImpl::moveToEndImpl<QList<QPair<QByteArray,QByteArray> > >(void const *,void * *)
PUBLIC 2f920 0 qMetaTypeId<QtMetaTypePrivate::QSequentialIterableImpl>()
PUBLIC 2f930 0 qRegisterMetaType<QtMetaTypePrivate::QSequentialIterableImpl>(char const *,QtMetaTypePrivate::QSequentialIterableImpl *,QtPrivate::MetaTypeDefinedHelper<QtMetaTypePrivate::QSequentialIterableImpl,1>::DefinedType)
PUBLIC 2f9e0 0 QForeachContainer<QList<QByteArray> >::QForeachContainer<QList<QByteArray> >(QList<QByteArray> const &)
PUBLIC 2fa60 0 QList<QPair<QByteArray,QByteArray> >::QList<QPair<QByteArray,QByteArray> >(QList<QPair<QByteArray,QByteArray> > const &)
PUBLIC 2fad0 0 QList<QByteArray>::QList<QByteArray>(QList<QByteArray> const &)
PUBLIC 2fb40 0 QNetworkHeadersPrivate::QNetworkHeadersPrivate(QNetworkHeadersPrivate const &)
PUBLIC 2fc10 0 QNetworkHeadersPrivate::QNetworkHeadersPrivate()
PUBLIC 2fc40 0 QNetworkRequest::QNetworkRequest(QUrl const &)
PUBLIC 2fce0 0 QNetworkRequestPrivate::QNetworkRequestPrivate(QNetworkRequestPrivate const &)
PUBLIC 2fd60 0 QtMetaTypePrivate::QSequentialIterableImpl::QSequentialIterableImpl()
PUBLIC 2fdd0 0 QList<QPair<QByteArray,QByteArray> >::~QList<QPair<QByteArray,QByteArray> >()
PUBLIC 2fe20 0 QList<QNetworkCookie>::~QList<QNetworkCookie>()
PUBLIC 2fe80 0 QPair<QByteArray,QByteArray>::~QPair<QByteArray,QByteArray>()
PUBLIC 2fee0 0 QNetworkHeadersPrivate::~QNetworkHeadersPrivate()
PUBLIC 2ffa0 0 QNetworkRequest::~QNetworkRequest()
PUBLIC 30040 0 QList<QPair<QByteArray,QByteArray> >::operator=(QList<QPair<QByteArray,QByteArray> > const &)
PUBLIC 300c0 0 QList<QNetworkCookie>::operator=(QList<QNetworkCookie> const &)
PUBLIC 30100 0 QSharedDataPointer<QNetworkRequestPrivate>::operator=(QSharedDataPointer<QNetworkRequestPrivate> const &)
PUBLIC 30180 0 QNetworkRequest::operator=(QNetworkRequest const &)
PUBLIC 301a0 0 QList<QNetworkCookie>::operator<<(QNetworkCookie const &)
PUBLIC 30200 0 QList<QPair<QByteArray,QByteArray> >::operator==(QList<QPair<QByteArray,QByteArray> > const &)
PUBLIC 302a0 0 operator==(QByteArray const &,QByteArray const &)
PUBLIC 30320 0 QList<QNetworkCookie>::operator+=(QList<QNetworkCookie> const &)
PUBLIC 303c0 0 QtMetaTypePrivate::QMetaTypeFunctionHelper<QList<QNetworkCookie>,1>::Construct(void *,void const *)
PUBLIC 303f0 0 QtMetaTypePrivate::QMetaTypeFunctionHelper<QNetworkCookie,1>::Construct(void *,void const *)
PUBLIC 304c0 0 QtMetaTypePrivate::QMetaTypeFunctionHelper<QNetworkRequest,1>::Construct(void *,void const *)
PUBLIC 30530 0 QtMetaTypePrivate::QMetaTypeFunctionHelper<QtMetaTypePrivate::QSequentialIterableImpl,1>::Construct(void *,void const *)
PUBLIC 30580 0 QtMetaTypePrivate::QMetaTypeFunctionHelper<QList<QNetworkCookie>,1>::Create(void const *)
PUBLIC 305b0 0 QtMetaTypePrivate::QMetaTypeFunctionHelper<QNetworkCookie,1>::Create(void const *)
PUBLIC 30690 0 QtMetaTypePrivate::QMetaTypeFunctionHelper<QNetworkRequest,1>::Create(void const *)
PUBLIC 30710 0 QtMetaTypePrivate::QMetaTypeFunctionHelper<QtMetaTypePrivate::QSequentialIterableImpl,1>::Create(void const *)
PUBLIC 30760 0 QtMetaTypePrivate::QMetaTypeFunctionHelper<QList<QNetworkCookie>,1>::Delete(void *)
PUBLIC 30780 0 QtMetaTypePrivate::QMetaTypeFunctionHelper<QNetworkCookie,1>::Delete(void *)
PUBLIC 307a0 0 QtMetaTypePrivate::QMetaTypeFunctionHelper<QNetworkRequest,1>::Delete(void *)
PUBLIC 307c0 0 QtMetaTypePrivate::QMetaTypeFunctionHelper<QList<QNetworkCookie>,1>::Destruct(void *)
PUBLIC 307d0 0 QtMetaTypePrivate::QMetaTypeFunctionHelper<QNetworkCookie,1>::Destruct(void *)
PUBLIC 307e0 0 QtMetaTypePrivate::QMetaTypeFunctionHelper<QNetworkRequest,1>::Destruct(void *)
PUBLIC 307f0 0 QtMetaTypePrivate::IteratorOwnerCommon<QList<QPair<QByteArray,QByteArray> >::const_iterator>::advance(void * *,int)
PUBLIC 30800 0 QList<QPair<QByteArray,QByteArray> >::append(QPair<QByteArray,QByteArray> const &)
PUBLIC 30850 0 QList<QNetworkCookie>::append(QNetworkCookie const &)
PUBLIC 308a0 0 QNetworkRequest::attribute(QNetworkRequest::Attribute,QVariant const &)
PUBLIC 308c0 0 QLocale::c()
PUBLIC 308e0 0 QHash<QNetworkRequest::KnownHeaders,QVariant>::clear()
PUBLIC 30920 0 QtPrivate::ConverterFunctor<QList<QNetworkCookie>,QtMetaTypePrivate::QSequentialIterableImpl,QtMetaTypePrivate::QSequentialIterableConvertFunctor<QList<QNetworkCookie> > >::convert(QtPrivate::AbstractConverterFunction const *,void const *,void *)
PUBLIC 30970 0 QHash<QNetworkRequest::Attribute,QVariant>::deleteNode2(QHashData::Node *)
PUBLIC 30980 0 QHash<QNetworkRequest::Attribute,QVariant>::detach()
PUBLIC 309e0 0 QHash<QNetworkRequest::Attribute,QVariant>::detach_helper()
PUBLIC 30a30 0 QList<QPair<QByteArray,QByteArray> >::detach_helper(int)
PUBLIC 30ab0 0 QSharedDataPointer<QNetworkRequestPrivate>::detach_helper()
PUBLIC 30b30 0 QList<QPair<QByteArray,QByteArray> >::detach_helper_grow(int,int)
PUBLIC 30c00 0 QList<QNetworkCookie>::detach_helper_grow(int,int)
PUBLIC 30d10 0 QHash<QNetworkRequest::Attribute,QVariant>::duplicateNode(QHashData::Node *,void *)
PUBLIC 30d40 0 QtMetaTypePrivate::IteratorOwnerCommon<QList<QPair<QByteArray,QByteArray> >::const_iterator>::equal(void * const *,void * const *)
PUBLIC 30d60 0 QList<QPair<QByteArray,QByteArray> >::erase(QList<QPair<QByteArray,QByteArray> >::iterator)
PUBLIC 30de0 0 QNetworkHeadersPrivate::findRawHeader(QByteArray const &)
PUBLIC 30e40 0 QNetworkHeadersPrivate::fromHttpDate(QByteArray const &)
PUBLIC 31070 0 QString::fromLatin1(QByteArray const &)
PUBLIC 310d0 0 QNetworkRequest::hasRawHeader(QByteArray const &)
PUBLIC 31100 0 QNetworkRequest::header(QNetworkRequest::KnownHeaders)
PUBLIC 31590 0 QHash<QNetworkRequest::Attribute,QVariant>::insert(QNetworkRequest::Attribute const &,QVariant const &)
PUBLIC 316a0 0 QtPrivate::QVariantValueHelper<QList<QNetworkCookie> >::metaType(QVariant const &)
PUBLIC 31720 0 QtPrivate::QVariantValueHelper<QNetworkCookie>::metaType(QVariant const &)
PUBLIC 31980 0 QList<QPair<QByteArray,QByteArray> >::node_construct(QList<QPair<QByteArray,QByteArray> >::Node *,QPair<QByteArray,QByteArray> const &)
PUBLIC 319e0 0 QList<QPair<QByteArray,QByteArray> >::node_copy(QList<QPair<QByteArray,QByteArray> >::Node *,QList<QPair<QByteArray,QByteArray> >::Node *,QList<QPair<QByteArray,QByteArray> >::Node *)
PUBLIC 31a50 0 QList<QNetworkCookie>::node_copy(QList<QNetworkCookie>::Node *,QList<QNetworkCookie>::Node *,QList<QNetworkCookie>::Node *)
PUBLIC 31a90 0 QList<QPair<QByteArray,QByteArray> >::node_destruct(QList<QPair<QByteArray,QByteArray> >::Node *,QList<QPair<QByteArray,QByteArray> >::Node *)
PUBLIC 31b20 0 QList<QNetworkCookie>::node_destruct(QList<QNetworkCookie>::Node *,QList<QNetworkCookie>::Node *)
PUBLIC 31b50 0 QNetworkHeadersPrivate::parseAndSetHeader(QByteArray const &,QByteArray const &)
PUBLIC 32390 0 QMetaTypeId<QList<QNetworkCookie> >::qt_metatype_id()
PUBLIC 324b0 0 QMetaTypeId<QNetworkCookie>::qt_metatype_id()
PUBLIC 32540 0 QMetaTypeId<QNetworkRequest>::qt_metatype_id()
PUBLIC 325d0 0 QMetaTypeId<QtMetaTypePrivate::QSequentialIterableImpl>::qt_metatype_id()
PUBLIC 32660 0 QNetworkRequest::rawHeader(QByteArray const &)
PUBLIC 326c0 0 QNetworkRequest::rawHeaderList()
PUBLIC 326e0 0 QNetworkHeadersPrivate::rawHeadersKeys()
PUBLIC 32780 0 QtPrivate::ValueTypeIsMetaType<QList<QNetworkCookie>,1>::registerConverter(int)
PUBLIC 327e0 0 QHash<QNetworkRequest::Attribute,QVariant>::remove(QNetworkRequest::Attribute const &)
PUBLIC 328b0 0 QNetworkHeadersPrivate::setAllRawHeaders(QList<QPair<QByteArray,QByteArray> > const &)
PUBLIC 32930 0 QNetworkRequest::setAttribute(QNetworkRequest::Attribute,QVariant const &)
PUBLIC 32990 0 QNetworkHeadersPrivate::setCookedHeader(QNetworkRequest::KnownHeaders,QVariant const &)
PUBLIC 32b30 0 QNetworkRequest::setHeader(QNetworkRequest::KnownHeaders,QVariant const &)
PUBLIC 32b60 0 QNetworkHeadersPrivate::setRawHeader(QByteArray const &,QByteArray const &)
PUBLIC 32b90 0 QNetworkRequest::setRawHeader(QByteArray const &,QByteArray const &)
PUBLIC 32be0 0 QNetworkHeadersPrivate::setRawHeaderInternal(QByteArray const &,QByteArray const &)
PUBLIC 32d90 0 QNetworkRequest::sslConfiguration()
PUBLIC 32de0 0 QNetworkHeadersPrivate::toHttpDate(QDateTime const &)
PUBLIC 32ea0 0 QNetworkRequest::url()
PUBLIC 32ec0 0 QHash<QNetworkRequest::Attribute,QVariant>::value(QNetworkRequest::Attribute const &,QVariant const &)
PUBLIC 32f40 0 QNetworkAccessManager::qt_static_metacall(QObject *,QMetaObject::Call,int,void * *)
PUBLIC 33180 0 QtMetaTypePrivate::QSequentialIterableImpl::QSequentialIterableImpl<QList<QPair<QByteArray,QByteArray> > >(QList<QPair<QByteArray,QByteArray> > const *)
PUBLIC 331f0 0 QtMetaTypePrivate::QSequentialIterableImpl::atImpl<QList<QPair<QByteArray,QByteArray> > >(void const *,int)
PUBLIC 33210 0 QSharedPointer<QNetworkAccessAuthenticationManager>::create<>()
PUBLIC 33270 0 QtMetaTypePrivate::QPairVariantInterfaceImpl::getFirstImpl<QPair<QByteArray,QByteArray> >(void const * const *,int,unsigned int)
PUBLIC 33290 0 QtMetaTypePrivate::QSequentialIterableImpl::getImpl<QList<QPair<QByteArray,QByteArray> > >(void * const *,int,unsigned int)
PUBLIC 332b0 0 QtMetaTypePrivate::QPairVariantInterfaceImpl::getSecondImpl<QPair<QByteArray,QByteArray> >(void const * const *,int,unsigned int)
PUBLIC 332d0 0 qRegisterMetaType<QtMetaTypePrivate::QPairVariantInterfaceImpl>(char const *,QtMetaTypePrivate::QPairVariantInterfaceImpl *,QtPrivate::MetaTypeDefinedHelper<QtMetaTypePrivate::QPairVariantInterfaceImpl,1>::DefinedType)
PUBLIC 33380 0 QtMetaTypePrivate::QSequentialIterableImpl::sizeImpl<QList<QPair<QByteArray,QByteArray> > >(void const *)
PUBLIC 33390 0 QList<QSslError>::QList<QSslError>(QList<QSslError> const &)
PUBLIC 33400 0 QSharedPointer<char>::QSharedPointer<char>(QSharedPointer<char> const &)
PUBLIC 33440 0 QNetworkAccessManager::QNetworkAccessManager(QObject *)
PUBLIC 33510 0 QNetworkAccessManagerPrivate::QNetworkAccessManagerPrivate()
PUBLIC 335e0 0 QStringList::QStringList(QStringList const &)
PUBLIC 33650 0 QList<QSslError>::~QList<QSslError>()
PUBLIC 336b0 0 QNetworkAccessManager::~QNetworkAccessManager()
PUBLIC 33790 0 QNetworkAccessManagerPrivate::~QNetworkAccessManagerPrivate()
PUBLIC 338b0 0 QNetworkAuthenticationCredential::~QNetworkAuthenticationCredential()
PUBLIC 33940 0 QList<QString>::operator=(QList<QString> const &)
PUBLIC 339c0 0 QNetworkAccessBackendFactory::`vector deleting destructor'(unsigned int)
PUBLIC 339e0 0 QNetworkAccessManager::`vector deleting destructor'(unsigned int)
PUBLIC 33a00 0 QNetworkAccessManagerPrivate::`vector deleting destructor'(unsigned int)
PUBLIC 33a20 0 QtMetaTypePrivate::QMetaTypeFunctionHelper<QPair<QByteArray,QByteArray>,1>::Construct(void *,void const *)
PUBLIC 33a90 0 QtMetaTypePrivate::QMetaTypeFunctionHelper<QList<QPair<QByteArray,QByteArray> >,1>::Construct(void *,void const *)
PUBLIC 33ac0 0 QtMetaTypePrivate::QMetaTypeFunctionHelper<QList<QSslError>,1>::Construct(void *,void const *)
PUBLIC 33af0 0 QtMetaTypePrivate::QMetaTypeFunctionHelper<QHttpNetworkRequest,1>::Construct(void *,void const *)
PUBLIC 33b60 0 QtMetaTypePrivate::QMetaTypeFunctionHelper<QNetworkProxy,1>::Construct(void *,void const *)
PUBLIC 33b90 0 QtMetaTypePrivate::QMetaTypeFunctionHelper<QtMetaTypePrivate::QPairVariantInterfaceImpl,1>::Construct(void *,void const *)
PUBLIC 33be0 0 QtMetaTypePrivate::QMetaTypeFunctionHelper<QSslConfiguration,1>::Construct(void *,void const *)
PUBLIC 33c10 0 QtMetaTypePrivate::QMetaTypeFunctionHelper<QPair<QByteArray,QByteArray>,1>::Create(void const *)
PUBLIC 33c80 0 QtMetaTypePrivate::QMetaTypeFunctionHelper<QList<QPair<QByteArray,QByteArray> >,1>::Create(void const *)
PUBLIC 33cb0 0 QtMetaTypePrivate::QMetaTypeFunctionHelper<QList<QSslError>,1>::Create(void const *)
PUBLIC 33ce0 0 QtMetaTypePrivate::QMetaTypeFunctionHelper<QHttpNetworkRequest,1>::Create(void const *)
PUBLIC 33d50 0 QtMetaTypePrivate::QMetaTypeFunctionHelper<QNetworkProxy,1>::Create(void const *)
PUBLIC 33d80 0 QtMetaTypePrivate::QMetaTypeFunctionHelper<QtMetaTypePrivate::QPairVariantInterfaceImpl,1>::Create(void const *)
PUBLIC 33dd0 0 QtMetaTypePrivate::QMetaTypeFunctionHelper<QSslConfiguration,1>::Create(void const *)
PUBLIC 33e00 0 QtMetaTypePrivate::QMetaTypeFunctionHelper<QPair<QByteArray,QByteArray>,1>::Delete(void *)
PUBLIC 33e20 0 QtMetaTypePrivate::QMetaTypeFunctionHelper<QList<QPair<QByteArray,QByteArray> >,1>::Delete(void *)
PUBLIC 33e80 0 QtMetaTypePrivate::QMetaTypeFunctionHelper<QList<QSslError>,1>::Delete(void *)
PUBLIC 33ea0 0 QtMetaTypePrivate::QMetaTypeFunctionHelper<QSharedPointer<char>,1>::Delete(void *)
PUBLIC 33ef0 0 QtMetaTypePrivate::QMetaTypeFunctionHelper<QHttpNetworkRequest,1>::Delete(void *)
PUBLIC 33f00 0 QtMetaTypePrivate::QMetaTypeFunctionHelper<QNetworkProxy,1>::Delete(void *)
PUBLIC 33f20 0 QtMetaTypePrivate::QMetaTypeFunctionHelper<QSslConfiguration,1>::Delete(void *)
PUBLIC 33f40 0 QtMetaTypePrivate::QMetaTypeFunctionHelper<QPair<QByteArray,QByteArray>,1>::Destruct(void *)
PUBLIC 33f50 0 QtMetaTypePrivate::QMetaTypeFunctionHelper<QList<QPair<QByteArray,QByteArray> >,1>::Destruct(void *)
PUBLIC 33fa0 0 QtMetaTypePrivate::QMetaTypeFunctionHelper<QList<QSslError>,1>::Destruct(void *)
PUBLIC 33fb0 0 QtMetaTypePrivate::QMetaTypeFunctionHelper<QHttpNetworkRequest,1>::Destruct(void *)
PUBLIC 33fc0 0 QtMetaTypePrivate::QMetaTypeFunctionHelper<QNetworkProxy,1>::Destruct(void *)
PUBLIC 33fd0 0 QtMetaTypePrivate::QMetaTypeFunctionHelper<QSslConfiguration,1>::Destruct(void *)
PUBLIC 33fe0 0 QNetworkAccessManagerPrivate::_q_networkSessionClosed()
PUBLIC 34140 0 QNetworkAccessManagerPrivate::_q_networkSessionStateChanged(QNetworkSession::State)
PUBLIC 341e0 0 QNetworkAccessManagerPrivate::_q_onlineStateChanged(bool)
PUBLIC 34240 0 QNetworkAccessManagerPrivate::_q_replyEncrypted()
PUBLIC 34290 0 QNetworkAccessManagerPrivate::_q_replyFinished()
PUBLIC 34300 0 QNetworkAccessManagerPrivate::_q_replySslErrors(QList<QSslError> const &)
PUBLIC 34370 0 QtMetaTypePrivate::IteratorOwnerCommon<QList<QPair<QByteArray,QByteArray> >::const_iterator>::assign(void * *,void * const *)
PUBLIC 343a0 0 QNetworkAccessManager::authenticationRequired(QNetworkReply *,QAuthenticator *)
PUBLIC 34400 0 QNetworkAccessManagerPrivate::authenticationRequired(QAuthenticator *,QNetworkReply *,bool,QUrl &,QUrl *,bool)
PUBLIC 346e0 0 QWeakPointer<QNetworkSession>::clear()
PUBLIC 34710 0 QObject::connect(QObject const *,char const *,char const *,Qt::ConnectionType)
PUBLIC 34740 0 QList<QByteArray>::contains(QByteArray const &)
PUBLIC 347e0 0 QtPrivate::ConverterFunctor<QPair<QByteArray,QByteArray>,QtMetaTypePrivate::QPairVariantInterfaceImpl,QtMetaTypePrivate::QPairVariantInterfaceConvertFunctor<QPair<QByteArray,QByteArray> > >::convert(QtPrivate::AbstractConverterFunction const *,void const *,void *)
PUBLIC 34840 0 QtPrivate::ConverterFunctor<QList<QPair<QByteArray,QByteArray> >,QtMetaTypePrivate::QSequentialIterableImpl,QtMetaTypePrivate::QSequentialIterableConvertFunctor<QList<QPair<QByteArray,QByteArray> > > >::convert(QtPrivate::AbstractConverterFunction const *,void const *,void *)
PUBLIC 34890 0 QNetworkAccessManager::cookieJar()
PUBLIC 348e0 0 QNetworkAccessManager::createRequest(QNetworkAccessManager::Operation,QNetworkRequest const &,QIODevice *)
PUBLIC 34f70 0 QNetworkAccessManagerPrivate::createSession(QNetworkConfiguration const &)
PUBLIC 35280 0 QtSharedPointer::ExternalRefCountWithContiguousData<QNetworkAccessAuthenticationManager>::deleter(QtSharedPointer::ExternalRefCountData *)
PUBLIC 352a0 0 QtMetaTypePrivate::IteratorOwnerCommon<QList<QPair<QByteArray,QByteArray> >::const_iterator>::destroy(void * *)
PUBLIC 352b0 0 QNetworkAccessManager::encrypted(QNetworkReply *)
PUBLIC 352e0 0 QNetworkAccessManager::finished(QNetworkReply *)
PUBLIC 35310 0 QNetworkAccessManagerPrivate::getNetworkSession()
PUBLIC 35370 0 `anonymous namespace'::Q_QGS_fileBackend::innerFunction()
PUBLIC 35410 0 `anonymous namespace'::Q_QGS_ftpBackend::innerFunction()
PUBLIC 354b0 0 QSharedPointer<QNetworkSession>::internalSet(QtSharedPointer::ExternalRefCountData *,QNetworkSession *)
PUBLIC 35550 0 QNetworkAccessManager::metaObject()
PUBLIC 35570 0 QNetworkAccessManager::networkAccessible()
PUBLIC 35640 0 QNetworkAccessManager::networkAccessibleChanged(QNetworkAccessManager::NetworkAccessibility)
PUBLIC 35670 0 QNetworkAccessManager::networkSessionConnected()
PUBLIC 35690 0 QList<QSslError>::node_copy(QList<QSslError>::Node *,QList<QSslError>::Node *,QList<QSslError>::Node *)
PUBLIC 356d0 0 QNetworkAccessManager::post(QNetworkRequest const &,QByteArray const &)
PUBLIC 35740 0 QNetworkAccessManagerPrivate::postProcess(QNetworkReply *)
PUBLIC 357e0 0 QNetworkAccessManager::proxyAuthenticationRequired(QNetworkProxy const &,QAuthenticator *)
PUBLIC 35840 0 QNetworkAccessManagerPrivate::proxyAuthenticationRequired(QUrl const &,QNetworkProxy const &,bool,QAuthenticator *,QNetworkProxy *)
PUBLIC 35960 0 QNetworkAccessManager::qt_metacall(QMetaObject::Call,int,void * *)
PUBLIC 35a40 0 QNetworkAccessManager::qt_metacast(char const *)
PUBLIC 35aa0 0 QMetaTypeId<QPair<QByteArray,QByteArray> >::qt_metatype_id()
PUBLIC 35bf0 0 QMetaTypeId<QList<QPair<QByteArray,QByteArray> > >::qt_metatype_id()
PUBLIC 35d10 0 QMetaTypeId<QList<QSslError> >::qt_metatype_id()
PUBLIC 35da0 0 QMetaTypeId<QSharedPointer<char> >::qt_metatype_id()
PUBLIC 35e30 0 QMetaTypeId<QHttpNetworkRequest>::qt_metatype_id()
PUBLIC 35ec0 0 QMetaTypeId<QNetworkProxy>::qt_metatype_id()
PUBLIC 35f50 0 QMetaTypeId<QtMetaTypePrivate::QPairVariantInterfaceImpl>::qt_metatype_id()
PUBLIC 35fe0 0 QMetaTypeId<QSslConfiguration>::qt_metatype_id()
PUBLIC 36070 0 QNetworkAccessManagerPrivate::queryProxy(QNetworkProxyQuery const &)
PUBLIC 36220 0 QtPrivate::IsMetaTypePair<QPair<QByteArray,QByteArray>,1>::registerConverter(int)
PUBLIC 36280 0 QtPrivate::ValueTypeIsMetaType<QList<QPair<QByteArray,QByteArray> >,1>::registerConverter(int)
PUBLIC 362e0 0 QNetworkAccessManager::sendCustomRequest(QNetworkRequest const &,QByteArray const &,QIODevice *)
PUBLIC 36350 0 QNetworkAccessManager::setNetworkAccessible(QNetworkAccessManager::NetworkAccessibility)
PUBLIC 363b0 0 QNetworkAccessManager::sslErrors(QNetworkReply *,QList<QSslError> const &)
PUBLIC 36410 0 QNetworkAccessManager::supportedSchemesImplementation()
PUBLIC 36470 0 QNetworkReply::QNetworkReply(QNetworkReplyPrivate &,QObject *)
PUBLIC 36490 0 QNetworkReply::QNetworkReply(QObject *)
PUBLIC 364d0 0 QNetworkReplyPrivate::QNetworkReplyPrivate()
PUBLIC 36610 0 QNetworkReply::~QNetworkReply()
PUBLIC 36620 0 QNetworkReply::`vector deleting destructor'(unsigned int)
PUBLIC 36650 0 QNetworkReplyPrivate::`vector deleting destructor'(unsigned int)
PUBLIC 366c0 0 QNetworkReply::attribute(QNetworkRequest::Attribute)
PUBLIC 366e0 0 QNetworkReply::error()
PUBLIC 366f0 0 QNetworkReply::hasRawHeader(QByteArray const &)
PUBLIC 36720 0 QNetworkReply::isRunning()
PUBLIC 36730 0 QNetworkReply::rawHeader(QByteArray const &)
PUBLIC 36790 0 QNetworkReply::rawHeaderList()
PUBLIC 367b0 0 QNetworkReply::readBufferSize()
PUBLIC 367c0 0 QNetworkReply::setAttribute(QNetworkRequest::Attribute,QVariant const &)
PUBLIC 36800 0 QNetworkReply::setError(QNetworkReply::NetworkError,QString const &)
PUBLIC 36820 0 QNetworkReply::setFinished(bool)
PUBLIC 36830 0 QNetworkReply::setHeader(QNetworkRequest::KnownHeaders,QVariant const &)
PUBLIC 36840 0 QNetworkReply::setOperation(QNetworkAccessManager::Operation)
PUBLIC 36850 0 QNetworkReply::setRawHeader(QByteArray const &,QByteArray const &)
PUBLIC 36860 0 QNetworkReply::setReadBufferSize(__int64)
PUBLIC 36880 0 QNetworkReply::setRequest(QNetworkRequest const &)
PUBLIC 36890 0 QNetworkReply::setSslConfiguration(QSslConfiguration const &)
PUBLIC 368a0 0 QNetworkReply::setUrl(QUrl const &)
PUBLIC 368b0 0 QNetworkReply::url()
PUBLIC 368d0 0 QHash<QNetworkRequest::Attribute,QVariant>::value(QNetworkRequest::Attribute const &)
PUBLIC 36950 0 QNetworkReply::qt_static_metacall(QObject *,QMetaObject::Call,int,void * *)
PUBLIC 36af0 0 QNetworkReply::downloadProgress(__int64,__int64)
PUBLIC 36b40 0 QNetworkReply::encrypted()
PUBLIC 36b60 0 QNetworkReply::error(QNetworkReply::NetworkError)
PUBLIC 36b90 0 QNetworkReply::finished()
PUBLIC 36bb0 0 QNetworkReply::metaDataChanged()
PUBLIC 36bd0 0 QNetworkReply::metaObject()
PUBLIC 36bf0 0 QNetworkReply::qt_metacall(QMetaObject::Call,int,void * *)
PUBLIC 36c40 0 QNetworkReply::qt_metacast(char const *)
PUBLIC 36ca0 0 QNetworkReply::sslErrors(QList<QSslError> const &)
PUBLIC 36cd0 0 QNetworkReply::uploadProgress(__int64,__int64)
PUBLIC 36d20 0 QBearerEnginePlugin::metaObject()
PUBLIC 36d40 0 QAbstractHostInfoLookupManager::qt_metacall(QMetaObject::Call,int,void * *)
PUBLIC 36d50 0 QBearerEnginePlugin::qt_metacast(char const *)
PUBLIC 36db0 0 QBearerEnginePlugin::QBearerEnginePlugin(QObject *)
PUBLIC 36dd0 0 QBearerEnginePlugin::~QBearerEnginePlugin()
PUBLIC 36de0 0 QBearerEnginePlugin::`vector deleting destructor'(unsigned int)
PUBLIC 36e10 0 QMutableMapIterator<unsigned int,QExplicitlySharedDataPointer<QNetworkConfigurationPrivate> >::QMutableMapIterator<unsigned int,QExplicitlySharedDataPointer<QNetworkConfigurationPrivate> >(QMap<unsigned int,QExplicitlySharedDataPointer<QNetworkConfigurationPrivate> > &)
PUBLIC 36e80 0 QSharedDataPointer<QTimeZonePrivate>::~QSharedDataPointer<QTimeZonePrivate>()
PUBLIC 36ea0 0 QNetworkConfiguration::operator=(QNetworkConfiguration const &)
PUBLIC 36ee0 0 QNetworkConfiguration::operator==(QNetworkConfiguration const &)
PUBLIC 36ef0 0 QList<QNetworkConfiguration>::append(QNetworkConfiguration const &)
PUBLIC 36f60 0 QNetworkConfiguration::bearerType()
PUBLIC 36fd0 0 QNetworkConfiguration::children()
PUBLIC 37210 0 QMapNode<unsigned int,QExplicitlySharedDataPointer<QNetworkConfigurationPrivate> >::copy(QMapData<unsigned int,QExplicitlySharedDataPointer<QNetworkConfigurationPrivate> > *)
PUBLIC 372c0 0 QMap<unsigned int,QExplicitlySharedDataPointer<QNetworkConfigurationPrivate> >::detach_helper()
PUBLIC 37340 0 QList<QNetworkConfiguration>::detach_helper_grow(int,int)
PUBLIC 37410 0 QMap<unsigned int,QExplicitlySharedDataPointer<QNetworkConfigurationPrivate> >::erase(QMap<unsigned int,QExplicitlySharedDataPointer<QNetworkConfigurationPrivate> >::iterator)
PUBLIC 374e0 0 QMap<unsigned int,QExplicitlySharedDataPointer<QNetworkConfigurationPrivate> >::find(unsigned int const &)
PUBLIC 37540 0 QNetworkConfiguration::identifier()
PUBLIC 375b0 0 QNetworkConfiguration::isValid()
PUBLIC 375f0 0 QNetworkConfiguration::purpose()
PUBLIC 37630 0 QNetworkConfiguration::state()
PUBLIC 37680 0 QNetworkConfiguration::type()
PUBLIC 376c0 0 QForeachContainer<QList<QSharedDataPointer<QNetworkInterfacePrivate> > >::QForeachContainer<QList<QSharedDataPointer<QNetworkInterfacePrivate> > >(QList<QSharedDataPointer<QNetworkInterfacePrivate> > const &)
PUBLIC 37740 0 QList<QBearerEngine *>::QList<QBearerEngine *>(QList<QBearerEngine *> const &)
PUBLIC 377c0 0 QList<QNetworkAddressEntry>::QList<QNetworkAddressEntry>(QList<QNetworkAddressEntry> const &)
PUBLIC 37830 0 QNetworkAddressEntry::QNetworkAddressEntry(QNetworkAddressEntry const &)
PUBLIC 37890 0 QNetworkAddressEntry::QNetworkAddressEntry()
PUBLIC 378e0 0 QNetworkAddressEntry::~QNetworkAddressEntry()
PUBLIC 37910 0 QNetworkInterface::~QNetworkInterface()
PUBLIC 37940 0 QNetworkInterfacePrivate::~QNetworkInterfacePrivate()
PUBLIC 37a10 0 QNetworkInterface::addressEntries()
PUBLIC 37b00 0 QNetworkInterface::allInterfaces()
PUBLIC 37d10 0 QNetworkInterfaceManager::allInterfaces()
PUBLIC 37e80 0 QList<int>::detach_helper(int)
PUBLIC 37f00 0 QList<QNetworkAddressEntry>::detach_helper(int)
PUBLIC 37fa0 0 QList<QSharedDataPointer<QNetworkInterfacePrivate> >::detach_helper_grow(int,int)
PUBLIC 380b0 0 QList<QNetworkInterface>::detach_helper_grow(int,int)
PUBLIC 381c0 0 QNetworkInterface::flags()
PUBLIC 381f0 0 QNetworkInterface::hardwareAddress()
PUBLIC 382c0 0 QNetworkInterface::humanReadableName()
PUBLIC 38420 0 QNetworkInterface::index()
PUBLIC 38430 0 `anonymous namespace'::Q_QGS_manager::innerFunction()
PUBLIC 384c0 0 QNetworkInterface::interfaceFromIndex(int)
PUBLIC 38530 0 QNetworkInterfaceManager::interfaceFromIndex(int)
PUBLIC 38670 0 QNetworkInterface::interfaceFromName(QString const &)
PUBLIC 386e0 0 QNetworkInterfaceManager::interfaceFromName(QString const &)
PUBLIC 38840 0 QNetworkAddressEntry::ip()
PUBLIC 38860 0 QNetworkInterface::isValid()
PUBLIC 388b0 0 QNetworkInterfacePrivate::makeHwAddress(int,unsigned char *)
PUBLIC 38980 0 QList<QSharedDataPointer<QNetworkInterfacePrivate> >::node_copy(QList<QSharedDataPointer<QNetworkInterfacePrivate> >::Node *,QList<QSharedDataPointer<QNetworkInterfacePrivate> >::Node *,QList<QSharedDataPointer<QNetworkInterfacePrivate> >::Node *)
PUBLIC 389c0 0 QList<QNetworkAddressEntry>::node_copy(QList<QNetworkAddressEntry>::Node *,QList<QNetworkAddressEntry>::Node *,QList<QNetworkAddressEntry>::Node *)
PUBLIC 38a00 0 QList<QSharedDataPointer<QNetworkInterfacePrivate> >::node_destruct(QList<QSharedDataPointer<QNetworkInterfacePrivate> >::Node *,QList<QSharedDataPointer<QNetworkInterfacePrivate> >::Node *)
PUBLIC 38ca0 0 QNetworkAddressEntry::prefixLength()
PUBLIC 38cb0 0 QNetworkAddressEntry::setIp(QHostAddress const &)
PUBLIC 38cc0 0 QNetworkAddressEntry::setNetmask(QHostAddress const &)
PUBLIC 38d50 0 QNetworkAddressEntry::setPrefixLength(int)
PUBLIC 38d70 0 QBearerEngine::qt_static_metacall(QObject *,QMetaObject::Call,int,void * *)
PUBLIC 38ed0 0 QBearerEngine::QBearerEngine(QObject *)
PUBLIC 38f10 0 QBearerEngine::~QBearerEngine()
PUBLIC 39250 0 QBearerEngine::`vector deleting destructor'(unsigned int)
PUBLIC 39270 0 QHash<QString,QExplicitlySharedDataPointer<QNetworkConfigurationPrivate> >::begin()
PUBLIC 39300 0 QBearerEngine::configurationAdded(QExplicitlySharedDataPointer<QNetworkConfigurationPrivate>)
PUBLIC 39350 0 QBearerEngine::configurationChanged(QExplicitlySharedDataPointer<QNetworkConfigurationPrivate>)
PUBLIC 393a0 0 QBearerEngine::configurationRemoved(QExplicitlySharedDataPointer<QNetworkConfigurationPrivate>)
PUBLIC 393f0 0 QBearerEngine::configurationsInUse()
PUBLIC 39500 0 QHash<QString,QExplicitlySharedDataPointer<QNetworkConfigurationPrivate> >::end()
PUBLIC 39560 0 QBearerEngine::metaObject()
PUBLIC 39580 0 QBearerEngine::qt_metacall(QMetaObject::Call,int,void * *)
PUBLIC 395d0 0 QBearerEngine::qt_metacast(char const *)
PUBLIC 39630 0 QBearerEngine::updateCompleted()
PUBLIC 39650 0 QNetworkSessionPrivate::qt_static_metacall(QObject *,QMetaObject::Call,int,void * *)
PUBLIC 39850 0 QtMetaTypePrivate::QMetaTypeFunctionHelper<QFlags<QNetworkSession::UsagePolicy>,1>::Construct(void *,void const *)
PUBLIC 39880 0 QNetworkSessionPrivate::closed()
PUBLIC 398a0 0 QNetworkSessionPrivate::error(QNetworkSession::SessionError)
PUBLIC 398d0 0 QNetworkSessionPrivate::metaObject()
PUBLIC 398f0 0 QNetworkSessionPrivate::newConfigurationActivated()
PUBLIC 39910 0 QNetworkSessionPrivate::preferredConfigurationChanged(QNetworkConfiguration const &,bool)
PUBLIC 39960 0 QNetworkSessionPrivate::qt_metacall(QMetaObject::Call,int,void * *)
PUBLIC 399b0 0 QNetworkSessionPrivate::qt_metacast(char const *)
PUBLIC 39a10 0 QMetaTypeId<QFlags<QNetworkSession::UsagePolicy> >::qt_metatype_id()
PUBLIC 39aa0 0 QMetaTypeId<QNetworkSession::SessionError>::qt_metatype_id()
PUBLIC 39b30 0 QMetaTypeId<QNetworkSession::State>::qt_metatype_id()
PUBLIC 39bc0 0 QNetworkSessionPrivate::quitPendingWaitsForOpened()
PUBLIC 39be0 0 QNetworkSessionPrivate::stateChanged(QNetworkSession::State)
PUBLIC 39c10 0 QNetworkSessionPrivate::usagePoliciesChanged(QFlags<QNetworkSession::UsagePolicy>)
PUBLIC 39c40 0 qDeleteAll<QList<QBearerEngine *>::const_iterator>(QList<QBearerEngine *>::const_iterator,QList<QBearerEngine *>::const_iterator)
PUBLIC 39c80 0 QNetworkConfigurationManagerPrivate::QNetworkConfigurationManagerPrivate()
PUBLIC 39ce0 0 QMultiMap<int,QString>::~QMultiMap<int,QString>()
PUBLIC 39d30 0 QHash<QRegExpEngineKey,QCache<QRegExpEngineKey,QRegExpEngine>::Node>::~QHash<QRegExpEngineKey,QCache<QRegExpEngineKey,QRegExpEngine>::Node>()
PUBLIC 39d60 0 QNetworkConfigurationManagerPrivate::~QNetworkConfigurationManagerPrivate()
PUBLIC 39e90 0 QHash<QString,QExplicitlySharedDataPointer<QNetworkConfigurationPrivate> >::operator[](QString const &)
PUBLIC 39f50 0 QNetworkConfigurationManagerPrivate::`vector deleting destructor'(unsigned int)
PUBLIC 39f70 0 QNetworkConfigurationManagerPrivate::capabilities()
PUBLIC 3a050 0 QNetworkConfigurationManagerPrivate::cleanup()
PUBLIC 3a080 0 QNetworkConfigurationManagerPrivate::configurationAdded(QExplicitlySharedDataPointer<QNetworkConfigurationPrivate>)
PUBLIC 3a1a0 0 QNetworkConfigurationManagerPrivate::configurationChanged(QExplicitlySharedDataPointer<QNetworkConfigurationPrivate>)
PUBLIC 3a2e0 0 QNetworkConfigurationManagerPrivate::configurationFromIdentifier(QString const &)
PUBLIC 3a4e0 0 QNetworkConfigurationManagerPrivate::configurationRemoved(QExplicitlySharedDataPointer<QNetworkConfigurationPrivate>)
PUBLIC 3a5f0 0 QNetworkConfigurationManagerPrivate::defaultConfiguration()
PUBLIC 3ae10 0 QHash<int,QHashDummyValue>::detach()
PUBLIC 3ae70 0 QHash<QString,QHashDummyValue>::detach()
PUBLIC 3aed0 0 QNetworkConfigurationManagerPrivate::disablePolling()
PUBLIC 3af00 0 QHash<int,QHashDummyValue>::duplicateNode(QHashData::Node *,void *)
PUBLIC 3af20 0 QHash<QByteArray,QHashDummyValue>::duplicateNode(QHashData::Node *,void *)
PUBLIC 3af60 0 QNetworkConfigurationManagerPrivate::enablePolling()
PUBLIC 3afe0 0 QNetworkConfigurationManagerPrivate::engines()
PUBLIC 3b030 0 QNetworkConfigurationManagerPrivate::initialize()
PUBLIC 3b0d0 0 `anonymous namespace'::Q_QGS_loader::innerFunction()
PUBLIC 3b1d0 0 QHash<int,QHashDummyValue>::insert(int const &,QHashDummyValue const &)
PUBLIC 3b2b0 0 QHash<QString,QHashDummyValue>::insert(QString const &,QHashDummyValue const &)
PUBLIC 3b370 0 QMetaObject::invokeMethod(QObject *,char const *,QGenericArgument,QGenericArgument,QGenericArgument,QGenericArgument,QGenericArgument,QGenericArgument,QGenericArgument,QGenericArgument,QGenericArgument,QGenericArgument)
PUBLIC 3b3e0 0 QNetworkConfigurationManagerPrivate::performAsyncConfigurationUpdate()
PUBLIC 3b520 0 QNetworkConfigurationManagerPrivate::pollEngines()
PUBLIC 3b660 0 QHash<QBearerEngine *,QHashDummyValue>::remove(QBearerEngine * const &)
PUBLIC 3b720 0 QHash<QString,QHashDummyValue>::remove(QString const &)
PUBLIC 3b830 0 QNetworkConfigurationManagerPrivate::startPolling()
PUBLIC 3b990 0 QNetworkConfigurationManagerPrivate::updateConfigurations()
PUBLIC 3be00 0 QNetworkConfigurationManager::qt_static_metacall(QObject *,QMetaObject::Call,int,void * *)
PUBLIC 3bf60 0 QNetworkConfigurationManager::QNetworkConfigurationManager(QObject *)
PUBLIC 3c040 0 QNetworkConfigurationManager::~QNetworkConfigurationManager()
PUBLIC 3c070 0 QNetworkConfigurationManager::`vector deleting destructor'(unsigned int)
PUBLIC 3c0b0 0 QNetworkConfigurationManagerPrivate::addPreAndPostRoutine()
PUBLIC 3c0d0 0 QNetworkConfigurationManager::capabilities()
PUBLIC 3c100 0 QNetworkConfigurationManager::configurationAdded(QNetworkConfiguration const &)
PUBLIC 3c130 0 QNetworkConfigurationManager::configurationChanged(QNetworkConfiguration const &)
PUBLIC 3c160 0 QNetworkConfigurationManager::configurationFromIdentifier(QString const &)
PUBLIC 3c1a0 0 QNetworkConfigurationManager::configurationRemoved(QNetworkConfiguration const &)
PUBLIC 3c200 0 QNetworkConfigurationManager::defaultConfiguration()
PUBLIC 3c230 0 QNetworkConfigurationManager::metaObject()
PUBLIC 3c250 0 QNetworkConfigurationManager::onlineStateChanged(bool)
PUBLIC 3c280 0 qNetworkConfigurationManagerPrivate()
PUBLIC 3c390 0 QNetworkConfigurationManager::qt_metacall(QMetaObject::Call,int,void * *)
PUBLIC 3c3e0 0 QNetworkConfigurationManager::qt_metacast(char const *)
PUBLIC 3c440 0 QNetworkConfigurationManager::updateCompleted()
PUBLIC 3c460 0 QAbstractSocketEngine::QAbstractSocketEngine(QAbstractSocketEnginePrivate &,QObject *)
PUBLIC 3c480 0 QAbstractSocketEnginePrivate::QAbstractSocketEnginePrivate()
PUBLIC 3c4f0 0 QSocketEngineHandler::QSocketEngineHandler()
PUBLIC 3c580 0 QSocketEngineHandler::~QSocketEngineHandler()
PUBLIC 3c610 0 QAbstractSocketEnginePrivate::`vector deleting destructor'(unsigned int)
PUBLIC 3c670 0 QHttpSocketEngineHandler::`vector deleting destructor'(unsigned int)
PUBLIC 3c690 0 QAbstractSocketEngine::closeNotification()
PUBLIC 3c6a0 0 QAbstractSocketEngine::connectionNotification()
PUBLIC 3c6b0 0 QAbstractSocketEngine::createSocketEngine(int,QObject *)
PUBLIC 3c770 0 QAbstractSocketEngine::createSocketEngine(QAbstractSocket::SocketType,QNetworkProxy const &,QObject *)
PUBLIC 3c850 0 QAbstractSocketEngine::error()
PUBLIC 3c860 0 QAbstractSocketEngine::errorString()
PUBLIC 3c890 0 QAbstractSocketEngine::exceptionNotification()
PUBLIC 3c8a0 0 `anonymous namespace'::Q_QGS_socketHandlers::innerFunction()
PUBLIC 3c940 0 QAbstractSocketEngine::localAddress()
PUBLIC 3c960 0 QAbstractSocketEngine::localPort()
PUBLIC 3c970 0 QAbstractSocketEngine::peerAddress()
PUBLIC 3c990 0 QAbstractSocketEngine::peerPort()
PUBLIC 3c9a0 0 QAbstractSocketEngine::protocol()
PUBLIC 3c9b0 0 QAbstractSocketEngine::proxyAuthenticationRequired(QNetworkProxy const &,QAuthenticator *)
PUBLIC 3c9d0 0 QAbstractSocketEngine::readNotification()
PUBLIC 3c9e0 0 QAbstractSocketEngine::setError(QAbstractSocket::SocketError,QString const &)
PUBLIC 3ca00 0 QAbstractSocketEngine::setLocalAddress(QHostAddress const &)
PUBLIC 3ca10 0 QAbstractSocketEngine::setLocalPort(unsigned short)
PUBLIC 3ca20 0 QAbstractSocketEngine::setPeerAddress(QHostAddress const &)
PUBLIC 3ca30 0 QAbstractSocketEngine::setPeerPort(unsigned short)
PUBLIC 3ca40 0 QAbstractSocketEngine::setProtocol(QAbstractSocket::NetworkLayerProtocol)
PUBLIC 3ca50 0 QAbstractSocketEngine::setReceiver(QAbstractSocketEngineReceiver *)
PUBLIC 3ca60 0 QAbstractSocketEngine::setSocketType(QAbstractSocket::SocketType)
PUBLIC 3ca70 0 QAbstractSocketEngine::setState(QAbstractSocket::SocketState)
PUBLIC 3ca80 0 QAbstractSocketEngine::socketType()
PUBLIC 3ca90 0 QAbstractSocketEngine::state()
PUBLIC 3caa0 0 QAbstractSocketEngine::writeNotification()
PUBLIC 3cab0 0 QGlobalNetworkProxy::QGlobalNetworkProxy()
PUBLIC 3cb50 0 QNetworkProxy::QNetworkProxy(QNetworkProxy::ProxyType,QString const &,unsigned short,QString const &,QString const &)
PUBLIC 3cbb0 0 QNetworkProxy::QNetworkProxy()
PUBLIC 3cbd0 0 QNetworkProxyPrivate::QNetworkProxyPrivate(QNetworkProxyPrivate const &)
PUBLIC 3cc60 0 QNetworkProxyPrivate::QNetworkProxyPrivate(QNetworkProxy::ProxyType,QString const &,unsigned short,QString const &,QString const &)
PUBLIC 3cd10 0 QNetworkProxyQuery::QNetworkProxyQuery(QNetworkConfiguration const &,QUrl const &,QNetworkProxyQuery::QueryType)
PUBLIC 3cd60 0 QNetworkProxyQuery::QNetworkProxyQuery(QString const &,int,QString const &,QNetworkProxyQuery::QueryType)
PUBLIC 3cdc0 0 QNetworkProxyQuery::QNetworkProxyQuery(QUrl const &,QNetworkProxyQuery::QueryType)
PUBLIC 3ce00 0 QNetworkProxyQuery::QNetworkProxyQuery(unsigned short,QString const &,QNetworkProxyQuery::QueryType)
PUBLIC 3ce50 0 QGlobalNetworkProxy::~QGlobalNetworkProxy()
PUBLIC 3cec0 0 QNetworkProxy::~QNetworkProxy()
PUBLIC 3cef0 0 QNetworkProxyPrivate::~QNetworkProxyPrivate()
PUBLIC 3cf80 0 QNetworkProxyQuery::~QNetworkProxyQuery()
PUBLIC 3cfc0 0 QNetworkProxy::operator=(QNetworkProxy const &)
PUBLIC 3d010 0 QNetworkProxy::operator==(QNetworkProxy const &)
PUBLIC 3d040 0 QNetworkProxyPrivate::operator==(QNetworkProxyPrivate const &)
PUBLIC 3d0b0 0 QNetworkProxyFactory::`vector deleting destructor'(unsigned int)
PUBLIC 3d0d0 0 QGlobalNetworkProxy::applicationProxy()
PUBLIC 3d1b0 0 QNetworkProxy::applicationProxy()
PUBLIC 3d210 0 QNetworkProxy::capabilities()
PUBLIC 3d240 0 QSharedDataPointer<QNetworkProxyPrivate>::detach()
PUBLIC 3d3a0 0 QSharedDataPointer<QNetworkProxyQueryPrivate>::detach()
PUBLIC 3d470 0 QList<QNetworkProxy>::detach_helper(int)
PUBLIC 3d510 0 QNetworkProxy::hasRawHeader(QByteArray const &)
PUBLIC 3d550 0 QNetworkProxy::hostName()
PUBLIC 3d620 0 `anonymous namespace'::Q_QGS_globalNetworkProxy::innerFunction()
PUBLIC 3d6b0 0 QNetworkProxy::isTransparentProxy()
PUBLIC 3d6e0 0 QNetworkInterface::name()
PUBLIC 3d7b0 0 QNetworkProxyQuery::peerHostName()
PUBLIC 3d880 0 QNetworkProxy::port()
PUBLIC 3d890 0 QNetworkProxyQuery::protocolTag()
PUBLIC 3d950 0 QGlobalNetworkProxy::proxyForQuery(QNetworkProxyQuery const &)
PUBLIC 3df40 0 QNetworkProxyFactory::proxyForQuery(QNetworkProxyQuery const &)
PUBLIC 3e1a0 0 QSystemConfigurationProxyFactory::queryProxy(QNetworkProxyQuery const &)
PUBLIC 3e370 0 QNetworkProxyQuery::queryType()
PUBLIC 3e380 0 QNetworkProxy::rawHeader(QByteArray const &)
PUBLIC 3e3f0 0 QNetworkProxy::rawHeaderList()
PUBLIC 3e420 0 QGlobalNetworkProxy::setApplicationProxyFactory(QNetworkProxyFactory *)
PUBLIC 3e4b0 0 QNetworkProxy::setPassword(QString const &)
PUBLIC 3e4d0 0 QNetworkProxy::setRawHeader(QByteArray const &,QByteArray const &)
PUBLIC 3e510 0 QNetworkProxy::setType(QNetworkProxy::ProxyType)
PUBLIC 3e560 0 QNetworkProxy::setUser(QString const &)
PUBLIC 3e580 0 QNetworkProxy::type()
PUBLIC 3e590 0 QNetworkProxyQuery::url()
PUBLIC 3e610 0 qDeleteAll<QList<QHostInfoRunnable *>::const_iterator>(QList<QHostInfoRunnable *>::const_iterator,QList<QHostInfoRunnable *>::const_iterator)
PUBLIC 3e650 0 QMutableListIterator<QHostInfoRunnable *>::QMutableListIterator<QHostInfoRunnable *>(QList<QHostInfoRunnable *> &)
PUBLIC 3e6c0 0 QHostInfo::QHostInfo(QHostInfo const &)
PUBLIC 3e700 0 QHostInfo::QHostInfo(int)
PUBLIC 3e770 0 QHostInfoLookupManager::QHostInfoLookupManager()
PUBLIC 3e850 0 QHostInfoPrivate::QHostInfoPrivate(QHostInfoPrivate const &)
PUBLIC 3e8f0 0 QHostInfoRunnable::QHostInfoRunnable(QString,int)
PUBLIC 3e970 0 QHostInfo::~QHostInfo()
PUBLIC 3e990 0 QHostInfoLookupManager::~QHostInfoLookupManager()
PUBLIC 3eac0 0 QHostInfoPrivate::~QHostInfoPrivate()
PUBLIC 3eb50 0 QHostInfoPrivate::operator=(QHostInfoPrivate const &)
PUBLIC 3ebd0 0 QAbstractHostInfoLookupManager::`vector deleting destructor'(unsigned int)
PUBLIC 3ec40 0 QHostInfoLookupManager::`vector deleting destructor'(unsigned int)
PUBLIC 3ec60 0 QAbstractSocketEngine::`vector deleting destructor'(unsigned int)
PUBLIC 3ec80 0 QHostInfoRunnable::`vector deleting destructor'(unsigned int)
PUBLIC 3ece0 0 QRunnable::`vector deleting destructor'(unsigned int)
PUBLIC 3ed00 0 QtMetaTypePrivate::QMetaTypeFunctionHelper<QHostInfo,1>::Construct(void *,void const *)
PUBLIC 3ed60 0 QtMetaTypePrivate::QMetaTypeFunctionHelper<QHostInfo,1>::Create(void const *)
PUBLIC 3edd0 0 QtMetaTypePrivate::QMetaTypeFunctionHelper<QHostInfo,1>::Delete(void *)
PUBLIC 3ee00 0 QtMetaTypePrivate::QMetaTypeFunctionHelper<QHostInfo,1>::Destruct(void *)
PUBLIC 3ee20 0 QHostInfo::abortHostLookup(int)
PUBLIC 3ee50 0 QHostInfoLookupManager::abortLookup(int)
PUBLIC 3f010 0 QHostInfo::addresses()
PUBLIC 3f080 0 QList<int>::append(int const &)
PUBLIC 3f0c0 0 QCache<QString,QHostInfoCache::QHostInfoCacheElement>::clear()
PUBLIC 3f150 0 QHostInfoLookupManager::clear()
PUBLIC 3f2d0 0 QHash<QString,QCache<QString,QHostInfoCache::QHostInfoCacheElement>::Node>::contains(QString const &)
PUBLIC 3f350 0 QHash<QString,QCache<QString,QHostInfoCache::QHostInfoCacheElement>::Node>::createNode(unsigned int,QString const &,QCache<QString,QHostInfoCache::QHostInfoCacheElement>::Node const &,QHashNode<QString,QCache<QString,QHostInfoCache::QHostInfoCacheElement>::Node> * *)
PUBLIC 3f3c0 0 QHash<QRegExpEngineKey,QCache<QRegExpEngineKey,QRegExpEngine>::Node>::deleteNode2(QHashData::Node *)
PUBLIC 3f3f0 0 QHash<QString,QCache<QString,QHostInfoCache::QHostInfoCacheElement>::Node>::detach()
PUBLIC 3f450 0 QHash<QString,QCache<QString,QHostInfoCache::QHostInfoCacheElement>::Node>::duplicateNode(QHashData::Node *,void *)
PUBLIC 3f4a0 0 QHash<QString,QCache<QString,QHostInfoCache::QHostInfoCacheElement>::Node>::find(QString const &)
PUBLIC 3f570 0 QHash<QString,QCache<QString,QHostInfoCache::QHostInfoCacheElement>::Node>::findNode(QString const &,unsigned int *)
PUBLIC 3f5f0 0 QHostInfo::fromName(QString const &)
PUBLIC 3f640 0 QHostInfoPrivate::fromName(QString const &,QSharedPointer<QNetworkSession>)
PUBLIC 3f6f0 0 QHostInfoCache::get(QString const &,bool *)
PUBLIC 3f7b0 0 `anonymous namespace'::Q_QGS_theHostInfoLookupManager::innerFunction()
PUBLIC 3f840 0 QCache<QString,QHostInfoCache::QHostInfoCacheElement>::insert(QString const &,QHostInfoCache::QHostInfoCacheElement *,int)
PUBLIC 3f930 0 QHash<QString,QCache<QString,QHostInfoCache::QHostInfoCacheElement>::Node>::insert(QString const &,QCache<QString,QHostInfoCache::QHostInfoCacheElement>::Node const &)
PUBLIC 3fa10 0 QHostInfoLookupManager::lookupFinished(QHostInfoRunnable *)
PUBLIC 3fa90 0 QHostInfo::lookupHost(QString const &,QObject *,char const *)
PUBLIC 3fd40 0 QHostInfo::lookupId()
PUBLIC 3fd50 0 QHostInfoCache::put(QString const &,QHostInfo const &)
PUBLIC 3fe20 0 QMetaTypeId<QHostInfo>::qt_metatype_id()
PUBLIC 3feb0 0 qt_qhostinfo_lookup(QString const &,QObject *,char const *,bool *,int *)
PUBLIC 3ff70 0 QCache<QString,QHostInfoCache::QHostInfoCacheElement>::relink(QString const &)
PUBLIC 3ffe0 0 QHash<QString,QCache<QString,QHostInfoCache::QHostInfoCacheElement>::Node>::remove(QString const &)
PUBLIC 400f0 0 QList<QHostInfoRunnable *>::removeOne(QHostInfoRunnable * const &)
PUBLIC 40170 0 QHostInfoRunnable::run()
PUBLIC 403d0 0 QHostInfoLookupManager::scheduleLookup(QHostInfoRunnable *)
PUBLIC 40440 0 QHostInfo::setAddresses(QList<QHostAddress> const &)
PUBLIC 404a0 0 QHostInfo::setError(QHostInfo::HostInfoError)
PUBLIC 404b0 0 QHostInfo::setErrorString(QString const &)
PUBLIC 404c0 0 QHostInfo::setHostName(QString const &)
PUBLIC 404d0 0 QCache<QString,QHostInfoCache::QHostInfoCacheElement>::trim(int)
PUBLIC 40560 0 QCache<QString,QHostInfoCache::QHostInfoCacheElement>::unlink(QCache<QString,QHostInfoCache::QHostInfoCacheElement>::Node &)
PUBLIC 405d0 0 QHostInfoLookupManager::wasAborted(int)
PUBLIC 40640 0 QHostInfoLookupManager::work()
PUBLIC 40c90 0 QSslSocket::qt_static_metacall(QObject *,QMetaObject::Call,int,void * *)
PUBLIC 40fb0 0 QList<QSslCertificate>::QList<QSslCertificate>(QList<QSslCertificate> const &)
PUBLIC 41020 0 QList<QSslCipher>::QList<QSslCipher>(QList<QSslCipher> const &)
PUBLIC 41090 0 QSslConfigurationPrivate::QSslConfigurationPrivate(QSslConfigurationPrivate const &)
PUBLIC 412d0 0 QSslConfigurationPrivate::QSslConfigurationPrivate()
PUBLIC 413a0 0 QSslSocket::QSslSocket(QObject *)
PUBLIC 413f0 0 QSslSocketGlobalData::QSslSocketGlobalData()
PUBLIC 41430 0 QSslSocketPrivate::QSslSocketPrivate()
PUBLIC 414e0 0 QForeachContainer<QStringList>::~QForeachContainer<QStringList>()
PUBLIC 41530 0 QList<QSslCertificate>::~QList<QSslCertificate>()
PUBLIC 41590 0 QList<QSslCipher>::~QList<QSslCipher>()
PUBLIC 415f0 0 QSslConfigurationPrivate::~QSslConfigurationPrivate()
PUBLIC 416d0 0 QSslSocketPrivate::~QSslSocketPrivate()
PUBLIC 41770 0 QSharedPointer<char>::operator=(QSharedPointer<char> const &)
PUBLIC 417d0 0 QList<QSslCipher>::operator<<(QSslCipher const &)
PUBLIC 41830 0 operator!=(QStringRef const &,QStringRef const &)
PUBLIC 41850 0 QStringBuilder<QByteArray,QByteArray>::operator QByteArray()
PUBLIC 41883 0 [thunk]:QSslSocketPrivate::`vector deleting destructor'`adjustor{136}' (unsigned int)
PUBLIC 41890 0 QSslSocket::`vector deleting destructor'(unsigned int)
PUBLIC 418e0 0 QSslSocketPrivate::`vector deleting destructor'(unsigned int)
PUBLIC 41900 0 QtMetaTypePrivate::QMetaTypeFunctionHelper<QSslCertificate,1>::Construct(void *,void const *)
PUBLIC 41990 0 QtMetaTypePrivate::QMetaTypeFunctionHelper<QSslCertificate,1>::Create(void const *)
PUBLIC 41a20 0 QtMetaTypePrivate::QMetaTypeFunctionHelper<QSslCertificate,1>::Delete(void *)
PUBLIC 41a40 0 QtMetaTypePrivate::QMetaTypeFunctionHelper<QSslCertificate,1>::Destruct(void *)
PUBLIC 41a50 0 QSslSocketPrivate::_q_bytesWrittenSlot(__int64)
PUBLIC 41ae0 0 QSslSocketPrivate::_q_connectedSlot()
PUBLIC 41bf0 0 QSslSocketPrivate::_q_errorSlot(QAbstractSocket::SocketError)
PUBLIC 41c70 0 QSslSocketPrivate::_q_flushWriteBuffer()
PUBLIC 41cb0 0 QSslSocketPrivate::_q_readyReadSlot()
PUBLIC 41ce0 0 QSslSocketPrivate::_q_resumeImplementation()
PUBLIC 41dc0 0 QSslSocketPrivate::_q_stateChangedSlot(QAbstractSocket::SocketState)
PUBLIC 41de0 0 QSslSocket::abort()
PUBLIC 41e00 0 QSslSocket::addCaCertificate(QSslCertificate const &)
PUBLIC 41e60 0 QSslSocket::addDefaultCaCertificate(QSslCertificate const &)
PUBLIC 41e70 0 QSslSocketPrivate::addDefaultCaCertificate(QSslCertificate const &)
PUBLIC 41f40 0 QSslSocket::atEnd()
PUBLIC 41f80 0 QSslSocket::bytesAvailable()
PUBLIC 41ff0 0 QSslSocket::bytesToWrite()
PUBLIC 42040 0 QSslSocket::canReadLine()
PUBLIC 42080 0 QSslSocketPrivate::checkSettingSslContext(QSslSocket *,QSharedPointer<QSslContext>)
PUBLIC 420d0 0 QSslSocket::close()
PUBLIC 42170 0 QSslSocket::connectToHost(QString const &,unsigned short,QFlags<QIODevice::OpenModeFlag>,QAbstractSocket::NetworkLayerProtocol)
PUBLIC 42210 0 QSslSocket::connectToHostEncrypted(QString const &,unsigned short,QFlags<QIODevice::OpenModeFlag>,QAbstractSocket::NetworkLayerProtocol)
PUBLIC 42290 0 QSslSocketPrivate::createPlainSocket(QFlags<QIODevice::OpenModeFlag>)
PUBLIC 42560 0 QSslConfigurationPrivate::deepCopyDefaultConfiguration(QSslConfigurationPrivate *)
PUBLIC 426c0 0 QSslSocketPrivate::defaultCiphers()
PUBLIC 42770 0 QSslConfigurationPrivate::defaultConfiguration()
PUBLIC 427e0 0 QMapNode<int,QString>::destroySubTree()
PUBLIC 42830 0 QExplicitlySharedDataPointer<QSslConfigurationPrivate>::detach_helper()
PUBLIC 42890 0 QList<QSslError>::detach_helper(int)
PUBLIC 42930 0 QList<QSslCertificate>::detach_helper_grow(int,int)
PUBLIC 42a40 0 QList<QSslCipher>::detach_helper_grow(int,int)
PUBLIC 42b50 0 QSslSocket::disconnectFromHost()
PUBLIC 42be0 0 QSslSocket::encrypted()
PUBLIC 42c00 0 QSslSocket::encryptedBytesAvailable()
PUBLIC 42c20 0 QSslSocket::encryptedBytesToWrite()
PUBLIC 42c40 0 QSslSocket::encryptedBytesWritten(__int64)
PUBLIC 42c70 0 QList<QSslError>::first()
PUBLIC 42ca0 0 QSslSocket::flush()
PUBLIC 42cd0 0 QSslSocket::ignoreSslErrors(QList<QSslError> const &)
PUBLIC 42d10 0 QSslSocket::ignoreSslErrors()
PUBLIC 42d20 0 QSslSocketPrivate::init()
PUBLIC 42da0 0 `anonymous namespace'::Q_QGS_globalData::innerFunction()
PUBLIC 42e30 0 QSslSocketPrivate::isMatchingHostname(QSslCertificate const &,QString const &)
PUBLIC 43390 0 QSslSocketPrivate::isMatchingHostname(QString const &,QString const &)
PUBLIC 434f0 0 QSslSocket::metaObject()
PUBLIC 43510 0 QSslSocket::modeChanged(QSslSocket::SslMode)
PUBLIC 43540 0 QList<QSslCertificate>::node_copy(QList<QSslCertificate>::Node *,QList<QSslCertificate>::Node *,QList<QSslCertificate>::Node *)
PUBLIC 43580 0 QList<QSslCipher>::node_copy(QList<QSslCipher>::Node *,QList<QSslCipher>::Node *,QList<QSslCipher>::Node *)
PUBLIC 435c0 0 QSslSocketPrivate::pauseSocketNotifiers(QSslSocket *)
PUBLIC 435e0 0 QSslSocketPrivate::peek(__int64)
PUBLIC 437b0 0 QSslSocketPrivate::peek(char *,__int64)
PUBLIC 43890 0 QSslSocket::peerVerifyError(QSslError const &)
PUBLIC 438c0 0 QSslSocket::qt_metacall(QMetaObject::Call,int,void * *)
PUBLIC 43910 0 QSslSocket::qt_metacast(char const *)
PUBLIC 43970 0 QMetaTypeId<QSslCertificate>::qt_metatype_id()
PUBLIC 43a00 0 QSslSocket::readData(char *,__int64)
PUBLIC 43aa0 0 QSslSocket::resume()
PUBLIC 43ae0 0 QSslSocketPrivate::resumeSocketNotifiers(QSslSocket *)
PUBLIC 43b00 0 QSslSocketPrivate::setDefaultCaCertificates(QList<QSslCertificate> const &)
PUBLIC 43bb0 0 QSslSocketPrivate::setDefaultCiphers(QList<QSslCipher> const &)
PUBLIC 43c60 0 QSslSocketPrivate::setDefaultSupportedCiphers(QList<QSslCipher> const &)
PUBLIC 43d10 0 QSslSocket::setReadBufferSize(__int64)
PUBLIC 43d40 0 QSslSocket::setSocketDescriptor(int,QAbstractSocket::SocketState,QFlags<QIODevice::OpenModeFlag>)
PUBLIC 43e80 0 QSslSocket::setSocketOption(QAbstractSocket::SocketOption,QVariant const &)
PUBLIC 43ea0 0 QSslSocket::setSslConfiguration(QSslConfiguration const &)
PUBLIC 440a0 0 QSslSocket::socketOption(QAbstractSocket::SocketOption)
PUBLIC 440e0 0 QSslSocket::sslConfiguration()
PUBLIC 44150 0 QSslSocketPrivate::sslContext(QSslSocket *)
PUBLIC 44250 0 QSslSocket::sslErrors(QList<QSslError> const &)
PUBLIC 44280 0 QSslSocket::startClientEncryption()
PUBLIC 44340 0 QSslSocket::startServerEncryption()
PUBLIC 443c0 0 QSslSocket::supportsSsl()
PUBLIC 443d0 0 QSslSocketPrivate::unixRootCertDirectories()
PUBLIC 44730 0 QMap<QSsl::AlternativeNameEntryType,QString>::values(QSsl::AlternativeNameEntryType const &)
PUBLIC 44810 0 QSslSocketPrivate::verifyErrorsHaveBeenIgnored()
PUBLIC 448f0 0 QSslSocket::waitForBytesWritten(int)
PUBLIC 449d0 0 QSslSocket::waitForConnected(int)
PUBLIC 44a80 0 QSslSocket::waitForDisconnected(int)
PUBLIC 44bd0 0 QSslSocket::waitForEncrypted(int)
PUBLIC 44cd0 0 QSslSocket::waitForReadyRead(int)
PUBLIC 44de0 0 QSslSocket::writeData(char const *,__int64)
PUBLIC 44e80 0 QNetworkSession::qt_static_metacall(QObject *,QMetaObject::Call,int,void * *)
PUBLIC 450e0 0 QNetworkSession::QNetworkSession(QNetworkConfiguration const &,QObject *)
PUBLIC 453d0 0 QNetworkSession::`vector deleting destructor'(unsigned int)
PUBLIC 45410 0 QNetworkSession::closed()
PUBLIC 45430 0 QNetworkSession::configuration()
PUBLIC 454a0 0 QNetworkSession::connectNotify(QMetaMethod const &)
PUBLIC 45510 0 QNetworkSession::disconnectNotify(QMetaMethod const &)
PUBLIC 45580 0 QNetworkSession::error(QNetworkSession::SessionError)
PUBLIC 455b0 0 QNetworkSession::errorString()
PUBLIC 45680 0 QNetworkSession::isOpen()
PUBLIC 45690 0 QNetworkSession::metaObject()
PUBLIC 456b0 0 QNetworkSession::newConfigurationActivated()
PUBLIC 456d0 0 QNetworkSession::open()
PUBLIC 45710 0 QNetworkSession::opened()
PUBLIC 45730 0 QNetworkSession::preferredConfigurationChanged(QNetworkConfiguration const &,bool)
PUBLIC 45780 0 QNetworkSession::qt_metacall(QMetaObject::Call,int,void * *)
PUBLIC 457d0 0 QNetworkSession::qt_metacast(char const *)
PUBLIC 45830 0 QNetworkSession::sessionProperty(QString const &)
PUBLIC 45990 0 QNetworkSession::setSessionProperty(QString const &,QVariant const &)
PUBLIC 459e0 0 QNetworkSession::state()
PUBLIC 459f0 0 QNetworkSession::stateChanged(QNetworkSession::State)
PUBLIC 45a20 0 QNetworkSession::usagePolicies()
PUBLIC 45a60 0 QNetworkSession::usagePoliciesChanged(QFlags<QNetworkSession::UsagePolicy>)
PUBLIC 45a90 0 QNetworkSession::waitForOpened(int)
PUBLIC 45b60 0 QTcpSocket::metaObject()
PUBLIC 45b80 0 QTcpSocket::qt_metacast(char const *)
PUBLIC 45be0 0 QLatin1String::QLatin1String(QByteArray const &)
PUBLIC 45c30 0 QNetworkCookie::QNetworkCookie(QByteArray const &,QByteArray const &)
PUBLIC 45ce0 0 QNetworkCookiePrivate::QNetworkCookiePrivate(QNetworkCookiePrivate const &)
PUBLIC 45d90 0 QNetworkCookie::~QNetworkCookie()
PUBLIC 45df0 0 QNetworkCookiePrivate::~QNetworkCookiePrivate()
PUBLIC 45ee0 0 operator==(QByteArray const &,char const *)
PUBLIC 45f10 0 QStringBuilder<QString,QString>::operator QString()
PUBLIC 45f50 0 QList<QNetworkCookie>::operator+=(QNetworkCookie const &)
PUBLIC 46030 0 QSharedDataPointer<QNetworkCookiePrivate>::detach_helper()
PUBLIC 46090 0 QNetworkCookie::domain()
PUBLIC 460c0 0 QNetworkCookie::expirationDate()
PUBLIC 460e0 0 QNetworkCookie::hasSameIdentifier(QNetworkCookie const &)
PUBLIC 46140 0 QNetworkCookie::isSecure()
PUBLIC 46150 0 QNetworkCookie::isSessionCookie()
PUBLIC 46170 0 QDate::isValid()
PUBLIC 46440 0 QNetworkCookie::normalize(QUrl const &)
PUBLIC 46670 0 QNetworkCookie::parseCookies(QByteArray const &)
PUBLIC 473b0 0 QNetworkCookiePrivate::parseSetCookieHeaderLine(QByteArray const &)
PUBLIC 47f70 0 QHostInfo::hostName()
PUBLIC 47fa0 0 QNetworkCookie::toRawForm(QNetworkCookie::RawForm)
PUBLIC 48320 0 QSslConfiguration::QSslConfiguration()
PUBLIC 48360 0 QSslConfiguration::~QSslConfiguration()
PUBLIC 48390 0 QList<QByteArray>::operator=(QList<QByteArray> const &)
PUBLIC 48410 0 QSslConfiguration::operator=(QSslConfiguration const &)
PUBLIC 48460 0 QList<QByteArray>::operator==(QList<QByteArray> const &)
PUBLIC 484d0 0 QList<QSslCertificate>::operator==(QList<QSslCertificate> const &)
PUBLIC 48540 0 QList<QSslCipher>::operator==(QList<QSslCipher> const &)
PUBLIC 485b0 0 QSslConfiguration::operator==(QSslConfiguration const &)
PUBLIC 48700 0 QSslConfiguration::allowedNextProtocols()
PUBLIC 48770 0 QSslConfiguration::caCertificates()
PUBLIC 487e0 0 QSslConfiguration::ciphers()
PUBLIC 48850 0 QSslConfiguration::defaultConfiguration()
PUBLIC 48870 0 QSslConfiguration::isNull()
PUBLIC 48930 0 QSslConfiguration::localCertificate()
PUBLIC 489b0 0 QSslConfiguration::localCertificateChain()
PUBLIC 48a20 0 QSslConfiguration::nextNegotiatedProtocol()
PUBLIC 48a50 0 QSslConfiguration::nextProtocolNegotiationStatus()
PUBLIC 48a60 0 QSslConfiguration::peerVerifyDepth()
PUBLIC 48a70 0 QSslConfiguration::peerVerifyMode()
PUBLIC 48a80 0 QSslConfiguration::privateKey()
PUBLIC 48aa0 0 QSslConfiguration::protocol()
PUBLIC 48ab0 0 QSslConfiguration::sessionTicket()
PUBLIC 48ae0 0 QSslConfiguration::sessionTicketLifeTimeHint()
PUBLIC 48af0 0 QSslConfiguration::setAllowedNextProtocols(QList<QByteArray>)
PUBLIC 48b60 0 QSslConfiguration::testSslOption(QSsl::SslOption)
PUBLIC 48b70 0 QSslError::QSslError(QSslError const &)
PUBLIC 48bf0 0 QSslError::QSslError(QSslError::SslError)
PUBLIC 48cc0 0 QSslError::QSslError(QSslError::SslError,QSslCertificate const &)
PUBLIC 48d40 0 QSslError::QSslError()
PUBLIC 48e10 0 QSslError::~QSslError()
PUBLIC 48e30 0 QSslError::operator=(QSslError const &)
PUBLIC 48e60 0 QSslError::operator==(QSslError const &)
PUBLIC 48e90 0 QSslError::certificate()
PUBLIC 48eb0 0 QSslError::error()
PUBLIC 48ed0 0 QSslError::errorString()
PUBLIC 49490 0 QNetworkAccessCache::CacheableObject::CacheableObject()
PUBLIC 494a0 0 QNetworkAccessCache::Node::Node(QNetworkAccessCache::Node const &)
PUBLIC 49540 0 QNetworkAccessCache::QNetworkAccessCache()
PUBLIC 49570 0 QNetworkAccessCache::CacheableObject::~CacheableObject()
PUBLIC 495b0 0 QNetworkAccessCache::Node::~Node()
PUBLIC 49630 0 QNetworkAccessCache::~QNetworkAccessCache()
PUBLIC 49680 0 QHash<QByteArray,QNetworkAccessCache::Node>::operator[](QByteArray const &)
PUBLIC 49770 0 QNetworkAccessCache::CacheableObject::`vector deleting destructor'(unsigned int)
PUBLIC 497c0 0 QNetworkAccessCache::`vector deleting destructor'(unsigned int)
PUBLIC 49830 0 QNetworkAccessCache::addEntry(QByteArray const &,QNetworkAccessCache::CacheableObject *)
PUBLIC 498d0 0 QHash<QByteArray,QNetworkAccessCache::Node>::begin()
PUBLIC 49960 0 QNetworkAccessCache::clear()
PUBLIC 49ad0 0 QHash<QByteArray,QNetworkAccessCache::Node>::createNode(unsigned int,QByteArray const &,QNetworkAccessCache::Node const &,QHashNode<QByteArray,QNetworkAccessCache::Node> * *)
PUBLIC 49b40 0 QHash<QByteArray,QNetworkAccessCache::Node>::deleteNode2(QHashData::Node *)
PUBLIC 49b80 0 QHash<QByteArray,QNetworkAccessCache::Node>::detach()
PUBLIC 49be0 0 QList<`anonymous namespace'::Receiver>::detach_helper(int)
PUBLIC 49c60 0 QList<`anonymous namespace'::Receiver>::detach_helper_grow(int,int)
PUBLIC 49d30 0 QHash<QByteArray,QNetworkAccessCache::Node>::duplicateNode(QHashData::Node *,void *)
PUBLIC 49d80 0 QNetworkAccessCache::emitEntryReady(QNetworkAccessCache::Node *,QObject *,char const *)
PUBLIC 49df0 0 QHash<QByteArray,QNetworkAccessCache::Node>::end()
PUBLIC 49e50 0 QQueue<`anonymous namespace'::Receiver>::enqueue(`anonymous namespace'::Receiver const &)
PUBLIC 49ea0 0 QList<`anonymous namespace'::Receiver>::erase(QList<`anonymous namespace'::Receiver>::iterator)
PUBLIC 49f40 0 QHash<QByteArray,QNetworkAccessCache::Node>::find(QByteArray const &)
PUBLIC 4a010 0 QNetworkAccessCache::hasEntry(QByteArray const &)
PUBLIC 4a020 0 QNetworkAccessCache::linkEntry(QByteArray const &)
PUBLIC 4a0b0 0 QList<`anonymous namespace'::Receiver>::node_construct(QList<`anonymous namespace'::Receiver>::Node *,`anonymous namespace'::Receiver const &)
PUBLIC 4a100 0 QList<`anonymous namespace'::Receiver>::node_copy(QList<`anonymous namespace'::Receiver>::Node *,QList<`anonymous namespace'::Receiver>::Node *,QList<`anonymous namespace'::Receiver>::Node *)
PUBLIC 4a160 0 QNetworkAccessCache::releaseEntry(QByteArray const &)
PUBLIC 4a2e0 0 QHash<QByteArray,QNetworkAccessCache::Node>::remove(QByteArray const &)
PUBLIC 4a400 0 QNetworkAccessCache::removeEntry(QByteArray const &)
PUBLIC 4a4e0 0 QNetworkAccessCache::requestEntry(QByteArray const &,QObject *,char const *)
PUBLIC 4a5b0 0 QNetworkAccessCache::requestEntryNow(QByteArray const &)
PUBLIC 4a630 0 QNetworkAccessCache::CacheableObject::setExpires(bool)
PUBLIC 4a640 0 QNetworkAccessCache::CacheableObject::setShareable(bool)
PUBLIC 4a650 0 QList<`anonymous namespace'::Receiver>::takeFirst()
PUBLIC 4a6e0 0 QNetworkAccessCache::timerEvent(QTimerEvent *)
PUBLIC 4a7b0 0 QNetworkAccessCache::unlinkEntry(QByteArray const &)
PUBLIC 4a840 0 QNetworkAccessCache::updateTimer()
PUBLIC 4a8a0 0 QNetworkReplyImpl::qt_static_metacall(QObject *,QMetaObject::Call,int,void * *)
PUBLIC 4a990 0 QSharedPointer<char>::QSharedPointer<char><void (*)(char *)>(char *,void (*)(char *))
PUBLIC 4aa00 0 QSharedPointer<QRingBuffer>::create<>()
PUBLIC 4aa50 0 QQueue<QNetworkReplyImplPrivate::InternalNotifications>::QQueue<QNetworkReplyImplPrivate::InternalNotifications>(QQueue<QNetworkReplyImplPrivate::InternalNotifications> const &)
PUBLIC 4aac0 0 QByteDataBuffer::QByteDataBuffer()
PUBLIC 4aaf0 0 QDisabledNetworkReply::QDisabledNetworkReply(QObject *,QNetworkRequest const &,QNetworkAccessManager::Operation)
PUBLIC 4ac30 0 QNetworkReplyImpl::QNetworkReplyImpl(QObject *)
PUBLIC 4ac70 0 QNetworkReplyImplPrivate::QNetworkReplyImplPrivate()
PUBLIC 4adf0 0 QList<QPair<int,int> >::~QList<QPair<int,int> >()
PUBLIC 4ae50 0 QByteDataBuffer::~QByteDataBuffer()
PUBLIC 4aea0 0 QNetworkReplyImpl::~QNetworkReplyImpl()
PUBLIC 4af10 0 QNetworkReplyImplPrivate::~QNetworkReplyImplPrivate()
PUBLIC 4b080 0 QVariant::operator=(QVariant &&)
PUBLIC 4b0c0 0 QDisabledNetworkReply::`vector deleting destructor'(unsigned int)
PUBLIC 4b0f0 0 QNetworkReplyImpl::`vector deleting destructor'(unsigned int)
PUBLIC 4b110 0 QNetworkReplyImplPrivate::`vector deleting destructor'(unsigned int)
PUBLIC 4b130 0 QNetworkReplyImplPrivate::_q_bufferOutgoingData()
PUBLIC 4b290 0 QNetworkReplyImplPrivate::_q_bufferOutgoingDataFinished()
PUBLIC 4b310 0 QNetworkReplyImplPrivate::_q_copyReadyRead()
PUBLIC 4b630 0 QNetworkReplyImplPrivate::_q_networkSessionConnected()
PUBLIC 4b740 0 QNetworkReplyImplPrivate::_q_networkSessionFailed()
PUBLIC 4b8c0 0 QNetworkReplyImplPrivate::_q_networkSessionUsagePoliciesChanged(QFlags<QNetworkSession::UsagePolicy>)
PUBLIC 4b9b0 0 QNetworkReplyImplPrivate::_q_startOperation()
PUBLIC 4bd60 0 QNetworkReplyImpl::abort()
PUBLIC 4be60 0 QList<QNetworkReplyImplPrivate::InternalNotifications>::append(QNetworkReplyImplPrivate::InternalNotifications const &)
PUBLIC 4bed0 0 QByteDataBuffer::append(QByteArray const &)
PUBLIC 4bf00 0 QRingBuffer::append(QByteArray const &)
PUBLIC 4bf90 0 QNetworkReplyImplPrivate::appendDownstreamData(QByteDataBuffer &)
PUBLIC 4c190 0 QNetworkReplyImplPrivate::appendDownstreamData(QIODevice *)
PUBLIC 4c250 0 QNetworkReplyImplPrivate::appendDownstreamDataSignalEmissions()
PUBLIC 4c400 0 QNetworkReplyImplPrivate::backendNotify(QNetworkReplyImplPrivate::InternalNotifications)
PUBLIC 4c490 0 QNetworkReplyImpl::bytesAvailable()
PUBLIC 4c4e0 0 QByteDataBuffer::canReadLine()
PUBLIC 4c550 0 QNetworkReplyImpl::canReadLine()
PUBLIC 4c580 0 QRingBuffer::chop(int)
PUBLIC 4c630 0 QList<QPair<QByteArray,QByteArray> >::clear()
PUBLIC 4c680 0 QByteDataBuffer::clear()
PUBLIC 4c6f0 0 QNetworkReplyImpl::close()
PUBLIC 4c7b0 0 QNetworkReplyImplPrivate::completeCacheSave()
PUBLIC 4c860 0 QNetworkReplyImplPrivate::createCache()
PUBLIC 4c8f0 0 QtSharedPointer::ExternalRefCountWithContiguousData<QRingBuffer>::deleter(QtSharedPointer::ExternalRefCountData *)
PUBLIC 4c940 0 QList<QNetworkReplyImplPrivate::InternalNotifications>::detach_helper(int)
PUBLIC 4c9e0 0 QList<QNetworkReplyImplPrivate::InternalNotifications>::detach_helper_grow(int,int)
PUBLIC 4cad0 0 QNetworkReplyImplPrivate::emitUploadProgress(__int64,__int64)
PUBLIC 4cbd0 0 QNetworkReplyImpl::event(QEvent *)
PUBLIC 4cc00 0 QNetworkReplyImplPrivate::finished()
PUBLIC 4cfb0 0 QNetworkReplyImplPrivate::handleNotifications()
PUBLIC 4d110 0 QNetworkReplyImpl::ignoreSslErrors()
PUBLIC 4d130 0 QNetworkReplyImpl::ignoreSslErrorsImplementation(QList<QSslError> const &)
PUBLIC 4d150 0 QNetworkReplyImplPrivate::initCacheSaveDevice()
PUBLIC 4d340 0 QNetworkReplyImplPrivate::metaDataChanged()
PUBLIC 4d470 0 QDisabledNetworkReply::metaObject()
PUBLIC 4d490 0 QNetworkReplyImpl::metaObject()
PUBLIC 4d4b0 0 QNetworkReplyImplPrivate::migrateBackend()
PUBLIC 4d5f0 0 QNetworkReplyImplPrivate::nextDownstreamBlockSize()
PUBLIC 4d660 0 QList<QNetworkReplyImplPrivate::InternalNotifications>::node_copy(QList<QNetworkReplyImplPrivate::InternalNotifications>::Node *,QList<QNetworkReplyImplPrivate::InternalNotifications>::Node *,QList<QNetworkReplyImplPrivate::InternalNotifications>::Node *)
PUBLIC 4d6a0 0 QByteDataBuffer::popFront(QByteArray &,__int64)
PUBLIC 4d700 0 QNetworkReplyImpl::qt_metacall(QMetaObject::Call,int,void * *)
PUBLIC 4d750 0 QDisabledNetworkReply::qt_metacast(char const *)
PUBLIC 4d7b0 0 QNetworkReplyImpl::qt_metacast(char const *)
PUBLIC 4d810 0 QByteDataBuffer::read(char *,__int64)
PUBLIC 4d9b0 0 QNetworkReplyImpl::readData(char *,__int64)
PUBLIC 4db00 0 QNetworkReplyImplPrivate::redirectionRequested(QUrl const &)
PUBLIC 4db50 0 QNetworkReplyImplPrivate::resumeNotificationHandling()
PUBLIC 4dbb0 0 QNetworkReplyImplPrivate::setCachingEnabled(bool)
PUBLIC 4dca0 0 QNetworkReplyImpl::setReadBufferSize(__int64)
PUBLIC 4dd30 0 QNetworkReplyImpl::setSslConfigurationImplementation(QSslConfiguration const &)
PUBLIC 4dd60 0 QNetworkReplyImplPrivate::setup(QNetworkAccessManager::Operation,QNetworkRequest const &,QIODevice *)
PUBLIC 4e130 0 QByteDataBuffer::squeezeFirst()
PUBLIC 4e190 0 QNetworkReplyImpl::sslConfigurationImplementation(QSslConfiguration &)
PUBLIC 4e1b0 0 QNetworkReplyImplPrivate::sslErrors(QList<QSslError> const &)
PUBLIC 4e1c0 0 QList<QByteArray>::takeFirst()
PUBLIC 4e240 0 QNetworkAccessBackend::QNetworkAccessBackend()
PUBLIC 4e280 0 QNetworkAccessBackendFactory::QNetworkAccessBackendFactory()
PUBLIC 4e300 0 QNetworkAccessBackend::~QNetworkAccessBackend()
PUBLIC 4e350 0 QNetworkAccessBackendFactory::~QNetworkAccessBackendFactory()
PUBLIC 4e3d0 0 QNetworkAccessBackendFactoryData::~QNetworkAccessBackendFactoryData()
PUBLIC 4e440 0 QList<QString>::operator+=(QList<QString> const &)
PUBLIC 4e4c0 0 QNetworkAccessBackend::`vector deleting destructor'(unsigned int)
PUBLIC 4e520 0 QNetworkAccessBackend::authenticationRequired(QAuthenticator *)
PUBLIC 4e550 0 QNetworkAccessManagerPrivate::backendSupportedSchemes()
PUBLIC 4e750 0 QNetworkAccessBackend::createUploadByteDevice()
PUBLIC 4e8b0 0 QNetworkAccessBackend::emitReplyUploadProgress(__int64,__int64)
PUBLIC 4e8e0 0 QNetworkAccessBackend::encrypted()
PUBLIC 4e8f0 0 QNetworkAccessBackend::error(QNetworkReply::NetworkError,QString const &)
PUBLIC 4e900 0 QNetworkAccessBackend::fetchCacheMetaData(QNetworkCacheMetaData const &)
PUBLIC 4e910 0 QNetworkAccessManagerPrivate::findBackend(QNetworkAccessManager::Operation,QNetworkRequest const &)
PUBLIC 4e9f0 0 QNetworkAccessBackend::finished()
PUBLIC 4ea00 0 `anonymous namespace'::Q_QGS_factoryData::innerFunction()
PUBLIC 4eab0 0 QNetworkAccessBackend::metaDataChanged()
PUBLIC 4eac0 0 QtPrivate::QVariantValueHelper<QString>::metaType(QVariant const &)
PUBLIC 4eb80 0 QNetworkAccessBackend::networkCache()
PUBLIC 4eb90 0 QNetworkAccessBackend::nextDownstreamBlockSize()
PUBLIC 4eba0 0 QNetworkAccessBackend::operation()
PUBLIC 4ebb0 0 QNetworkAccessBackend::proxyAuthenticationRequired(QNetworkProxy const &,QAuthenticator *)
PUBLIC 4ebf0 0 QNetworkAccessBackend::proxyList()
PUBLIC 4ec60 0 QNetworkAccessBackend::redirectionRequested(QUrl const &)
PUBLIC 4ec70 0 QList<int>::removeAll(int const &)
PUBLIC 4ed40 0 QNetworkAccessBackend::request()
PUBLIC 4ed60 0 QNetworkAccessBackend::setAttribute(QNetworkRequest::Attribute,QVariant const &)
PUBLIC 4eda0 0 QNetworkAccessBackend::setCachingEnabled(bool)
PUBLIC 4edb0 0 QNetworkAccessBackend::setHeader(QNetworkRequest::KnownHeaders,QVariant const &)
PUBLIC 4edc0 0 QNetworkAccessBackend::setRawHeader(QByteArray const &,QByteArray const &)
PUBLIC 4edd0 0 QNetworkAccessBackend::setUrl(QUrl const &)
PUBLIC 4ede0 0 QNetworkAccessBackend::sslErrors(QList<QSslError> const &)
PUBLIC 4edf0 0 QNetworkAccessBackend::start()
PUBLIC 4f140 0 QNetworkAccessBackend::url()
PUBLIC 4f160 0 QNetworkAccessBackend::writeDownstreamData(QByteDataBuffer &)
PUBLIC 4f170 0 QNetworkAccessBackend::writeDownstreamData(QIODevice *)
PUBLIC 4f180 0 std::_Lower_bound<QNetworkAuthenticationCredential *,QString,int,std::less<void> >(QNetworkAuthenticationCredential *,QNetworkAuthenticationCredential *,QString const &,std::less<void>,int *)
PUBLIC 4f1e0 0 QNetworkAuthenticationCache::QNetworkAuthenticationCache()
PUBLIC 4f250 0 QNetworkAuthenticationCredential::QNetworkAuthenticationCredential(QNetworkAuthenticationCredential const &)
PUBLIC 4f2b0 0 QVector<QNetworkAuthenticationCredential>::~QVector<QNetworkAuthenticationCredential>()
PUBLIC 4f310 0 QStringBuilder<char const [6],QByteArray>::operator QByteArray()
PUBLIC 4f370 0 QNetworkAuthenticationCache::`vector deleting destructor'(unsigned int)
PUBLIC 4f4b0 0 QNetworkAccessAuthenticationManager::cacheCredentials(QUrl const &,QAuthenticator const *)
PUBLIC 4f860 0 QNetworkAccessAuthenticationManager::cacheProxyCredentials(QNetworkProxy const &,QAuthenticator const *)
PUBLIC 4fc60 0 QVector<QNetworkAuthenticationCredential>::defaultConstruct(QNetworkAuthenticationCredential *,QNetworkAuthenticationCredential *)
PUBLIC 4fca0 0 QVector<QNetworkAuthenticationCredential>::destruct(QNetworkAuthenticationCredential *,QNetworkAuthenticationCredential *)
PUBLIC 4fcd0 0 QNetworkAuthenticationCache::dispose()
PUBLIC 4fce0 0 QVector<QNetworkAuthenticationCredential>::end()
PUBLIC 4fd50 0 QNetworkAccessAuthenticationManager::fetchCachedCredentials(QUrl const &,QAuthenticator const *)
PUBLIC 4ffc0 0 QNetworkAccessAuthenticationManager::fetchCachedProxyCredentials(QNetworkProxy const &,QAuthenticator const *)
PUBLIC 50250 0 QNetworkAuthenticationCache::findClosestMatch(QString const &)
PUBLIC 50310 0 QVector<QNetworkAuthenticationCredential>::freeData(QTypedArrayData<QNetworkAuthenticationCredential> *)
PUBLIC 50360 0 QVector<QNetworkAuthenticationCredential>::insert(QNetworkAuthenticationCredential *,int,QNetworkAuthenticationCredential const &)
PUBLIC 504f0 0 QNetworkAuthenticationCache::insert(QString const &,QString const &,QString const &)
PUBLIC 50880 0 QVector<QNetworkAuthenticationCredential>::reallocData(int,int,QFlags<QArrayData::AllocationOption>)
PUBLIC 50a90 0 QNetworkCookieJar::QNetworkCookieJar(QObject *)
PUBLIC 50ae0 0 QNetworkCookieJar::`vector deleting destructor'(unsigned int)
PUBLIC 50b10 0 QNetworkCookieJarPrivate::`vector deleting destructor'(unsigned int)
PUBLIC 50b40 0 QNetworkCookieJar::cookiesForUrl(QUrl const &)
PUBLIC 50e40 0 QNetworkCookieJar::deleteCookie(QNetworkCookie const &)
PUBLIC 50f10 0 QList<QNetworkCookie>::detach_helper(int)
PUBLIC 50fb0 0 QList<QNetworkCookie>::insert(QList<QNetworkCookie>::iterator,QNetworkCookie const &)
PUBLIC 51000 0 QNetworkCookieJar::insertCookie(QNetworkCookie const &)
PUBLIC 512f0 0 QNetworkCookieJar::setCookiesFromUrl(QList<QNetworkCookie> const &,QUrl const &)
PUBLIC 513f0 0 QNetworkCookieJar::updateCookie(QNetworkCookie const &)
PUBLIC 51420 0 QNetworkCookieJar::validateCookie(QNetworkCookie const &,QUrl const &)
PUBLIC 51530 0 QSharedPointer<QNetworkSession>::QSharedPointer<QNetworkSession><void (*)(QObject *)>(QNetworkSession *,void (*)(QObject *))
PUBLIC 515a0 0 QHash<QNetworkConfiguration,QWeakPointer<QNetworkSession> >::operator[](QNetworkConfiguration const &)
PUBLIC 51670 0 QHash<QNetworkConfiguration,QWeakPointer<QNetworkSession> >::createNode(unsigned int,QNetworkConfiguration const &,QWeakPointer<QNetworkSession> const &,QHashNode<QNetworkConfiguration,QWeakPointer<QNetworkSession> > * *)
PUBLIC 516e0 0 QThreadStorage<QSharedNetworkSessionManager *>::deleteData(void *)
PUBLIC 51720 0 QHash<QNetworkConfiguration,QWeakPointer<QNetworkSession> >::deleteNode2(QHashData::Node *)
PUBLIC 51750 0 QtSharedPointer::ExternalRefCountWithCustomDeleter<char,void (*)(char *)>::deleter(QtSharedPointer::ExternalRefCountData *)
PUBLIC 51770 0 QHash<QNetworkConfiguration,QWeakPointer<QNetworkSession> >::duplicateNode(QHashData::Node *,void *)
PUBLIC 517c0 0 QHash<QNetworkConfiguration,QWeakPointer<QNetworkSession> >::findNode(QNetworkConfiguration const &,unsigned int *)
PUBLIC 51880 0 QSharedNetworkSessionManager::getSession(QNetworkConfiguration)
PUBLIC 51a00 0 sharedNetworkSessionManager()
PUBLIC 51a60 0 QNetworkAccessFtpBackend::QNetworkAccessFtpBackend()
PUBLIC 51ac0 0 QStringList::QStringList(QString const &)
PUBLIC 51ae0 0 QNetworkAccessFtpBackend::~QNetworkAccessFtpBackend()
PUBLIC 51b49 0 [thunk]:QNetworkAccessCachedFtpConnection::`vector deleting destructor'`adjustor{8}' (unsigned int)
PUBLIC 51b60 0 QNetworkAccessCachedFtpConnection::`vector deleting destructor'(unsigned int)
PUBLIC 51b90 0 QNetworkAccessFtpBackend::`vector deleting destructor'(unsigned int)
PUBLIC 51bb0 0 QNetworkAccessFtpBackend::closeDownstreamChannel()
PUBLIC 51bf0 0 QString::contains(QLatin1String,Qt::CaseSensitivity)
PUBLIC 51c10 0 QNetworkAccessFtpBackendFactory::create(QNetworkAccessManager::Operation,QNetworkRequest const &)
PUBLIC 51cd0 0 QNetworkAccessFtpBackend::disconnectFromFtp(QNetworkAccessFtpBackend::CacheCleanupMode)
PUBLIC 51df0 0 QNetworkAccessCachedFtpConnection::dispose()
PUBLIC 51e30 0 QNetworkAccessFtpBackend::downstreamReadyWrite()
PUBLIC 51e70 0 QNetworkAccessFtpBackend::ftpConnectionReady(QNetworkAccessCache::CacheableObject *)
PUBLIC 51f60 0 QNetworkAccessFtpBackend::ftpDone()
PUBLIC 52830 0 QNetworkAccessFtpBackend::ftpRawCommandReply(int,QString const &)
PUBLIC 52960 0 QNetworkAccessFtpBackend::ftpReadyRead()
PUBLIC 52b70 0 QNetworkAccessFtpBackend::open()
PUBLIC 531e0 0 QNetworkAccessFtpBackendFactory::supportedSchemes()
PUBLIC 53210 0 QNetworkAccessFileBackend::QNetworkAccessFileBackend()
PUBLIC 53250 0 QNetworkAccessFileBackend::`vector deleting destructor'(unsigned int)
PUBLIC 53280 0 QNetworkAccessFileBackend::closeDownstreamChannel()
PUBLIC 532a0 0 QNetworkAccessFileBackendFactory::create(QNetworkAccessManager::Operation,QNetworkRequest const &)
PUBLIC 534f0 0 QNetworkAccessFileBackend::downstreamReadyWrite()
PUBLIC 53500 0 QNetworkAccessFileBackend::loadFileInfo()
PUBLIC 536b0 0 QNetworkAccessFileBackend::open()
PUBLIC 53ba0 0 QNetworkAccessFileBackend::readMoreFromFile()
PUBLIC 54070 0 QNetworkAccessFileBackendFactory::supportedSchemes()
PUBLIC 540b0 0 QNetworkAccessFileBackend::uploadReadyReadSlot()
PUBLIC 542b0 0 QNetworkAccessCacheBackend::QNetworkAccessCacheBackend()
PUBLIC 542d0 0 QNetworkAccessCacheBackend::`vector deleting destructor'(unsigned int)
PUBLIC 54300 0 QNetworkAccessCacheBackend::open()
PUBLIC 54450 0 QNetworkAccessCacheBackend::sendCacheContents()
PUBLIC 54780 0 QNetworkReplyDataImpl::QNetworkReplyDataImpl(QObject *,QNetworkRequest const &,QNetworkAccessManager::Operation)
PUBLIC 54bc0 0 QNetworkReplyDataImplPrivate::~QNetworkReplyDataImplPrivate()
PUBLIC 54c30 0 QNetworkReplyDataImpl::`vector deleting destructor'(unsigned int)
PUBLIC 54c60 0 QNetworkReplyDataImplPrivate::`vector deleting destructor'(unsigned int)
PUBLIC 54c80 0 QNetworkReplyDataImpl::abort()
PUBLIC 54c90 0 QNetworkReplyDataImpl::bytesAvailable()
PUBLIC 54cc0 0 QNetworkReplyDataImpl::metaObject()
PUBLIC 54ce0 0 QNetworkReplyDataImpl::qt_metacast(char const *)
PUBLIC 54d40 0 QNetworkReplyDataImpl::readData(char *,__int64)
PUBLIC 54d60 0 QNetworkReplyDataImpl::size()
PUBLIC 54d70 0 QNetworkReplyFileImpl::QNetworkReplyFileImpl(QObject *,QNetworkRequest const &,QNetworkAccessManager::Operation)
PUBLIC 555d0 0 QNetworkReplyFileImplPrivate::~QNetworkReplyFileImplPrivate()
PUBLIC 55630 0 QNetworkReplyFileImpl::`vector deleting destructor'(unsigned int)
PUBLIC 55660 0 QNetworkReplyFileImplPrivate::`vector deleting destructor'(unsigned int)
PUBLIC 55680 0 QNetworkReplyFileImpl::bytesAvailable()
PUBLIC 556c0 0 QNetworkReplyFileImpl::abort()
PUBLIC 556e0 0 QNetworkReplyFileImpl::metaObject()
PUBLIC 55700 0 QDisabledNetworkReply::qt_metacall(QMetaObject::Call,int,void * *)
PUBLIC 55710 0 QNetworkReplyFileImpl::qt_metacast(char const *)
PUBLIC 55770 0 QNetworkReplyFileImpl::readData(char *,__int64)
PUBLIC 55800 0 QNetworkReplyFileImpl::size()
PUBLIC 55810 0 QConcatenable<QStringBuilder<char const [2],QByteArray> >::appendTo<char>(QStringBuilder<char const [2],QByteArray> const &,char * &)
PUBLIC 55870 0 QConcatenable<QStringBuilder<QStringBuilder<char,QByteArray>,char> >::appendTo<char>(QStringBuilder<QStringBuilder<char,QByteArray>,char> const &,char * &)
PUBLIC 558d0 0 QConcatenable<QStringBuilder<QStringBuilder<QStringBuilder<char,QByteArray>,char>,QByteArray> >::appendTo<char>(QStringBuilder<QStringBuilder<QStringBuilder<char,QByteArray>,char>,QByteArray> const &,char * &)
PUBLIC 55930 0 QConcatenable<QStringBuilder<QStringBuilder<QByteArray,char>,QByteArray> >::appendTo<char>(QStringBuilder<QStringBuilder<QByteArray,char>,QByteArray> const &,char * &)
PUBLIC 55990 0 QConcatenable<QStringBuilder<QByteArray,char> >::appendTo<char>(QStringBuilder<QByteArray,char> const &,char * &)
PUBLIC 559f0 0 QtStringBuilder::appendToByteArray<char const [13],QByteArray>(QByteArray &,QStringBuilder<char const [13],QByteArray> const &,char)
PUBLIC 55a70 0 QtStringBuilder::appendToByteArray<QStringBuilder<char const [4],QByteArray>,char const [3]>(QByteArray &,QStringBuilder<QStringBuilder<char const [4],QByteArray>,char const [3]> const &,char)
PUBLIC 55b10 0 QtStringBuilder::appendToByteArray<QStringBuilder<char const [6],QByteArray>,char const [4]>(QByteArray &,QStringBuilder<QStringBuilder<char const [6],QByteArray>,char const [4]> const &,char)
PUBLIC 55bb0 0 QtStringBuilder::appendToByteArray<QStringBuilder<char const [8],QByteArray>,char const [4]>(QByteArray &,QStringBuilder<QStringBuilder<char const [8],QByteArray>,char const [4]> const &,char)
PUBLIC 55c50 0 QtStringBuilder::appendToByteArray<QStringBuilder<char const [9],QByteArray>,char const [4]>(QByteArray &,QStringBuilder<QStringBuilder<char const [9],QByteArray>,char const [4]> const &,char)
PUBLIC 55cf0 0 QtStringBuilder::appendToByteArray<QStringBuilder<char const [9],QByteArray>,char>(QByteArray &,QStringBuilder<QStringBuilder<char const [9],QByteArray>,char> const &,char)
PUBLIC 55d80 0 QtStringBuilder::appendToByteArray<QStringBuilder<char const [11],QByteArray>,char const [4]>(QByteArray &,QStringBuilder<QStringBuilder<char const [11],QByteArray>,char const [4]> const &,char)
PUBLIC 55e20 0 QtStringBuilder::appendToByteArray<QStringBuilder<char const [11],QByteArray>,char>(QByteArray &,QStringBuilder<QStringBuilder<char const [11],QByteArray>,char> const &,char)
PUBLIC 55eb0 0 QAuthenticatorPrivate::QAuthenticatorPrivate()
PUBLIC 56080 0 QNtlmPhase3Block::QNtlmPhase3Block()
PUBLIC 56100 0 QVariant::QVariant(QVariant &&)
PUBLIC 56170 0 QHash<QByteArray,QByteArray>::~QHash<QByteArray,QByteArray>()
PUBLIC 561a0 0 QHashNode<QByteArray,QByteArray>::~QHashNode<QByteArray,QByteArray>()
PUBLIC 56200 0 QAuthenticator::~QAuthenticator()
PUBLIC 56220 0 QAuthenticatorPrivate::~QAuthenticatorPrivate()
PUBLIC 563c0 0 QNtlmPhase1Block::~QNtlmPhase1Block()
PUBLIC 56420 0 QNtlmPhase2Block::~QNtlmPhase2Block()
PUBLIC 564b0 0 QNtlmPhase3Block::~QNtlmPhase3Block()
PUBLIC 565e0 0 QHash<QString,QVariant>::operator=(QHash<QString,QVariant> const &)
PUBLIC 56650 0 QAuthenticator::operator=(QAuthenticator const &)
PUBLIC 56740 0 QByteRef::operator=(char)
PUBLIC 569f0 0 QHash<QString,QVariant>::operator==(QHash<QString,QVariant> const &)
PUBLIC 56ad0 0 QHash<QByteArray,QByteArray>::operator[](QByteArray const &)
PUBLIC 56bd0 0 QHash<QString,QVariant>::operator[](QString const &)
PUBLIC 56cc0 0 QAuthenticatorPrivate::calculateResponse(QByteArray const &,QByteArray const &)
PUBLIC 57260 0 QHash<QString,QVariant>::createNode(unsigned int,QString const &,QVariant const &,QHashNode<QString,QVariant> * *)
PUBLIC 572d0 0 QHash<QByteArray,QByteArray>::deleteNode2(QHashData::Node *)
PUBLIC 572e0 0 QHash<QString,QVariant>::deleteNode2(QHashData::Node *)
PUBLIC 57320 0 QHash<QString,QVariant>::detach()
PUBLIC 57380 0 QAuthenticator::detach()
PUBLIC 573c0 0 QHash<QString,QVariant>::detach_helper()
PUBLIC 57410 0 QAuthenticatorPrivate::digestMd5Response(QByteArray const &,QByteArray const &,QByteArray const &)
PUBLIC 58010 0 QHash<QByteArray,QByteArray>::duplicateNode(QHashData::Node *,void *)
PUBLIC 58060 0 QHash<QString,QVariant>::duplicateNode(QHashData::Node *,void *)
PUBLIC 580b0 0 QHash<QString,QVariant>::find(QString const &)
PUBLIC 58130 0 QAuthenticatorPrivate::parseDigestAuthenticationChallenge(QByteArray const &)
PUBLIC 584b0 0 QAuthenticatorPrivate::parseHttpResponse(QList<QPair<QByteArray,QByteArray> > const &,bool)
PUBLIC 58bd0 0 QAuthenticator::password()
PUBLIC 58f50 0 qEncodeHmacMd5(QByteArray &,QByteArray const &)
PUBLIC 5a4d0 0 QAuthenticator::setPassword(QString const &)
PUBLIC 5a540 0 QAuthenticator::setUser(QString const &)
PUBLIC 5a590 0 QAuthenticatorPrivate::updateCredentials()
PUBLIC 5a760 0 QAuthenticator::user()
PUBLIC 5a820 0 QHash<QByteArray,QByteArray>::value(QByteArray const &)
PUBLIC 5a8d0 0 QHttpNetworkRequest::QHttpNetworkRequest(QHttpNetworkRequest const &)
PUBLIC 5a900 0 QHttpNetworkRequest::QHttpNetworkRequest(QUrl const &,QHttpNetworkRequest::Operation,QHttpNetworkRequest::Priority)
PUBLIC 5a970 0 QHttpNetworkRequestPrivate::QHttpNetworkRequestPrivate(QHttpNetworkRequestPrivate const &)
PUBLIC 5a9e0 0 QHttpNetworkRequest::~QHttpNetworkRequest()
PUBLIC 5aa30 0 QHttpNetworkRequestPrivate::~QHttpNetworkRequestPrivate()
PUBLIC 5aab0 0 QHttpNetworkRequest::operator=(QHttpNetworkRequest const &)
PUBLIC 5ab00 0 QHttpNetworkRequest::operator==(QHttpNetworkRequest const &)
PUBLIC 5ab20 0 QHttpNetworkRequestPrivate::operator==(QHttpNetworkRequestPrivate const &)
PUBLIC 5abb0 0 QSharedDataPointer<QHttpNetworkRequestPrivate>::operator->()
PUBLIC 5abd0 0 QHttpNetworkHeader::`vector deleting destructor'(unsigned int)
PUBLIC 5abf0 0 QHttpNetworkRequest::`vector deleting destructor'(unsigned int)
PUBLIC 5ac40 0 QHttpNetworkRequest::contentLength()
PUBLIC 5ac50 0 QSharedDataPointer<QHttpNetworkRequestPrivate>::detach_helper()
PUBLIC 5acb0 0 QHttpNetworkRequest::header()
PUBLIC 5ad20 0 QHttpNetworkRequestPrivate::header(QHttpNetworkRequest const &,bool)
PUBLIC 5b170 0 QHttpNetworkRequest::headerField(QByteArray const &,QByteArray const &)
PUBLIC 5b190 0 QHttpNetworkRequest::isPipeliningAllowed()
PUBLIC 5b1a0 0 QHttpNetworkRequest::isPreConnect()
PUBLIC 5b1b0 0 QHttpNetworkRequest::isSPDYAllowed()
PUBLIC 5b1c0 0 QHttpNetworkRequest::isSsl()
PUBLIC 5b1d0 0 QHttpNetworkRequest::majorVersion()
PUBLIC 5b1e0 0 QHttpNetworkRequest::methodName()
PUBLIC 5b300 0 QHttpNetworkRequest::operation()
PUBLIC 5b310 0 QHttpNetworkRequest::priority()
PUBLIC 5b320 0 QHttpNetworkRequest::setContentLength(__int64)
PUBLIC 5b350 0 QHttpNetworkRequest::setCustomVerb(QByteArray const &)
PUBLIC 5b380 0 QHttpNetworkRequest::setHeaderField(QByteArray const &,QByteArray const &)
PUBLIC 5b3b0 0 QHttpNetworkRequest::setOperation(QHttpNetworkRequest::Operation)
PUBLIC 5b3f0 0 QHttpNetworkRequest::setPipeliningAllowed(bool)
PUBLIC 5b430 0 QHttpNetworkRequest::setPreConnect(bool)
PUBLIC 5b470 0 QHttpNetworkRequest::setPriority(QHttpNetworkRequest::Priority)
PUBLIC 5b4b0 0 QHttpNetworkRequest::setSPDYAllowed(bool)
PUBLIC 5b4f0 0 QHttpNetworkRequest::setSsl(bool)
PUBLIC 5b530 0 QHttpNetworkRequest::setUploadByteDevice(QNonContiguousByteDevice *)
PUBLIC 5b570 0 QHttpNetworkRequest::setUrl(QUrl const &)
PUBLIC 5b5a0 0 QHttpNetworkRequest::setWithCredentials(bool)
PUBLIC 5b5e0 0 QHttpNetworkRequest::uploadByteDevice()
PUBLIC 5b5f0 0 QHttpNetworkRequest::uri(bool)
PUBLIC 5b6e0 0 QHttpNetworkRequest::url()
PUBLIC 5b700 0 QHttpNetworkRequest::withCredentials()
PUBLIC 5b710 0 QConcatenable<QStringBuilder<QStringBuilder<QStringBuilder<char const [7],QByteArray>,char>,QByteArray> >::appendTo<char>(QStringBuilder<QStringBuilder<QStringBuilder<char const [7],QByteArray>,char>,QByteArray> const &,char * &)
PUBLIC 5b780 0 QByteDataBuffer::QByteDataBuffer(QByteDataBuffer const &)
PUBLIC 5b800 0 QNetworkReplyHttpImpl::QNetworkReplyHttpImpl(QNetworkAccessManager * const,QNetworkRequest const &,QNetworkAccessManager::Operation &,QIODevice *)
PUBLIC 5bb80 0 QNetworkReplyHttpImplPrivate::QNetworkReplyHttpImplPrivate()
PUBLIC 5be20 0 QNetworkReplyHttpImplPrivate::~QNetworkReplyHttpImplPrivate()
PUBLIC 5c090 0 QDebug::operator<<(__int64)
PUBLIC 5c0c0 0 QNetworkReplyHttpImpl::`vector deleting destructor'(unsigned int)
PUBLIC 5c0f0 0 QNetworkReplyHttpImplPrivate::`vector deleting destructor'(unsigned int)
PUBLIC 5c110 0 QNonContiguousByteDeviceThreadForwardImpl::`vector deleting destructor'(unsigned int)
PUBLIC 5c170 0 QNetworkReplyHttpImplPrivate::_q_bufferOutgoingData()
PUBLIC 5c2d0 0 QNetworkReplyHttpImplPrivate::_q_bufferOutgoingDataFinished()
PUBLIC 5c350 0 QNetworkReplyHttpImplPrivate::_q_cacheLoadReadyRead()
PUBLIC 5c580 0 QNetworkReplyHttpImplPrivate::_q_cacheSaveDeviceAboutToClose()
PUBLIC 5c590 0 QNetworkReplyHttpImplPrivate::_q_finished()
PUBLIC 5c5a0 0 QNetworkReplyHttpImplPrivate::_q_metaDataChanged()
PUBLIC 5c6b0 0 QNetworkReplyHttpImplPrivate::_q_networkSessionConnected()
PUBLIC 5c790 0 QNetworkReplyHttpImplPrivate::_q_networkSessionFailed()
PUBLIC 5c900 0 QNetworkReplyHttpImplPrivate::_q_networkSessionUsagePoliciesChanged(QFlags<QNetworkSession::UsagePolicy>)
PUBLIC 5c9e0 0 QNetworkReplyHttpImplPrivate::_q_startOperation()
PUBLIC 5cd50 0 QNetworkReplyHttpImpl::abort()
PUBLIC 5ce10 0 QNonContiguousByteDeviceThreadForwardImpl::advanceReadPointer(__int64)
PUBLIC 5ce50 0 QNonContiguousByteDeviceThreadForwardImpl::atEnd()
PUBLIC 5ce70 0 QNetworkReplyHttpImpl::bytesAvailable()
PUBLIC 5cf10 0 QNetworkReplyHttpImpl::canReadLine()
PUBLIC 5cf90 0 QNetworkReplyHttpImplPrivate::canResume()
PUBLIC 5d160 0 QNetworkReplyHttpImplPrivate::checkForRedirect(int)
PUBLIC 5d310 0 QNetworkReplyHttpImpl::close()
PUBLIC 5d390 0 QNetworkReplyHttpImplPrivate::completeCacheSave()
PUBLIC 5d400 0 QNetworkReplyHttpImplPrivate::createCache()
PUBLIC 5d490 0 QNetworkReplyHttpImplPrivate::createUploadByteDevice()
PUBLIC 5d600 0 QNetworkReplyHttpImplPrivate::emitReplyUploadProgress(__int64,__int64)
PUBLIC 5d690 0 QNetworkReplyHttpImplPrivate::fetchCacheMetaData(QNetworkCacheMetaData const &)
PUBLIC 5e1a0 0 QNetworkReplyHttpImplPrivate::finished()
PUBLIC 5e4e0 0 QNetworkReplyHttpImplPrivate::httpAuthenticationRequired(QHttpNetworkRequest const &,QAuthenticator *)
PUBLIC 5e520 0 QNetworkReplyHttpImplPrivate::_q_error(QNetworkReply::NetworkError,QString const &)
PUBLIC 5e590 0 QNetworkReplyHttpImpl::ignoreSslErrors()
PUBLIC 5e5a0 0 QNetworkReplyHttpImpl::ignoreSslErrorsImplementation(QList<QSslError> const &)
PUBLIC 5e5e0 0 QList<QByteArray>::indexOf(QByteArray const &,int)
PUBLIC 5e6e0 0 QNetworkReplyHttpImplPrivate::initCacheSaveDevice()
PUBLIC 5e8d0 0 QHash<QByteArray,QByteArray>::insert(QByteArray const &,QByteArray const &)
PUBLIC 5e9a0 0 QNetworkReplyHttpImplPrivate::loadFromCacheIfAllowed(QHttpNetworkRequest &)
PUBLIC 5f100 0 QNetworkReplyHttpImplPrivate::migrateBackend()
PUBLIC 5f620 0 QNetworkReplyHttpImplPrivate::postRequest()
PUBLIC 61030 0 QNetworkReplyHttpImplPrivate::proxyAuthenticationRequired(QNetworkProxy const &,QAuthenticator *)
PUBLIC 61080 0 QNetworkReplyHttpImpl::readData(char *,__int64)
PUBLIC 61230 0 QNonContiguousByteDeviceThreadForwardImpl::readPointer(__int64,__int64 &)
PUBLIC 612a0 0 QList<QByteArray>::removeAt(int)
PUBLIC 61310 0 QNetworkReplyHttpImplPrivate::replyDownloadData(QByteArray)
PUBLIC 61670 0 QNetworkReplyHttpImplPrivate::replyDownloadMetaData(QList<QPair<QByteArray,QByteArray> >,int,QString,bool,QSharedPointer<char>,__int64,bool)
PUBLIC 61cc0 0 QNetworkReplyHttpImplPrivate::replyDownloadProgressSlot(__int64,__int64)
PUBLIC 61dd0 0 QNetworkReplyImplPrivate::encrypted()
PUBLIC 61de0 0 QNetworkReplyHttpImplPrivate::replyFinished()
PUBLIC 61df0 0 QNetworkReplyHttpImplPrivate::replySslConfigurationChanged(QSslConfiguration const &)
PUBLIC 61e00 0 QNetworkReplyHttpImplPrivate::replySslErrors(QList<QSslError> const &,bool *,QList<QSslError> *)
PUBLIC 61e60 0 QNonContiguousByteDeviceThreadForwardImpl::reset()
PUBLIC 61e90 0 QNetworkReplyHttpImplPrivate::resetUploadDataSlot(bool *)
PUBLIC 61eb0 0 QNetworkReplyHttpImplPrivate::sendCacheContents(QNetworkCacheMetaData const &)
PUBLIC 621b0 0 QNetworkReplyHttpImplPrivate::sentUploadDataSlot(__int64)
PUBLIC 621d0 0 QNetworkReplyHttpImplPrivate::setCachingEnabled(bool)
PUBLIC 62310 0 QNetworkReplyHttpImpl::setReadBufferSize(__int64)
PUBLIC 62340 0 QNetworkReplyHttpImpl::size()
PUBLIC 62350 0 QNonContiguousByteDeviceThreadForwardImpl::size()
PUBLIC 62360 0 QNetworkReplyHttpImpl::sslConfigurationImplementation(QSslConfiguration &)
PUBLIC 62380 0 QNetworkReplyHttpImplPrivate::start()
PUBLIC 62510 0 QNetworkReplyHttpImplPrivate::uploadByteDeviceReadyReadSlot()
PUBLIC 62530 0 QNetworkReplyHttpImplPrivate::wantUploadDataSlot(__int64)
PUBLIC 62600 0 QHash<QHostAddress,QHostAddress>::operator[](QHostAddress const &)
PUBLIC 62790 0 QHash<QHostAddress,QHostAddress>::createNode(unsigned int,QHostAddress const &,QHostAddress const &,QHashNode<QHostAddress,QHostAddress> * *)
PUBLIC 627f0 0 QHash<QHostAddress,QHostAddress>::deleteNode2(QHashData::Node *)
PUBLIC 62810 0 QList<int>::detach_helper_grow(int,int)
PUBLIC 628e0 0 QList<QNetworkAddressEntry>::detach_helper_grow(int,int)
PUBLIC 629f0 0 QHash<QHostAddress,QHostAddress>::duplicateNode(QHashData::Node *,void *)
PUBLIC 62a30 0 QHash<QHostAddress,QHostAddress>::findNode(QHostAddress const &,unsigned int *)
PUBLIC 63920 0 QNetworkInterfaceManager::scan()
PUBLIC 63970 0 QHash<QHostAddress,QHostAddress>::value(QHostAddress const &)
PUBLIC 63a10 0 QNetworkConfigurationManagerPrivate::qt_static_metacall(QObject *,QMetaObject::Call,int,void * *)
PUBLIC 63c10 0 QNetworkConfigurationManagerPrivate::configurationAdded(QNetworkConfiguration const &)
PUBLIC 63c40 0 QNetworkConfigurationManagerPrivate::configurationChanged(QNetworkConfiguration const &)
PUBLIC 63c70 0 QNetworkConfigurationManagerPrivate::configurationRemoved(QNetworkConfiguration const &)
PUBLIC 63ca0 0 QNetworkConfigurationManagerPrivate::configurationUpdateComplete()
PUBLIC 63cc0 0 QNetworkConfigurationManagerPrivate::metaObject()
PUBLIC 63ce0 0 QNetworkConfigurationManagerPrivate::onlineStateChanged(bool)
PUBLIC 63d10 0 QNetworkConfigurationManagerPrivate::qt_metacall(QMetaObject::Call,int,void * *)
PUBLIC 63d60 0 QNetworkConfigurationManagerPrivate::qt_metacast(char const *)
PUBLIC 63dc0 0 QAbstractSocketEngine::qt_static_metacall(QObject *,QMetaObject::Call,int,void * *)
PUBLIC 63e40 0 QAbstractSocketEngine::metaObject()
PUBLIC 63e60 0 QAbstractSocketEngine::qt_metacall(QMetaObject::Call,int,void * *)
PUBLIC 63ec0 0 QAbstractSocketEngine::qt_metacast(char const *)
PUBLIC 63f20 0 QNativeSocketEngine::QNativeSocketEngine(QObject *)
PUBLIC 63f90 0 QNativeSocketEngine::`vector deleting destructor'(unsigned int)
PUBLIC 63fc0 0 QNativeSocketEnginePrivate::`vector deleting destructor'(unsigned int)
PUBLIC 64030 0 QExceptionNotifier::`vector deleting destructor'(unsigned int)
PUBLIC 64050 0 QNativeSocketEngine::accept()
PUBLIC 64110 0 QNativeSocketEngine::bind(QHostAddress const &,unsigned short)
PUBLIC 641c0 0 QNativeSocketEngine::bytesAvailable()
PUBLIC 64220 0 QNativeSocketEnginePrivate::checkProxy(QHostAddress const &)
PUBLIC 64350 0 QNativeSocketEngine::close()
PUBLIC 64400 0 QNativeSocketEngine::connectToHost(QHostAddress const &,unsigned short)
PUBLIC 644d0 0 QNativeSocketEngine::connectToHostByName(QString const &,unsigned short)
PUBLIC 64520 0 QNativeSocketEngine::connectionNotification()
PUBLIC 64550 0 QExceptionNotifier::event(QEvent *)
PUBLIC 645c0 0 QReadNotifier::event(QEvent *)
PUBLIC 64600 0 QWriteNotifier::event(QEvent *)
PUBLIC 64670 0 QNativeSocketEngine::hasPendingDatagrams()
PUBLIC 64730 0 QNativeSocketEngine::initialize(int,QAbstractSocket::SocketState)
PUBLIC 64850 0 QNativeSocketEngine::initialize(QAbstractSocket::SocketType,QAbstractSocket::NetworkLayerProtocol)
PUBLIC 649b0 0 QNativeSocketEngine::isExceptionNotificationEnabled()
PUBLIC 649d0 0 QNativeSocketEngine::isReadNotificationEnabled()
PUBLIC 649f0 0 QNativeSocketEngine::isValid()
PUBLIC 64a00 0 QNativeSocketEngine::isWriteNotificationEnabled()
PUBLIC 64a20 0 QNativeSocketEngine::joinMulticastGroup(QHostAddress const &,QNetworkInterface const &)
PUBLIC 64b60 0 QNativeSocketEngine::leaveMulticastGroup(QHostAddress const &,QNetworkInterface const &)
PUBLIC 64c30 0 QNativeSocketEngine::listen()
PUBLIC 64cf0 0 QNativeSocketEngine::multicastInterface()
PUBLIC 64da0 0 QNativeSocketEngine::option(QAbstractSocketEngine::SocketOption)
PUBLIC 64db0 0 QNativeSocketEngine::pendingDatagramSize()
PUBLIC 64e10 0 QNativeSocketEngine::read(char *,__int64)
PUBLIC 64f30 0 QNativeSocketEngine::readDatagram(char *,__int64,QHostAddress *,unsigned short *)
PUBLIC 64fb0 0 QNativeSocketEnginePrivate::setError(QAbstractSocket::SocketError,QNativeSocketEnginePrivate::ErrorString)
PUBLIC 65610 0 QNativeSocketEngine::setExceptionNotificationEnabled(bool)
PUBLIC 65690 0 QNativeSocketEngine::setMulticastInterface(QNetworkInterface const &)
PUBLIC 65720 0 QNativeSocketEngine::setOption(QAbstractSocketEngine::SocketOption,int)
PUBLIC 65730 0 QNativeSocketEngine::setReadNotificationEnabled(bool)
PUBLIC 657b0 0 QNativeSocketEngine::setWriteNotificationEnabled(bool)
PUBLIC 65830 0 QNativeSocketEngine::socketDescriptor()
PUBLIC 65840 0 QNativeSocketEngine::waitForRead(int,bool *)
PUBLIC 65970 0 QNativeSocketEngine::waitForReadOrWrite(bool *,bool *,bool,bool,int,bool *)
PUBLIC 65c20 0 QNativeSocketEngine::waitForWrite(int,bool *)
PUBLIC 65eb0 0 QNativeSocketEngine::write(char const *,__int64)
PUBLIC 65f20 0 QNativeSocketEngine::writeDatagram(char const *,__int64,QHostAddress const &,unsigned short)
PUBLIC 65fa0 0 QForeachContainer<QList<QNetworkCookie> const >::QForeachContainer<QList<QNetworkCookie> const >(QList<QNetworkCookie> const &)
PUBLIC 66020 0 QForeachContainer<QStringList const >::QForeachContainer<QStringList const >(QStringList const &)
PUBLIC 660a0 0 QSystemLibrary::QSystemLibrary(wchar_t const *)
PUBLIC 66140 0 QWindowsSystemProxy::QWindowsSystemProxy()
PUBLIC 662a0 0 QStringMatcher::~QStringMatcher()
PUBLIC 662d0 0 QWindowsSystemProxy::~QWindowsSystemProxy()
PUBLIC 663b0 0 QHash<QString,QNetworkProxy>::createNode(unsigned int,QString const &,QNetworkProxy const &,QHashNode<QString,QNetworkProxy> * *)
PUBLIC 665f0 0 QHash<QString,QNetworkProxy>::deleteNode2(QHashData::Node *)
PUBLIC 66630 0 QHash<QString,QNetworkProxy>::duplicateNode(QHashData::Node *,void *)
PUBLIC 66820 0 QWindowsSystemProxy::init()
PUBLIC 66be0 0 `anonymous namespace'::Q_QGS_systemProxy::innerFunction()
PUBLIC 66c70 0 QHash<QString,QNetworkProxy>::insert(QString const &,QNetworkProxy const &)
PUBLIC 67e30 0 QSystemLibrary::resolve(char const *)
PUBLIC 67e70 0 QSystemLibrary::resolve(QString const &,char const *)
PUBLIC 680c0 0 QNetworkProxyFactory::systemProxyForQuery(QNetworkProxyQuery const &)
PUBLIC 685b0 0 QHash<QString,QNetworkProxy>::value(QString const &)
PUBLIC 68650 0 QSocks5BindData::QSocks5BindData()
PUBLIC 68690 0 QSocks5BindStore::QSocks5BindStore()
PUBLIC 686f0 0 QSocks5SocketEnginePrivate::QSocks5SocketEnginePrivate()
PUBLIC 68780 0 QSocks5PasswordAuthenticator::~QSocks5PasswordAuthenticator()
PUBLIC 687f0 0 QSocks5SocketEngine::~QSocks5SocketEngine()
PUBLIC 68910 0 QSocks5SocketEnginePrivate::~QSocks5SocketEnginePrivate()
PUBLIC 689d0 0 QDebug::operator<<(bool)
PUBLIC 68a10 0 QSocks5Authenticator::`vector deleting destructor'(unsigned int)
PUBLIC 68a30 0 QSocks5BindStore::`vector deleting destructor'(unsigned int)
PUBLIC 68a90 0 QSocks5PasswordAuthenticator::`vector deleting destructor'(unsigned int)
PUBLIC 68ab0 0 QSocks5SocketEngine::`vector deleting destructor'(unsigned int)
PUBLIC 68ad0 0 QSocks5SocketEnginePrivate::`vector deleting destructor'(unsigned int)
PUBLIC 68af0 0 QSocks5SocketEnginePrivate::_q_controlSocketBytesWritten()
PUBLIC 68b40 0 QSocks5SocketEnginePrivate::_q_controlSocketConnected()
PUBLIC 68cb0 0 QSocks5SocketEnginePrivate::_q_controlSocketError(QAbstractSocket::SocketError)
PUBLIC 68dd0 0 QSocks5SocketEnginePrivate::_q_controlSocketReadNotification()
PUBLIC 68ed0 0 QSocks5SocketEnginePrivate::_q_controlSocketStateChanged(QAbstractSocket::SocketState)
PUBLIC 68ee0 0 QSocks5SocketEnginePrivate::_q_emitPendingConnectionNotification()
PUBLIC 68ef0 0 QSocks5SocketEnginePrivate::_q_emitPendingReadNotification()
PUBLIC 68f80 0 QSocks5SocketEnginePrivate::_q_emitPendingWriteNotification()
PUBLIC 68fa0 0 QSocks5SocketEnginePrivate::_q_udpSocketReadNotification()
PUBLIC 69330 0 QSocks5SocketEngine::accept()
PUBLIC 69480 0 QSocks5BindStore::add(int,QSocks5BindData *)
PUBLIC 69510 0 QSocks5Authenticator::beginAuthenticate(QTcpSocket *,bool *)
PUBLIC 69520 0 QSocks5PasswordAuthenticator::beginAuthenticate(QTcpSocket *,bool *)
PUBLIC 69720 0 QSocks5SocketEngine::bind(QHostAddress const &,unsigned short)
PUBLIC 69be0 0 QSocks5SocketEngine::bytesAvailable()
PUBLIC 69c40 0 QSocks5SocketEngine::bytesToWrite()
PUBLIC 69c60 0 QSocks5SocketEngine::close()
PUBLIC 69d30 0 QSocks5SocketEngine::connectInternal()
PUBLIC 69ed0 0 QSocks5SocketEngine::connectToHost(QHostAddress const &,unsigned short)
PUBLIC 69f40 0 QSocks5SocketEngine::connectToHostByName(QString const &,unsigned short)
PUBLIC 69f90 0 QHash<int,QSockNot *>::contains(int const &)
PUBLIC 69ff0 0 QSocks5PasswordAuthenticator::continueAuthenticate(QTcpSocket *,bool *)
PUBLIC 6a090 0 QSocks5SocketEngineHandler::createSocketEngine(int,QObject *)
PUBLIC 6a150 0 QSocks5SocketEngineHandler::createSocketEngine(QAbstractSocket::SocketType,QNetworkProxy const &,QObject *)
PUBLIC 6a1d0 0 QHash<int,QSockNot *>::detach()
PUBLIC 6a230 0 QList<QSocks5RevivedDatagram>::detach_helper(int)
PUBLIC 6a2b0 0 QList<QSocks5RevivedDatagram>::detach_helper_grow(int,int)
PUBLIC 6a380 0 QSocks5SocketEnginePrivate::emitConnectionNotification()
PUBLIC 6a3d0 0 QSocks5SocketEnginePrivate::emitReadNotification()
PUBLIC 6a430 0 QSocks5SocketEnginePrivate::emitWriteNotification()
PUBLIC 6a490 0 QHash<int,QSocks5BindData *>::end()
PUBLIC 6a4f0 0 QHash<int,QSocks5BindData *>::erase(QHash<int,QSocks5BindData *>::iterator)
PUBLIC 6a5c0 0 QList<QSocks5RevivedDatagram>::erase(QList<QSocks5RevivedDatagram>::iterator)
PUBLIC 6a670 0 QSocks5Authenticator::errorString()
PUBLIC 6a680 0 QSocks5PasswordAuthenticator::errorString()
PUBLIC 6a6a0 0 QSocks5SocketEngine::hasPendingDatagrams()
PUBLIC 6a6e0 0 QSocks5SocketEngine::initialize(int,QAbstractSocket::SocketState)
PUBLIC 6a930 0 QSocks5SocketEngine::initialize(QAbstractSocket::SocketType,QAbstractSocket::NetworkLayerProtocol)
PUBLIC 6a960 0 QSocks5SocketEnginePrivate::initialize(QSocks5SocketEnginePrivate::Socks5Mode)
PUBLIC 6af80 0 `anonymous namespace'::Q_QGS_socks5BindStore::innerFunction()
PUBLIC 6b010 0 QSocks5SocketEngine::isExceptionNotificationEnabled()
PUBLIC 6b020 0 QSocks5SocketEngine::isReadNotificationEnabled()
PUBLIC 6b030 0 QSocks5SocketEngine::isValid()
PUBLIC 6b060 0 QSocks5SocketEngine::isWriteNotificationEnabled()
PUBLIC 6b070 0 QSocks5SocketEngine::listen()
PUBLIC 6b0a0 0 QSocks5PasswordAuthenticator::methodId()
PUBLIC 6b0b0 0 QList<QSocks5RevivedDatagram>::node_construct(QList<QSocks5RevivedDatagram>::Node *,QSocks5RevivedDatagram const &)
PUBLIC 6b110 0 QList<QSocks5RevivedDatagram>::node_copy(QList<QSocks5RevivedDatagram>::Node *,QList<QSocks5RevivedDatagram>::Node *,QList<QSocks5RevivedDatagram>::Node *)
PUBLIC 6b190 0 QList<QSocks5RevivedDatagram>::node_destruct(QList<QSocks5RevivedDatagram>::Node *,QList<QSocks5RevivedDatagram>::Node *)
PUBLIC 6b1f0 0 QSocks5SocketEngine::option(QAbstractSocketEngine::SocketOption)
PUBLIC 6b260 0 QSocks5SocketEnginePrivate::parseAuthenticatingReply()
PUBLIC 6b2b0 0 QSocks5SocketEnginePrivate::parseAuthenticationMethodReply()
PUBLIC 6b490 0 QSocks5SocketEnginePrivate::parseRequestMethodReply()
PUBLIC 6b7f0 0 QSocks5SocketEngine::pendingDatagramSize()
PUBLIC 6bc90 0 QSocks5SocketEngine::read(char *,__int64)
PUBLIC 6bdd0 0 QSocks5SocketEngine::readDatagram(char *,__int64,QHostAddress *,unsigned short *)
PUBLIC 6bec0 0 QSocks5SocketEnginePrivate::reauthenticate()
PUBLIC 6c330 0 QSocks5BindStore::retrieve(int)
PUBLIC 6c3f0 0 QSocks5Authenticator::seal(QByteArray,QByteArray *)
PUBLIC 6c440 0 QSocks5SocketEnginePrivate::sendRequestMethod()
PUBLIC 6c6b0 0 QSocks5SocketEnginePrivate::setErrorState(QSocks5SocketEnginePrivate::Socks5State,QString const &)
PUBLIC 6c970 0 QSocks5SocketEnginePrivate::setErrorState(QSocks5SocketEnginePrivate::Socks5State,QSocks5SocketEnginePrivate::Socks5Error)
PUBLIC 6cc50 0 QSocks5SocketEngine::setExceptionNotificationEnabled(bool)
PUBLIC 6cc60 0 QHttpSocketEngine::setMulticastInterface(QNetworkInterface const &)
PUBLIC 6ccc0 0 QSocks5SocketEngine::setOption(QAbstractSocketEngine::SocketOption,int)
PUBLIC 6cd40 0 QSocks5SocketEngine::setReadNotificationEnabled(bool)
PUBLIC 6cdc0 0 QSocks5SocketEngine::setWriteNotificationEnabled(bool)
PUBLIC 6ce00 0 QSocks5SocketEngine::socketDescriptor()
PUBLIC 6ce10 0 QHash<int,QSocks5BindData *>::take(int const &)
PUBLIC 6ceb0 0 QList<QSocks5RevivedDatagram>::takeFirst()
PUBLIC 6cf40 0 QSocks5BindStore::timerEvent(QTimerEvent *)
PUBLIC 6d040 0 QSocks5Authenticator::unSeal(QTcpSocket *,QByteArray *)
PUBLIC 6d070 0 QSocks5SocketEnginePrivate::waitForConnected(int,bool *)
PUBLIC 6d2c0 0 QSocks5SocketEngine::waitForRead(int,bool *)
PUBLIC 6d4a0 0 QSocks5SocketEngine::waitForWrite(int,bool *)
PUBLIC 6d610 0 QSocks5SocketEngine::write(char const *,__int64)
PUBLIC 6d7c0 0 QSocks5SocketEngine::writeDatagram(char const *,__int64,QHostAddress const &,unsigned short)
PUBLIC 6db70 0 QConcatenable<QStringBuilder<QStringBuilder<QByteArray,char const [3]>,QByteArray> >::appendTo<char>(QStringBuilder<QStringBuilder<QByteArray,char const [3]>,QByteArray> const &,char * &)
PUBLIC 6dbd0 0 QConcatenable<QStringBuilder<QByteArray,char const [3]> >::appendTo<char>(QStringBuilder<QByteArray,char const [3]> const &,char * &)
PUBLIC 6dc40 0 QtStringBuilder::appendToByteArray<char const [22],QByteArray>(QByteArray &,QStringBuilder<char const [22],QByteArray> const &,char)
PUBLIC 6dcc0 0 QtStringBuilder::appendToByteArray<QStringBuilder<QStringBuilder<QByteArray,char const [3]>,QByteArray>,char const [3]>(QByteArray &,QStringBuilder<QStringBuilder<QStringBuilder<QByteArray,char const [3]>,QByteArray>,char const [3]> const &,char)
PUBLIC 6dd70 0 QHttpSocketEngine::QHttpSocketEngine(QObject *)
PUBLIC 6ddb0 0 QHttpSocketEnginePrivate::QHttpSocketEnginePrivate()
PUBLIC 6de20 0 QHttpSocketEnginePrivate::~QHttpSocketEnginePrivate()
PUBLIC 6deb0 0 QHttpSocketEngine::`vector deleting destructor'(unsigned int)
PUBLIC 6dee0 0 QHttpSocketEnginePrivate::`vector deleting destructor'(unsigned int)
PUBLIC 6df00 0 QHttpSocketEngine::bytesAvailable()
PUBLIC 6df30 0 QHttpSocketEngine::bytesToWrite()
PUBLIC 6df50 0 QHttpSocketEngine::close()
PUBLIC 6df80 0 QHttpSocketEngine::connectInternal()
PUBLIC 6e0a0 0 QHttpSocketEngine::connectToHost(QHostAddress const &,unsigned short)
PUBLIC 6e100 0 QHttpSocketEngine::connectToHostByName(QString const &,unsigned short)
PUBLIC 6e150 0 QHttpSocketEngineHandler::createSocketEngine(QAbstractSocket::SocketType,QNetworkProxy const &,QObject *)
PUBLIC 6e1c0 0 QHttpSocketEngine::emitConnectionNotification()
PUBLIC 6e210 0 QHttpSocketEngine::emitPendingConnectionNotification()
PUBLIC 6e220 0 QHttpSocketEngine::emitPendingReadNotification()
PUBLIC 6e240 0 QHttpSocketEngine::emitPendingWriteNotification()
PUBLIC 6e260 0 QHttpSocketEngine::emitReadNotification()
PUBLIC 6e2d0 0 QHttpSocketEngine::emitWriteNotification()
PUBLIC 6e330 0 QHttpSocketEngine::initialize(QAbstractSocket::SocketType,QAbstractSocket::NetworkLayerProtocol)
PUBLIC 6e5b0 0 QHttpSocketEngine::isExceptionNotificationEnabled()
PUBLIC 6e5c0 0 QHttpSocketEngine::isReadNotificationEnabled()
PUBLIC 6e5d0 0 QHttpSocketEngine::isValid()
PUBLIC 6e5e0 0 QHttpSocketEngine::isWriteNotificationEnabled()
PUBLIC 6e5f0 0 QHttpSocketEngine::joinMulticastGroup(QHostAddress const &,QNetworkInterface const &)
PUBLIC 6e650 0 QHttpSocketEngine::multicastInterface()
PUBLIC 6e660 0 QHttpSocketEngine::option(QAbstractSocketEngine::SocketOption)
PUBLIC 6e6c0 0 QHttpSocketEngine::read(char *,__int64)
PUBLIC 6e790 0 QHttpSocketEngine::readDatagram(char *,__int64,QHostAddress *,unsigned short *)
PUBLIC 6e7a0 0 QHttpSocketEngine::readHttpHeader()
PUBLIC 6e930 0 QHttpSocketEngine::setExceptionNotificationEnabled(bool)
PUBLIC 6e940 0 QHttpSocketEngine::setOption(QAbstractSocketEngine::SocketOption,int)
PUBLIC 6e9b0 0 QHttpSocketEngine::setProxy(QNetworkProxy const &)
PUBLIC 6ea70 0 QHttpSocketEngine::setReadNotificationEnabled(bool)
PUBLIC 6eab0 0 QHttpSocketEngine::setWriteNotificationEnabled(bool)
PUBLIC 6eb20 0 QHttpSocketEngine::slotSocketBytesWritten()
PUBLIC 6eb40 0 QHttpSocketEngine::slotSocketConnected()
PUBLIC 6f140 0 QHttpSocketEngine::slotSocketError(QAbstractSocket::SocketError)
PUBLIC 6f320 0 QHttpSocketEngine::slotSocketReadNotification()
PUBLIC 6f910 0 QHttpSocketEngine::socketDescriptor()
PUBLIC 6f930 0 QHttpSocketEngine::waitForRead(int,bool *)
PUBLIC 6fa60 0 QHttpSocketEngine::waitForReadOrWrite(bool *,bool *,bool,bool,int,bool *)
PUBLIC 6faa0 0 QHttpSocketEngine::waitForWrite(int,bool *)
PUBLIC 6fb80 0 QHttpSocketEngine::write(char const *,__int64)
PUBLIC 6fba0 0 QHostInfoLookupManager::qt_static_metacall(QObject *,QMetaObject::Call,int,void * *)
PUBLIC 6fbc0 0 QHostInfoResult::qt_static_metacall(QObject *,QMetaObject::Call,int,void * *)
PUBLIC 6fc70 0 QAbstractHostInfoLookupManager::metaObject()
PUBLIC 6fc90 0 QHostInfoLookupManager::metaObject()
PUBLIC 6fcb0 0 QHostInfoResult::metaObject()
PUBLIC 6fcd0 0 QHostInfoLookupManager::qt_metacall(QMetaObject::Call,int,void * *)
PUBLIC 6fd30 0 QHostInfoResult::qt_metacall(QMetaObject::Call,int,void * *)
PUBLIC 6fd80 0 QAbstractHostInfoLookupManager::qt_metacast(char const *)
PUBLIC 6fde0 0 QHostInfoLookupManager::qt_metacast(char const *)
PUBLIC 6fe40 0 QHostInfoResult::qt_metacast(char const *)
PUBLIC 6fea0 0 QHostInfoResult::resultsReady(QHostInfo const &)
PUBLIC 6fed0 0 QList<QHostAddress>::contains(QHostAddress const &)
PUBLIC 6ff20 0 QHostInfoAgent::fromName(QString const &)
PUBLIC 708f0 0 operator<<<QString>(QDebug,QList<QString> const &)
PUBLIC 70a10 0 QSslCertificate::QSslCertificate(QSslCertificate const &)
PUBLIC 70a30 0 QSslCertificate::QSslCertificate(QByteArray const &,QSsl::EncodingFormat)
PUBLIC 70ac0 0 QSslCertificatePrivate::QSslCertificatePrivate()
PUBLIC 70b10 0 QMap<QByteArray,QString>::~QMap<QByteArray,QString>()
PUBLIC 70b60 0 QSslCertificate::~QSslCertificate()
PUBLIC 70b90 0 QSslCertificatePrivate::~QSslCertificatePrivate()
PUBLIC 70c90 0 QSslCertificate::operator=(QSslCertificate const &)
PUBLIC 70cf0 0 QString::operator=(QLatin1String)
PUBLIC 70d60 0 QSslCertificate::clear()
PUBLIC 70dd0 0 QMapNode<QByteArray,QString>::destroySubTree()
PUBLIC 70e40 0 QSslCertificate::isBlacklisted()
PUBLIC 70e50 0 QSslCertificatePrivate::isBlacklisted(QSslCertificate const &)
PUBLIC 71090 0 QSslCertificatePrivate::subjectInfoToString(QSslCertificate::SubjectInfo)
PUBLIC 71250 0 QStringBuilder<QStringBuilder<char const [29],QByteArray>,char const [27]>::convertTo<QByteArray>()
PUBLIC 712c0 0 QMap<QByteArray,QString>::QMap<QByteArray,QString>(QMap<QByteArray,QString> const &)
PUBLIC 71330 0 QList<QVariant>::~QList<QVariant>()
PUBLIC 71360 0 QMap<QByteArray,QString>::operator=(QMap<QByteArray,QString> const &)
PUBLIC 713d0 0 QSslCertificatePrivate::operator=(QSslCertificatePrivate const &)
PUBLIC 71440 0 QSslCertificate::operator==(QSslCertificate const &)
PUBLIC 71490 0 QSslCertificatePrivate::QByteArray_from_X509(x509_st *,QSsl::EncodingFormat)
PUBLIC 71840 0 QSslCertificatePrivate::QSslCertificate_from_X509(x509_st *)
PUBLIC 71ad0 0 QList<QVariant>::append(QVariant const &)
PUBLIC 71b40 0 QSslCertificatePrivate::certificatesFromDer(QByteArray const &,int)
PUBLIC 71c40 0 QSslCertificatePrivate::certificatesFromPem(QByteArray const &,int)
PUBLIC 71e70 0 QMapNode<QByteArray,QByteArray>::copy(QMapData<QByteArray,QByteArray> *)
PUBLIC 71f30 0 QMapNode<QString,QVariant>::copy(QMapData<QString,QVariant> *)
PUBLIC 71fe0 0 QMapNode<QSsl::AlternativeNameEntryType,QString>::copy(QMapData<QSsl::AlternativeNameEntryType,QString> *)
PUBLIC 72090 0 QList<QVariant>::dealloc(QListData::Data *)
PUBLIC 720e0 0 QMapNode<QString,QVariant>::destroySubTree()
PUBLIC 72130 0 QList<QSslCertificate>::detach_helper(int)
PUBLIC 721d0 0 QMap<QByteArray,QString>::detach_helper()
PUBLIC 72250 0 QMap<QSsl::AlternativeNameEntryType,QString>::detach_helper()
PUBLIC 722d0 0 QList<QVariant>::detach_helper_grow(int,int)
PUBLIC 72380 0 QSslCertificate::expiryDate()
PUBLIC 723a0 0 QSslCertificate::handle()
PUBLIC 723b0 0 QSslCertificatePrivate::init(QByteArray const &,QSsl::EncodingFormat)
PUBLIC 72480 0 QMap<QByteArray,QString>::insertMulti(QByteArray const &,QString const &)
PUBLIC 72540 0 QMap<QSsl::AlternativeNameEntryType,QString>::insertMulti(QSsl::AlternativeNameEntryType const &,QString const &)
PUBLIC 725e0 0 QSslCertificate::isNull()
PUBLIC 725f0 0 QSslCertificate::issuerInfo(QSslCertificate::SubjectInfo)
PUBLIC 72710 0 QMapNode<QByteArray,QString>::lowerBound(QByteArray const &)
PUBLIC 727c0 0 QList<QVariant>::node_copy(QList<QVariant>::Node *,QList<QVariant>::Node *,QList<QVariant>::Node *)
PUBLIC 72800 0 QSslCertificate::serialNumber()
PUBLIC 729a0 0 QSslCertificate::subjectAlternativeNames()
PUBLIC 72c30 0 QSslCertificate::subjectInfo(QSslCertificate::SubjectInfo)
PUBLIC 72d50 0 QSslCertificate::toDer()
PUBLIC 72dc0 0 QMap<QByteArray,QString>::values(QByteArray const &)
PUBLIC 72eb0 0 QForeachContainer<QList<QSslCipher> >::QForeachContainer<QList<QSslCipher> >(QList<QSslCipher> const &)
PUBLIC 72f30 0 QSslCipher::QSslCipher(QSslCipher const &)
PUBLIC 72fb0 0 QSslCipher::QSslCipher()
PUBLIC 73010 0 QSslCipher::~QSslCipher()
PUBLIC 73030 0 QSslCipherPrivate::~QSslCipherPrivate()
PUBLIC 73110 0 QSslCipher::operator=(QSslCipher const &)
PUBLIC 73130 0 QSslCipherPrivate::operator=(QSslCipherPrivate const &)
PUBLIC 731a0 0 QSslCipher::operator==(QSslCipher const &)
PUBLIC 731e0 0 QSslCipher::name()
PUBLIC 73210 0 QSslCipher::usedBits()
PUBLIC 73220 0 QSslKey::QSslKey(QSslKey const &)
PUBLIC 73240 0 QSslKey::QSslKey()
PUBLIC 732a0 0 QMap<QByteArray,QByteArray>::~QMap<QByteArray,QByteArray>()
PUBLIC 732f0 0 QSslKey::~QSslKey()
PUBLIC 73320 0 QSslKey::operator=(QSslKey const &)
PUBLIC 73380 0 QSslKey::operator==(QSslKey const &)
PUBLIC 73480 0 QSslKey::algorithm()
PUBLIC 73490 0 QMapData<QByteArray,QByteArray>::createNode(QByteArray const &,QByteArray const &,QMapNode<QByteArray,QByteArray> *,bool)
PUBLIC 734f0 0 QSslKeyPrivate::derFromPem(QByteArray const &,QMap<QByteArray,QByteArray> *)
PUBLIC 739e0 0 QMapNode<QByteArray,QByteArray>::destroySubTree()
PUBLIC 73a50 0 QMap<QByteArray,QByteArray>::detach_helper()
PUBLIC 73ad0 0 QSslKey::handle()
PUBLIC 73ae0 0 QMap<QByteArray,QByteArray>::insert(QByteArray const &,QByteArray const &)
PUBLIC 73ba0 0 QSslKey::toDer(QByteArray const &)
PUBLIC 73c40 0 QForeachContainer<QList<QSslCertificate> >::QForeachContainer<QList<QSslCertificate> >(QList<QSslCertificate> const &)
PUBLIC 73cc0 0 QList<QPair<int,int> >::QList<QPair<int,int> >(QList<QPair<int,int> > const &)
PUBLIC 73d30 0 QSharedPointer<QSslContext>::QSharedPointer<QSslContext>(QSslContext *)
PUBLIC 73d90 0 QOpenSslLocks::QOpenSslLocks()
PUBLIC 73e10 0 QSslSocketBackendPrivate::QSslSocketBackendPrivate()
PUBLIC 73e70 0 QWindowsCaRootFetcherThread::QWindowsCaRootFetcherThread()
PUBLIC 73ee0 0 QOpenSslLocks::~QOpenSslLocks()
PUBLIC 73f80 0 QList<QPair<int,int> >::operator+=(QList<QPair<int,int> > const &)
PUBLIC 7401b 0 [thunk]:QSslSocketBackendPrivate::`vector deleting destructor'`adjustor{136}' (unsigned int)
PUBLIC 74030 0 QSslSocketBackendPrivate::`vector deleting destructor'(unsigned int)
PUBLIC 74070 0 QWindowsCaRootFetcher::`vector deleting destructor'(unsigned int)
PUBLIC 740a0 0 QWindowsCaRootFetcherThread::`vector deleting destructor'(unsigned int)
PUBLIC 740e0 0 QSslSocketBackendPrivate::QSslCipher_from_SSL_CIPHER(ssl_cipher_st *)
PUBLIC 74530 0 QSslSocketBackendPrivate::STACKOFX509_to_QSslCertificates(stack_st_X509 *)
PUBLIC 74960 0 QSslSocketBackendPrivate::_q_caRootLoaded(QSslCertificate,QSslCertificate)
PUBLIC 74a70 0 QList<QPair<int,int> >::append(QPair<int,int> const &)
PUBLIC 74ae0 0 QSslSocketBackendPrivate::checkSslErrors()
PUBLIC 74bc0 0 QSharedPointer<QNetworkSession>::clear()
PUBLIC 74c00 0 QSslSocketBackendPrivate::continueHandshake()
PUBLIC 74df0 0 QtSharedPointer::ExternalRefCountWithCustomDeleter<QSslContext,QtSharedPointer::NormalDeleter>::deleter(QtSharedPointer::ExternalRefCountData *)
PUBLIC 74e10 0 QSslSocketBackendPrivate::destroySslContext()
PUBLIC 74e80 0 QList<QPair<int,int> >::detach_helper_grow(int,int)
PUBLIC 74f70 0 QList<QSslError>::detach_helper_grow(int,int)
PUBLIC 75080 0 QSslSocketBackendPrivate::disconnectFromHost()
PUBLIC 750c0 0 QSslSocketBackendPrivate::disconnected()
PUBLIC 750f0 0 QSslSocketPrivate::ensureCiphersAndCertsLoaded()
PUBLIC 75220 0 QSslSocketPrivate::ensureInitialized()
PUBLIC 75230 0 QSslSocketPrivate::ensureLibraryLoaded()
PUBLIC 75350 0 QSslSocketBackendPrivate::fetchCaRootForCert(QSslCertificate const &)
PUBLIC 75430 0 QSslSocketBackendPrivate::getErrorsFromOpenSsl()
PUBLIC 754f0 0 QSslSocketBackendPrivate::initSslContext()
PUBLIC 75a60 0 `anonymous namespace'::Q_QGS__q_sslErrorList::innerFunction()
PUBLIC 75b00 0 `anonymous namespace'::Q_QGS_openssl_locks::innerFunction()
PUBLIC 75b90 0 `anonymous namespace'::Q_QGS_windowsCaRootFetcherThread::innerFunction()
PUBLIC 75c20 0 QOpenSslLocks::lock(int)
PUBLIC 75c90 0 QList<QPair<int,int> >::node_copy(QList<QPair<int,int> >::Node *,QList<QPair<int,int> >::Node *,QList<QPair<int,int> >::Node *)
PUBLIC 75ce0 0 q_X509Callback(int,x509_store_ctx_st *)
PUBLIC 75d40 0 QVarLengthArray<char,4096>::realloc(int,int)
PUBLIC 75dd0 0 QList<QSslError>::removeAt(int)
PUBLIC 75e20 0 QSslSocketPrivate::resetDefaultCiphers()
PUBLIC 76050 0 QSslSocketBackendPrivate::sessionCipher()
PUBLIC 760e0 0 QSslSocketBackendPrivate::sessionProtocol()
PUBLIC 76130 0 QSslSocketBackendPrivate::setupOpenSslOptions(QSsl::SslProtocol,QFlags<QSsl::SslOption>)
PUBLIC 76190 0 QWindowsCaRootFetcher::start()
PUBLIC 763b0 0 QSslSocketBackendPrivate::startClientEncryption()
PUBLIC 764d0 0 QSslSocketBackendPrivate::startHandshake()
PUBLIC 77120 0 QSslSocketPrivate::supportsSsl()
PUBLIC 77130 0 QSslSocketPrivate::systemCaCertificates()
PUBLIC 77280 0 QSslSocketBackendPrivate::transmit()
PUBLIC 77ce0 0 QNetworkAccessCache::qt_static_metacall(QObject *,QMetaObject::Call,int,void * *)
PUBLIC 77d90 0 QNetworkAccessCache::entryReady(QNetworkAccessCache::CacheableObject *)
PUBLIC 77dc0 0 QNetworkAccessCache::metaObject()
PUBLIC 77de0 0 QNetworkAccessCache::qt_metacall(QMetaObject::Call,int,void * *)
PUBLIC 77e40 0 QNetworkAccessCache::qt_metacast(char const *)
PUBLIC 77ea0 0 QMetaTypeId<QNetworkAccessCache::CacheableObject *>::qt_metatype_id()
PUBLIC 77f30 0 QNetworkCacheMetaData::QNetworkCacheMetaData()
PUBLIC 77f90 0 QNetworkCacheMetaDataPrivate::QNetworkCacheMetaDataPrivate(QNetworkCacheMetaDataPrivate const &)
PUBLIC 78050 0 QNetworkCacheMetaDataPrivate::QNetworkCacheMetaDataPrivate()
PUBLIC 78090 0 QNetworkCacheMetaData::~QNetworkCacheMetaData()
PUBLIC 780c0 0 QNetworkCacheMetaDataPrivate::~QNetworkCacheMetaDataPrivate()
PUBLIC 78150 0 QHash<QNetworkRequest::Attribute,QVariant>::operator=(QHash<QNetworkRequest::Attribute,QVariant> const &)
PUBLIC 781c0 0 QNetworkCacheMetaData::operator=(QNetworkCacheMetaData const &)
PUBLIC 78210 0 QNetworkCacheMetaData::operator==(QNetworkCacheMetaData const &)
PUBLIC 78240 0 QNetworkCacheMetaDataPrivate::operator==(QNetworkCacheMetaDataPrivate const &)
PUBLIC 782a0 0 QNetworkCacheMetaData::attributes()
PUBLIC 782e0 0 QSharedDataPointer<QNetworkCacheMetaDataPrivate>::detach_helper()
PUBLIC 78340 0 QNetworkCacheMetaData::expirationDate()
PUBLIC 78360 0 `anonymous namespace'::Q_QGS_metadata_shared_invalid::innerFunction()
PUBLIC 783f0 0 QNetworkCacheMetaData::isValid()
PUBLIC 78470 0 QNetworkCacheMetaData::lastModified()
PUBLIC 78490 0 QNetworkCacheMetaData::rawHeaders()
PUBLIC 78500 0 QNetworkCacheMetaData::saveToDisk()
PUBLIC 78510 0 QNetworkCacheMetaData::setAttributes(QHash<QNetworkRequest::Attribute,QVariant> const &)
PUBLIC 78540 0 QNetworkCacheMetaData::setExpirationDate(QDateTime const &)
PUBLIC 78570 0 QNetworkCacheMetaData::setLastModified(QDateTime const &)
PUBLIC 785a0 0 QNetworkCacheMetaData::setRawHeaders(QList<QPair<QByteArray,QByteArray> > const &)
PUBLIC 785d0 0 QNetworkCacheMetaData::setSaveToDisk(bool)
PUBLIC 78600 0 QNetworkCacheMetaData::setUrl(QUrl const &)
PUBLIC 786e0 0 QNetworkAccessBackend::qt_static_metacall(QObject *,QMetaObject::Call,int,void * *)
PUBLIC 78890 0 QNetworkAccessBackend::metaObject()
PUBLIC 788b0 0 QNetworkAccessBackend::qt_metacall(QMetaObject::Call,int,void * *)
PUBLIC 78900 0 QNetworkAccessBackend::qt_metacast(char const *)
PUBLIC 78960 0 QMetaTypeIdQObject<QIODevice *,1>::qt_metatype_id()
PUBLIC 78a30 0 QNetworkCookieJar::metaObject()
PUBLIC 78a50 0 QNetworkCookieJar::qt_metacast(char const *)
PUBLIC 78ab0 0 QFtpDTP::qt_static_metacall(QObject *,QMetaObject::Call,int,void * *)
PUBLIC 78c20 0 QFtpPI::qt_static_metacall(QObject *,QMetaObject::Call,int,void * *)
PUBLIC 78da0 0 QFtp::qt_static_metacall(QObject *,QMetaObject::Call,int,void * *)
PUBLIC 78f90 0 operator+=<QLatin1Char,QString>(QString &,QStringBuilder<QLatin1Char,QString> const &)
PUBLIC 79060 0 operator+=<QStringBuilder<QStringBuilder<QLatin1Char,QString>,QLatin1Char>,QString>(QString &,QStringBuilder<QStringBuilder<QStringBuilder<QLatin1Char,QString>,QLatin1Char>,QString> const &)
PUBLIC 79130 0 QConcatenable<QStringBuilder<QStringBuilder<QStringBuilder<QLatin1Char,QString>,QLatin1Char>,QString> >::appendTo<QChar>(QStringBuilder<QStringBuilder<QStringBuilder<QLatin1Char,QString>,QLatin1Char>,QString> const &,QChar * &)
PUBLIC 791b0 0 QConcatenable<QStringBuilder<QStringBuilder<QStringBuilder<QStringBuilder<QStringBuilder<QStringBuilder<QString,QLatin1Char>,QString>,QLatin1Char>,QString>,QLatin1Char>,QString> >::appendTo<QChar>(QStringBuilder<QStringBuilder<QStringBuilder<QStringBuilder<QStringBuilder<QStringBuilder<QString,QLatin1Char>,QString>,QLatin1Char>,QString>,QLatin1Char>,QString> const &,QChar * &)
PUBLIC 79220 0 QConcatenable<QStringBuilder<QStringBuilder<QStringBuilder<QLatin1String,QString>,QLatin1Char>,QString> >::appendTo<QChar>(QStringBuilder<QStringBuilder<QStringBuilder<QLatin1String,QString>,QLatin1Char>,QString> const &,QChar * &)
PUBLIC 792a0 0 QConcatenable<QStringBuilder<QStringBuilder<QStringBuilder<QString,QLatin1Char>,QString>,QLatin1Char> >::appendTo<QChar>(QStringBuilder<QStringBuilder<QStringBuilder<QString,QLatin1Char>,QString>,QLatin1Char> const &,QChar * &)
PUBLIC 79320 0 QStringBuilder<QStringBuilder<QLatin1String,QString>,QLatin1String>::convertTo<QString>()
PUBLIC 793c0 0 QStringBuilder<QString,QLatin1String>::convertTo<QString>()
PUBLIC 79430 0 QFtp::QFtp(QObject *)
PUBLIC 795d0 0 QFtpCommand::QFtpCommand(QFtp::Command,QStringList,QIODevice *)
PUBLIC 796a0 0 QFtpDTP::QFtpDTP(QFtpPI *,QObject *)
PUBLIC 79770 0 QFtpPI::QFtpPI(QObject *)
PUBLIC 79900 0 QFtpPrivate::QFtpPrivate()
PUBLIC 79970 0 QFtp::~QFtp()
PUBLIC 799b0 0 QFtpCommand::~QFtpCommand()
PUBLIC 79a40 0 QFtpDTP::~QFtpDTP()
PUBLIC 79ab0 0 QFtpPI::~QFtpPI()
PUBLIC 79b90 0 QFtpPrivate::~QFtpPrivate()
PUBLIC 79de0 0 QCharRef::operator=(unsigned short)
PUBLIC 79e30 0 QStringBuilder<QStringBuilder<QStringBuilder<QLatin1String,QString>,QLatin1Char>,QString>::operator QString()
PUBLIC 79e90 0 QStringBuilder<QString,QLatin1String>::operator QString()
PUBLIC 79ea0 0 QFtp::`vector deleting destructor'(unsigned int)
PUBLIC 79ef0 0 QFtpDTP::`vector deleting destructor'(unsigned int)
PUBLIC 79f10 0 QFtpPI::`vector deleting destructor'(unsigned int)
PUBLIC 79f30 0 QFtpPrivate::`vector deleting destructor'(unsigned int)
PUBLIC 7aa90 0 QFtpPrivate::_q_piConnectState(int)
PUBLIC 7ab30 0 QFtpPrivate::_q_piError(int,QString const &)
PUBLIC 7b160 0 QFtpPrivate::_q_piFinished(QString const &)
PUBLIC 7b2c0 0 QFtpPrivate::_q_piFtpReply(int,QString const &)
PUBLIC 7b350 0 QFtpPrivate::_q_startNextCommand()
PUBLIC 7b950 0 QFtp::abort()
PUBLIC 7b980 0 QFtpPI::abort()
PUBLIC 7ba60 0 QFtpPrivate::addCommand(QFtpCommand *)
PUBLIC 7bad0 0 QFtp::bytesAvailable()
PUBLIC 7bb00 0 QList<QString>::clear()
PUBLIC 7bb50 0 QFtpDTP::clearError()
PUBLIC 7bb90 0 QFtp::clearPendingCommands()
PUBLIC 7bd30 0 QFtpPI::clearPendingCommands()
PUBLIC 7bde0 0 QFtp::close()
PUBLIC 7be80 0 QFtp::commandFinished(int,bool)
PUBLIC 7bed0 0 QFtp::commandStarted(int)
PUBLIC 7bf00 0 QFtpDTP::connectState(int)
PUBLIC 7bf30 0 QFtpPI::connectState(int)
PUBLIC 7bf60 0 QFtp::connectToHost(QString const &,unsigned short)
PUBLIC 7c060 0 QFtpDTP::connectToHost(QString const &,unsigned short)
PUBLIC 7c200 0 QFtpPI::connectToHost(QString const &,unsigned short)
PUBLIC 7c2b0 0 QFtpPI::connected()
PUBLIC 7c320 0 QFtpPI::connectionClosed()
PUBLIC 7c370 0 QFtp::currentId()
PUBLIC 7c390 0 QString::data()
PUBLIC 7c3c0 0 QFtp::dataTransferProgress(__int64,__int64)
PUBLIC 7c410 0 QFtpDTP::dataTransferProgress(__int64,__int64)
PUBLIC 7c460 0 QFtpPI::delayedCloseFinished()
PUBLIC 7c490 0 QFtp::done(bool)
PUBLIC 7c4c0 0 QFtpPI::dtpConnectState(int)
PUBLIC 7c5e0 0 QFtp::error()
PUBLIC 7c5f0 0 QFtpPI::error(QAbstractSocket::SocketError)
PUBLIC 7c8b0 0 QFtpPI::error(int,QString const &)
PUBLIC 7c900 0 QFtp::errorString()
PUBLIC 7c930 0 QFtpPI::finished(QString const &)
PUBLIC 7c960 0 QFtp::get(QString const &,QIODevice *,QFtp::TransferType)
PUBLIC 7cbe0 0 QFtpPI::hostFound()
PUBLIC 7cc10 0 QFtp::listInfo(QUrlInfo const &)
PUBLIC 7cc40 0 QFtpDTP::listInfo(QUrlInfo const &)
PUBLIC 7cc70 0 QFtp::login(QString const &,QString const &)
PUBLIC 7cf80 0 QFtp::metaObject()
PUBLIC 7cfa0 0 QFtpDTP::metaObject()
PUBLIC 7cfc0 0 QFtpPI::metaObject()
PUBLIC 7cfe0 0 QFtpDTP::parseDir(QByteArray const &,QString const &,QUrlInfo *)
PUBLIC 7d1c0 0 QList<QString>::pop_front()
PUBLIC 7d200 0 QList<QString>::prepend(QString const &)
PUBLIC 7d270 0 QFtpPI::processReply()
PUBLIC 7d8d0 0 QFtp::put(QIODevice *,QString const &,QFtp::TransferType)
PUBLIC 7dbb0 0 QFtp::qt_metacall(QMetaObject::Call,int,void * *)
PUBLIC 7dc10 0 QFtpDTP::qt_metacall(QMetaObject::Call,int,void * *)
PUBLIC 7dc60 0 QFtpPI::qt_metacall(QMetaObject::Call,int,void * *)
PUBLIC 7dcb0 0 QFtp::qt_metacast(char const *)
PUBLIC 7dd10 0 QFtpDTP::qt_metacast(char const *)
PUBLIC 7dd70 0 QFtpPI::qt_metacast(char const *)
PUBLIC 7ddd0 0 QFtp::rawCommand(QString const &)
PUBLIC 7df10 0 QFtp::rawCommandReply(int,QString const &)
PUBLIC 7df60 0 QFtpPI::rawFtpReply(int,QString const &)
PUBLIC 7dfb0 0 QFtp::readAll()
PUBLIC 7dfd0 0 QFtpDTP::readAll()
PUBLIC 7e060 0 QFtp::readyRead()
PUBLIC 7e080 0 QFtpDTP::readyRead()
PUBLIC 7e0a0 0 QFtpPI::readyRead()
PUBLIC 7e7a0 0 QList<QFtpCommand *>::removeFirst()
PUBLIC 7e7e0 0 QString::reserve(int)
PUBLIC 7e830 0 QFtpPI::sendCommands(QStringList const &)
PUBLIC 7e920 0 QFtpDTP::setBytesTotal(__int64)
PUBLIC 7e9a0 0 QFtp::setProxy(QString const &,unsigned short)
PUBLIC 7ea90 0 QFtpDTP::setupListener(QHostAddress const &)
PUBLIC 7eb00 0 QFtpDTP::setupSocket()
PUBLIC 7ec30 0 QFtpDTP::socketBytesWritten(__int64)
PUBLIC 7ecc0 0 QFtpDTP::socketConnected()
PUBLIC 7ed00 0 QFtpDTP::socketConnectionClosed()
PUBLIC 7eda0 0 QFtpDTP::socketError(QAbstractSocket::SocketError)
PUBLIC 7edf0 0 QFtpDTP::socketReadyRead()
PUBLIC 7f250 0 QFtpPI::startNextCmd()
PUBLIC 7f710 0 QFtp::state()
PUBLIC 7f720 0 QFtp::stateChanged(int)
PUBLIC 7f750 0 QFtpDTP::waitForConnection()
PUBLIC 7f770 0 QFtpDTP::writeData()
PUBLIC 7f8e0 0 QNetworkAccessFtpBackend::qt_static_metacall(QObject *,QMetaObject::Call,int,void * *)
PUBLIC 7f980 0 QNetworkAccessFtpBackend::metaObject()
PUBLIC 7f9a0 0 QNetworkAccessFtpBackend::qt_metacall(QMetaObject::Call,int,void * *)
PUBLIC 7f9f0 0 QNetworkAccessFtpBackend::qt_metacast(char const *)
PUBLIC 7fa50 0 QNetworkAccessFileBackend::qt_static_metacall(QObject *,QMetaObject::Call,int,void * *)
PUBLIC 7fa70 0 QNetworkAccessFileBackend::metaObject()
PUBLIC 7fa90 0 QNetworkAccessFileBackend::qt_metacall(QMetaObject::Call,int,void * *)
PUBLIC 7faf0 0 QNetworkAccessFileBackend::qt_metacast(char const *)
PUBLIC 7fb50 0 QHttpNetworkHeaderPrivate::QHttpNetworkHeaderPrivate(QHttpNetworkHeaderPrivate const &)
PUBLIC 7fba0 0 QHttpNetworkHeaderPrivate::QHttpNetworkHeaderPrivate(QUrl const &)
PUBLIC 7fbd0 0 QHttpNetworkHeaderPrivate::operator==(QHttpNetworkHeaderPrivate const &)
PUBLIC 7fbf0 0 QHttpNetworkHeaderPrivate::contentLength()
PUBLIC 7fcb0 0 QHttpNetworkHeaderPrivate::headerField(QByteArray const &,QByteArray const &)
PUBLIC 7fe80 0 QHttpNetworkHeaderPrivate::headerFieldValues(QByteArray const &)
PUBLIC 7ff50 0 QHttpNetworkHeaderPrivate::setContentLength(__int64)
PUBLIC 7fff0 0 QHttpNetworkHeaderPrivate::setHeaderField(QByteArray const &,QByteArray const &)
PUBLIC 801e0 0 QNetworkReplyHttpImpl::qt_static_metacall(QObject *,QMetaObject::Call,int,void * *)
PUBLIC 806e0 0 QNetworkReplyHttpImpl::abortHttpRequest()
PUBLIC 80700 0 QNetworkReplyHttpImpl::haveUploadData(QByteArray,bool,__int64)
PUBLIC 80780 0 QNetworkReplyHttpImpl::metaObject()
PUBLIC 807a0 0 QNetworkReplyHttpImpl::qt_metacall(QMetaObject::Call,int,void * *)
PUBLIC 807f0 0 QNetworkReplyHttpImpl::qt_metacast(char const *)
PUBLIC 80850 0 QNetworkReplyHttpImpl::readBufferFreed(__int64)
PUBLIC 80880 0 QNetworkReplyHttpImpl::readBufferSizeChanged(__int64)
PUBLIC 808b0 0 QNetworkReplyHttpImpl::startHttpRequest()
PUBLIC 808d0 0 QNetworkReplyHttpImpl::startHttpRequestSynchronously()
PUBLIC 808f0 0 QHttpThreadDelegate::QHttpThreadDelegate(QObject *)
PUBLIC 80a30 0 QNetworkAccessCachedHttpConnection::QNetworkAccessCachedHttpConnection(QString const &,unsigned short,bool,QHttpNetworkConnection::ConnectionType,QSharedPointer<QNetworkSession>)
PUBLIC 80ad0 0 QHttpThreadDelegate::~QHttpThreadDelegate()
PUBLIC 80d27 0 [thunk]:QNetworkAccessCachedHttpConnection::`vector deleting destructor'`adjustor{8}' (unsigned int)
PUBLIC 80d30 0 QHttpThreadDelegate::`vector deleting destructor'(unsigned int)
PUBLIC 80d50 0 QNetworkAccessCachedHttpConnection::`vector deleting destructor'(unsigned int)
PUBLIC 80d80 0 QHttpThreadDelegate::abortRequest()
PUBLIC 80e00 0 QHttpThreadDelegate::cacheCredentialsSlot(QHttpNetworkRequest const &,QAuthenticator *)
PUBLIC 80e30 0 QHttpThreadDelegate::dataReadProgressSlot(__int64,__int64)
PUBLIC 80e60 0 QThreadStorage<QNetworkAccessCache *>::deleteData(void *)
PUBLIC 80e70 0 QNetworkAccessCachedHttpConnection::dispose()
PUBLIC 80e90 0 QHttpThreadDelegate::encryptedSlot()
PUBLIC 80ea0 0 QHttpThreadDelegate::finishedSlot()
PUBLIC 81130 0 QHttpThreadDelegate::finishedWithErrorSlot(QNetworkReply::NetworkError,QString const &)
PUBLIC 81220 0 QHttpThreadDelegate::headerChangedSlot()
PUBLIC 81920 0 QHttpThreadDelegate::readBufferFreed(__int64)
PUBLIC 81980 0 QHttpThreadDelegate::readBufferSizeChanged(__int64)
PUBLIC 819d0 0 QHttpThreadDelegate::readyReadSlot()
PUBLIC 81b40 0 QHttpThreadDelegate::sslErrorsSlot(QList<QSslError> const &)
PUBLIC 81bc0 0 QHttpThreadDelegate::startRequest()
PUBLIC 821f0 0 QHttpThreadDelegate::startRequestSynchronously()
PUBLIC 824b0 0 QHttpThreadDelegate::synchronousAuthenticationRequiredSlot(QHttpNetworkRequest const &,QAuthenticator *)
PUBLIC 82560 0 QHttpThreadDelegate::synchronousFinishedSlot()
PUBLIC 827c0 0 QHttpThreadDelegate::synchronousFinishedWithErrorSlot(QNetworkReply::NetworkError,QString const &)
PUBLIC 82880 0 QHttpThreadDelegate::synchronousHeaderChangedSlot()
PUBLIC 82980 0 QHttpThreadDelegate::synchronousProxyAuthenticationRequiredSlot(QNetworkProxy const &,QAuthenticator *)
PUBLIC 82a10 0 QHttpThreadDelegate::qt_static_metacall(QObject *,QMetaObject::Call,int,void * *)
PUBLIC 82f90 0 QNonContiguousByteDeviceThreadForwardImpl::qt_static_metacall(QObject *,QMetaObject::Call,int,void * *)
PUBLIC 83060 0 QHttpThreadDelegate::authenticationRequired(QHttpNetworkRequest const &,QAuthenticator *)
PUBLIC 830c0 0 QHttpThreadDelegate::downloadData(QByteArray)
PUBLIC 83120 0 QHttpThreadDelegate::downloadFinished()
PUBLIC 83140 0 QHttpThreadDelegate::downloadMetaData(QList<QPair<QByteArray,QByteArray> >,int,QString,bool,QSharedPointer<char>,__int64,bool)
PUBLIC 83260 0 QHttpThreadDelegate::downloadProgress(__int64,__int64)
PUBLIC 832b0 0 QHttpThreadDelegate::encrypted()
PUBLIC 832d0 0 QHttpThreadDelegate::error(QNetworkReply::NetworkError,QString)
PUBLIC 83350 0 QNonContiguousByteDeviceThreadForwardImpl::haveDataSlot(QByteArray,bool,__int64)
PUBLIC 833d0 0 QHttpThreadDelegate::metaObject()
PUBLIC 833f0 0 QNonContiguousByteDeviceThreadForwardImpl::metaObject()
PUBLIC 83410 0 QNonContiguousByteDeviceThreadForwardImpl::processedData(__int64)
PUBLIC 83440 0 QHttpThreadDelegate::proxyAuthenticationRequired(QNetworkProxy const &,QAuthenticator *)
PUBLIC 834a0 0 QHttpThreadDelegate::qt_metacall(QMetaObject::Call,int,void * *)
PUBLIC 834f0 0 QNonContiguousByteDeviceThreadForwardImpl::qt_metacall(QMetaObject::Call,int,void * *)
PUBLIC 83550 0 QHttpThreadDelegate::qt_metacast(char const *)
PUBLIC 835b0 0 QNonContiguousByteDeviceThreadForwardImpl::qt_metacast(char const *)
PUBLIC 83610 0 QNonContiguousByteDeviceThreadForwardImpl::resetData(bool *)
PUBLIC 83640 0 QHttpThreadDelegate::sslConfigurationChanged(QSslConfiguration)
PUBLIC 83680 0 QHttpThreadDelegate::sslErrors(QList<QSslError> const &,bool *,QList<QSslError> *)
PUBLIC 836f0 0 QNonContiguousByteDeviceThreadForwardImpl::wantData(__int64)
PUBLIC 83720 0 QNativeSocketEngine::qt_static_metacall(QObject *,QMetaObject::Call,int,void * *)
PUBLIC 83740 0 QNativeSocketEngine::metaObject()
PUBLIC 83760 0 QNativeSocketEngine::qt_metacall(QMetaObject::Call,int,void * *)
PUBLIC 837c0 0 QNativeSocketEngine::qt_metacast(char const *)
PUBLIC 83820 0 QWindowsSockInit::QWindowsSockInit()
PUBLIC 838b0 0 QWindowsSockInit::~QWindowsSockInit()
PUBLIC 838c0 0 QNativeSocketEnginePrivate::createNewSocket(QAbstractSocket::SocketType,QAbstractSocket::NetworkLayerProtocol &)
PUBLIC 83a20 0 QNativeSocketEnginePrivate::fetchConnectionParameters()
PUBLIC 83bf0 0 QList<QNetworkAddressEntry>::first()
PUBLIC 83dc0 0 QNativeSocketEnginePrivate::nativeAccept()
PUBLIC 83f50 0 QNativeSocketEnginePrivate::nativeBind(QHostAddress const &,unsigned short)
PUBLIC 84170 0 QNativeSocketEnginePrivate::nativeBytesAvailable()
PUBLIC 84230 0 QNativeSocketEnginePrivate::nativeClose()
PUBLIC 84240 0 QNativeSocketEnginePrivate::nativeConnect(QHostAddress const &,unsigned short)
PUBLIC 84490 0 QNativeSocketEnginePrivate::nativeHasPendingDatagrams()
PUBLIC 845a0 0 QNativeSocketEnginePrivate::nativeJoinMulticastGroup(QHostAddress const &,QNetworkInterface const &)
PUBLIC 845c0 0 QNativeSocketEnginePrivate::nativeLeaveMulticastGroup(QHostAddress const &,QNetworkInterface const &)
PUBLIC 845e0 0 QNativeSocketEnginePrivate::nativeListen(int)
PUBLIC 84620 0 QNativeSocketEnginePrivate::nativeMulticastInterface()
PUBLIC 847f0 0 QNativeSocketEnginePrivate::nativePendingDatagramSize()
PUBLIC 848c0 0 QNativeSocketEnginePrivate::nativeRead(char *,__int64)
PUBLIC 84980 0 QNativeSocketEnginePrivate::nativeReceiveDatagram(char *,__int64,QHostAddress *,unsigned short *)
PUBLIC 84aa0 0 QNativeSocketEnginePrivate::nativeSelect(int,bool,bool,bool *,bool *)
PUBLIC 84c50 0 QNativeSocketEnginePrivate::nativeSelect(int,bool)
PUBLIC 84d80 0 QNativeSocketEnginePrivate::nativeSendDatagram(char const *,__int64,QHostAddress const &,unsigned short)
PUBLIC 84e80 0 QNativeSocketEnginePrivate::nativeSetMulticastInterface(QNetworkInterface const &)
PUBLIC 85010 0 QNativeSocketEnginePrivate::nativeWrite(char const *,__int64)
PUBLIC 85140 0 QNativeSocketEnginePrivate::option(QAbstractSocketEngine::SocketOption)
PUBLIC 85430 0 QNativeSocketEnginePrivate::setOption(QAbstractSocketEngine::SocketOption,int)
PUBLIC 85570 0 QNativeSocketEnginePrivate::setPortAndAddress(sockaddr_in *,qt_sockaddr_in6 *,unsigned short,QHostAddress const &,sockaddr * *,int *)
PUBLIC 85700 0 QSocks5SocketEngine::qt_static_metacall(QObject *,QMetaObject::Call,int,void * *)
PUBLIC 85830 0 QSocks5SocketEngine::metaObject()
PUBLIC 85850 0 QSocks5SocketEngine::qt_metacall(QMetaObject::Call,int,void * *)
PUBLIC 858a0 0 QSocks5SocketEngine::qt_metacast(char const *)
PUBLIC 85900 0 QUdpSocket::QUdpSocket(QObject *)
PUBLIC 85960 0 QUdpSocket::~QUdpSocket()
PUBLIC 85970 0 QUdpSocket::`vector deleting destructor'(unsigned int)
PUBLIC 859a0 0 QUdpSocketPrivate::doEnsureInitialized(QHostAddress const &,unsigned short,QHostAddress const &)
PUBLIC 85a40 0 QUdpSocket::hasPendingDatagrams()
PUBLIC 85aa0 0 QUdpSocket::pendingDatagramSize()
PUBLIC 85b00 0 QUdpSocket::readDatagram(char *,__int64,QHostAddress *,unsigned short *)
PUBLIC 85c10 0 QUdpSocket::writeDatagram(char const *,__int64,QHostAddress const &,unsigned short)
PUBLIC 85d40 0 QHttpSocketEngine::qt_static_metacall(QObject *,QMetaObject::Call,int,void * *)
PUBLIC 85e40 0 QHttpSocketEngine::metaObject()
PUBLIC 85e60 0 QHttpSocketEngine::qt_metacall(QMetaObject::Call,int,void * *)
PUBLIC 85eb0 0 QHttpSocketEngine::qt_metacast(char const *)
PUBLIC 85f10 0 QHttpNetworkReply::QHttpNetworkReply(QUrl const &,QObject *)
PUBLIC 85f60 0 QHttpNetworkReplyPrivate::QHttpNetworkReplyPrivate(QUrl const &)
PUBLIC 86190 0 QHttpNetworkReply::~QHttpNetworkReply()
PUBLIC 86220 0 QHttpNetworkReplyPrivate::~QHttpNetworkReplyPrivate()
PUBLIC 86400 0 QPointer<QHttpNetworkConnection>::operator->()
PUBLIC 86413 0 [thunk]:QHttpNetworkReply::`vector deleting destructor'`adjustor{8}' (unsigned int)
PUBLIC 86420 0 QHttpNetworkReply::`vector deleting destructor'(unsigned int)
PUBLIC 86440 0 QHttpNetworkReplyPrivate::`vector deleting destructor'(unsigned int)
PUBLIC 86460 0 QHttpNetworkReplyPrivate::authenticationMethod(bool)
PUBLIC 86620 0 QHttpNetworkReplyPrivate::clear()
PUBLIC 866b0 0 QHttpNetworkReplyPrivate::clearHttpLayerInformation()
PUBLIC 867a0 0 QHttpNetworkReply::contentLength()
PUBLIC 867b0 0 QHttpNetworkReplyPrivate::eraseData()
PUBLIC 867d0 0 QHttpNetworkReplyPrivate::expectContent()
PUBLIC 86830 0 QHttpNetworkReplyPrivate::getChunkSize(QAbstractSocket *,__int64 *)
PUBLIC 86a40 0 QHttpNetworkReply::header()
PUBLIC 86ab0 0 QHttpNetworkReply::headerField(QByteArray const &,QByteArray const &)
PUBLIC 86ad0 0 QHttpNetworkReply::ignoreSslErrors(QList<QSslError> const &)
PUBLIC 86b20 0 QHttpNetworkReply::ignoreSslErrors()
PUBLIC 86b60 0 QHttpNetworkReplyPrivate::initializeInflateStream()
PUBLIC 86bc0 0 QHttpNetworkReplyPrivate::isChunked()
PUBLIC 86bd0 0 QHttpNetworkReplyPrivate::isCompressed()
PUBLIC 86ce0 0 QHttpNetworkReplyPrivate::isConnectionCloseEnabled()
PUBLIC 86d00 0 QHttpNetworkReply::isFinished()
PUBLIC 86d10 0 QHttpNetworkReply::isPipeliningUsed()
PUBLIC 86d20 0 QHttpNetworkReply::isSpdyUsed()
PUBLIC 86d30 0 QHttpNetworkReply::majorVersion()
PUBLIC 86d40 0 QHttpNetworkReply::minorVersion()
PUBLIC 86d50 0 QHttpNetworkReplyPrivate::parseHeader(QByteArray const &)
PUBLIC 87160 0 QHttpNetworkReplyPrivate::parseStatus(QByteArray const &)
PUBLIC 87280 0 QByteDataBuffer::read(__int64)
PUBLIC 87330 0 QHttpNetworkReply::read(__int64)
PUBLIC 87360 0 QHttpNetworkReply::readAll()
PUBLIC 87380 0 QHttpNetworkReply::readAny()
PUBLIC 87430 0 QHttpNetworkReply::readAnyAvailable()
PUBLIC 87450 0 QHttpNetworkReplyPrivate::readBody(QAbstractSocket *,QByteDataBuffer *)
PUBLIC 875d0 0 QHttpNetworkReplyPrivate::readBodyFast(QAbstractSocket *,QByteDataBuffer *)
PUBLIC 87770 0 QHttpNetworkReplyPrivate::readBodyVeryFast(QAbstractSocket *,char *)
PUBLIC 877d0 0 QHttpNetworkReplyPrivate::readHeader(QAbstractSocket *)
PUBLIC 87e30 0 QHttpNetworkReplyPrivate::readReplyBodyChunked(QAbstractSocket *,QByteDataBuffer *)
PUBLIC 88000 0 QHttpNetworkReplyPrivate::readReplyBodyRaw(QAbstractSocket *,QByteDataBuffer *,__int64)
PUBLIC 882b0 0 QHttpNetworkReplyPrivate::readStatus(QAbstractSocket *)
PUBLIC 88400 0 QHttpNetworkReply::reasonPhrase()
PUBLIC 88430 0 QHttpNetworkReplyPrivate::removeAutoDecompressHeader()
PUBLIC 88510 0 QHttpNetworkReply::request()
PUBLIC 88530 0 QHttpNetworkReply::setContentLength(__int64)
PUBLIC 88550 0 QHttpNetworkReply::setDownstreamLimited(bool)
PUBLIC 88590 0 QHttpNetworkReply::setHeaderField(QByteArray const &,QByteArray const &)
PUBLIC 885a0 0 QHttpNetworkReply::setReadBufferSize(__int64)
PUBLIC 885c0 0 QHttpNetworkReply::setRequest(QHttpNetworkRequest const &)
PUBLIC 885e0 0 QHttpNetworkReply::setSpdyWasUsed(bool)
PUBLIC 885f0 0 QHttpNetworkReply::setStatusCode(int)
PUBLIC 88600 0 QHttpNetworkReply::setUrl(QUrl const &)
PUBLIC 88610 0 QHttpNetworkReply::setUserProvidedDownloadBuffer(char *)
PUBLIC 88650 0 QHttpNetworkReplyPrivate::shouldEmitSignals()
PUBLIC 88670 0 QHttpNetworkReply::sizeNextBlock()
PUBLIC 886b0 0 QHttpNetworkReply::sslConfiguration()
PUBLIC 88720 0 QThreadPool::expiryTimeout()
PUBLIC 88730 0 QHttpNetworkReply::supportsUserProvidedDownloadBuffer()
PUBLIC 88770 0 QHttpNetworkReplyPrivate::uncompressBodyData(QByteDataBuffer *,QByteDataBuffer *)
PUBLIC 88c20 0 QHttpNetworkReply::url()
PUBLIC 88c40 0 QSystemLibrary::`scalar deleting destructor'(unsigned int)
PUBLIC 88d10 0 q_ASN1_STRING_data(asn1_string_st *)
PUBLIC 88d60 0 q_ASN1_STRING_length(asn1_string_st *)
PUBLIC 88db0 0 q_ASN1_STRING_to_UTF8(unsigned char * *,asn1_string_st *)
PUBLIC 88e00 0 q_BIO_ctrl(bio_st *,int,long,void *)
PUBLIC 88e50 0 q_BIO_free(bio_st *)
PUBLIC 88ea0 0 q_BIO_new(bio_method_st *)
PUBLIC 88ef0 0 q_BIO_read(bio_st *,void *,int)
PUBLIC 88f40 0 q_BIO_s_mem()
PUBLIC 88f90 0 q_BIO_write(bio_st *,void const *,int)
PUBLIC 88ff0 0 q_BN_bin2bn(unsigned char const *,int,bignum_st *)
PUBLIC 89040 0 q_BN_num_bits(bignum_st const *)
PUBLIC 89090 0 q_CRYPTO_free(void *)
PUBLIC 890e0 0 q_CRYPTO_num_locks()
PUBLIC 89130 0 q_CRYPTO_set_id_callback(unsigned long (*)(void))
PUBLIC 89180 0 q_CRYPTO_set_locking_callback(void (*)(int,int,char const *,int))
PUBLIC 891d0 0 q_DH_free(dh_st *)
PUBLIC 89220 0 q_DH_new()
PUBLIC 89270 0 q_DSA_free(dsa_st *)
PUBLIC 892c0 0 q_EC_KEY_free(ec_key_st *)
PUBLIC 89310 0 q_EC_KEY_new_by_curve_name(int)
PUBLIC 89360 0 q_ERR_error_string(unsigned long,char *)
PUBLIC 893b0 0 q_ERR_free_strings()
PUBLIC 89400 0 q_ERR_get_error()
PUBLIC 89450 0 q_EVP_PKEY_free(evp_pkey_st *)
PUBLIC 894a0 0 q_EVP_PKEY_new()
PUBLIC 894f0 0 q_EVP_PKEY_set1_DSA(evp_pkey_st *,dsa_st *)
PUBLIC 89540 0 q_EVP_PKEY_set1_RSA(evp_pkey_st *,rsa_st *)
PUBLIC 89590 0 q_EVP_des_ede3_cbc()
PUBLIC 895e0 0 q_OBJ_nid2sn(int)
PUBLIC 89630 0 q_OBJ_obj2nid(asn1_object_st const *)
PUBLIC 89680 0 q_OBJ_obj2txt(char *,int,asn1_object_st *,int)
PUBLIC 896d0 0 q_OPENSSL_add_all_algorithms_conf()
PUBLIC 89720 0 q_PEM_write_bio_DSAPrivateKey(bio_st *,dsa_st *,evp_cipher_st const *,unsigned char *,int,int (*)(char *,int,int,void *),void *)
PUBLIC 89770 0 q_PEM_write_bio_DSA_PUBKEY(bio_st *,dsa_st *)
PUBLIC 897c0 0 q_PEM_write_bio_RSAPrivateKey(bio_st *,rsa_st *,evp_cipher_st const *,unsigned char *,int,int (*)(char *,int,int,void *),void *)
PUBLIC 89810 0 q_PEM_write_bio_RSA_PUBKEY(bio_st *,rsa_st *)
PUBLIC 89860 0 q_RAND_seed(void const *,int)
PUBLIC 898b0 0 q_RAND_status()
PUBLIC 89900 0 q_RSA_free(rsa_st *)
PUBLIC 89950 0 q_SSL_CIPHER_description(ssl_cipher_st *,char *,int)
PUBLIC 899a0 0 q_SSL_CIPHER_get_bits(ssl_cipher_st *,int *)
PUBLIC 899f0 0 q_SSL_CTX_check_private_key(ssl_ctx_st const *)
PUBLIC 89a40 0 q_SSL_CTX_ctrl(ssl_ctx_st *,int,long,void *)
PUBLIC 89a90 0 q_SSL_CTX_free(ssl_ctx_st *)
PUBLIC 89ae0 0 q_SSL_CTX_load_verify_locations(ssl_ctx_st *,char const *,char const *)
PUBLIC 89b30 0 q_SSL_CTX_new(ssl_method_st const *)
PUBLIC 89b80 0 q_SSL_CTX_set_cipher_list(ssl_ctx_st *,char const *)
PUBLIC 89bd0 0 q_SSL_CTX_set_next_proto_select_cb(ssl_ctx_st *,int (*)(ssl_st *,unsigned char * *,unsigned char *,unsigned char const *,unsigned int,void *),void *)
PUBLIC 89c20 0 q_SSL_CTX_set_verify(ssl_ctx_st *,int,int (*)(int,x509_store_ctx_st *))
PUBLIC 89c70 0 q_SSL_CTX_set_verify_depth(ssl_ctx_st *,int)
PUBLIC 89cc0 0 q_SSL_CTX_use_PrivateKey(ssl_ctx_st *,evp_pkey_st *)
PUBLIC 89d10 0 q_SSL_CTX_use_certificate(ssl_ctx_st *,x509_st *)
PUBLIC 89d60 0 q_SSL_SESSION_free(ssl_session_st *)
PUBLIC 89db0 0 q_SSL_accept(ssl_st *)
PUBLIC 89e00 0 q_SSL_clear(ssl_st *)
PUBLIC 89e50 0 q_SSL_connect(ssl_st *)
PUBLIC 89ea0 0 q_SSL_ctrl(ssl_st *,int,long,void *)
PUBLIC 89ef0 0 q_SSL_free(ssl_st *)
PUBLIC 89f40 0 q_SSL_get0_next_proto_negotiated(ssl_st const *,unsigned char const * *,unsigned int *)
PUBLIC 89f90 0 q_SSL_get1_session(ssl_st *)
PUBLIC 89ff0 0 q_SSL_get_ciphers(ssl_st const *)
PUBLIC 8a040 0 q_SSL_get_current_cipher(ssl_st *)
PUBLIC 8a090 0 q_SSL_get_error(ssl_st *,int)
PUBLIC 8a0e0 0 q_SSL_get_peer_cert_chain(ssl_st *)
PUBLIC 8a130 0 q_SSL_get_peer_certificate(ssl_st *)
PUBLIC 8a180 0 q_SSL_get_session(ssl_st const *)
PUBLIC 8a1d0 0 q_SSL_library_init()
PUBLIC 8a220 0 q_SSL_load_error_strings()
PUBLIC 8a270 0 q_SSL_new(ssl_ctx_st *)
PUBLIC 8a2c0 0 q_SSL_read(ssl_st *,void *,int)
PUBLIC 8a310 0 q_SSL_select_next_proto(unsigned char * *,unsigned char *,unsigned char const *,unsigned int,unsigned char const *,unsigned int)
PUBLIC 8a360 0 q_SSL_set_accept_state(ssl_st *)
PUBLIC 8a3b0 0 q_SSL_set_bio(ssl_st *,bio_st *,bio_st *)
PUBLIC 8a400 0 q_SSL_set_connect_state(ssl_st *)
PUBLIC 8a450 0 q_SSL_set_session(ssl_st *,ssl_session_st *)
PUBLIC 8a4a0 0 q_SSL_shutdown(ssl_st *)
PUBLIC 8a4f0 0 q_SSL_version(ssl_st const *)
PUBLIC 8a540 0 q_SSL_write(ssl_st *,void const *,int)
PUBLIC 8a590 0 q_SSLeay()
PUBLIC 8a5e0 0 q_SSLv23_client_method()
PUBLIC 8a630 0 q_SSLv23_server_method()
PUBLIC 8a680 0 q_SSLv2_client_method()
PUBLIC 8a6d0 0 q_SSLv2_server_method()
PUBLIC 8a720 0 q_SSLv3_client_method()
PUBLIC 8a770 0 q_SSLv3_server_method()
PUBLIC 8a7c0 0 q_TLSv1_1_client_method()
PUBLIC 8a810 0 q_TLSv1_1_server_method()
PUBLIC 8a860 0 q_TLSv1_2_client_method()
PUBLIC 8a8b0 0 q_TLSv1_2_server_method()
PUBLIC 8a900 0 q_TLSv1_client_method()
PUBLIC 8a950 0 q_TLSv1_server_method()
PUBLIC 8a9a0 0 q_X509_NAME_ENTRY_get_data(X509_name_entry_st *)
PUBLIC 8a9f0 0 q_X509_NAME_ENTRY_get_object(X509_name_entry_st *)
PUBLIC 8aa40 0 q_X509_NAME_entry_count(X509_name_st *)
PUBLIC 8aa90 0 q_X509_NAME_get_entry(X509_name_st *,int)
PUBLIC 8aae0 0 q_X509_STORE_CTX_get_error(x509_store_ctx_st *)
PUBLIC 8ab30 0 q_X509_STORE_CTX_get_error_depth(x509_store_ctx_st *)
PUBLIC 8ab80 0 q_X509_STORE_add_cert(x509_store_st *,x509_st *)
PUBLIC 8abd0 0 q_X509_cmp(x509_st *,x509_st *)
PUBLIC 8ac20 0 q_X509_dup(x509_st *)
PUBLIC 8ac70 0 q_X509_free(x509_st *)
PUBLIC 8acc0 0 q_X509_get_ext_d2i(x509_st *,int,int *,int *)
PUBLIC 8ad10 0 q_X509_get_issuer_name(x509_st *)
PUBLIC 8ad60 0 q_X509_get_subject_name(x509_st *)
PUBLIC 8adb0 0 q_d2i_SSL_SESSION(ssl_session_st * *,unsigned char const * *,long)
PUBLIC 8ae00 0 q_d2i_X509(x509_st * *,unsigned char const * *,long)
PUBLIC 8ae50 0 q_getTimeFromASN1(asn1_string_st const *)
PUBLIC 8b1e0 0 q_i2d_SSL_SESSION(ssl_session_st *,unsigned char * *)
PUBLIC 8b230 0 q_i2d_X509(x509_st *,unsigned char * *)
PUBLIC 8b290 0 q_resolveOpenSslSymbols()
PUBLIC 8d5a0 0 q_sk_free(stack_st *)
PUBLIC 8d5f0 0 q_sk_num(stack_st *)
PUBLIC 8d640 0 q_sk_pop_free(stack_st *,void (*)(void *))
PUBLIC 8d690 0 q_sk_value(stack_st *,int)
PUBLIC 8d6e0 0 `anonymous namespace'::qsslSocketCannotResolveSymbolWarning(char const *)
PUBLIC 8d920 0 QSslKeyPrivate::clear(bool)
PUBLIC 8d990 0 QSslKeyPrivate::handle()
PUBLIC 8d9b0 0 QSslKeyPrivate::length()
PUBLIC 8d9f0 0 QSslKeyPrivate::toPem(QByteArray const &)
PUBLIC 8db70 0 QSslContext::QSslContext()
PUBLIC 8dbc0 0 QSslContext::~QSslContext()
PUBLIC 8dc80 0 QSslContext::cacheSession(ssl_st *)
PUBLIC 8dd60 0 QSslContext::createSsl()
PUBLIC 8e120 0 QSslContext::error()
PUBLIC 8e130 0 QSslContext::errorString()
PUBLIC 8e150 0 QSslContext::fromConfiguration(QSslSocket::SslMode,QSslConfiguration const &,bool)
PUBLIC 8ecd0 0 QSslContext::npnContext()
PUBLIC 8ecf0 0 QSslContext::sessionASN1()
PUBLIC 8ed10 0 QSslContext::sessionTicketLifeTimeHint()
PUBLIC 8ed20 0 QWindowsCaRootFetcher::qt_static_metacall(QObject *,QMetaObject::Call,int,void * *)
PUBLIC 8edd0 0 QWindowsCaRootFetcher::finished(QSslCertificate,QSslCertificate)
PUBLIC 8ee30 0 QWindowsCaRootFetcher::metaObject()
PUBLIC 8ee50 0 QWindowsCaRootFetcher::qt_metacall(QMetaObject::Call,int,void * *)
PUBLIC 8eea0 0 QWindowsCaRootFetcher::qt_metacast(char const *)
PUBLIC 8ef00 0 QAbstractNetworkCache::qt_static_metacall(QObject *,QMetaObject::Call,int,void * *)
PUBLIC 8ef20 0 QUrlInfo::QUrlInfo()
PUBLIC 8ef30 0 QUrlInfoPrivate::QUrlInfoPrivate()
PUBLIC 8ef80 0 QUrlInfo::~QUrlInfo()
PUBLIC 8efa0 0 QUrlInfoPrivate::~QUrlInfoPrivate()
PUBLIC 8f040 0 QUrlInfo::`vector deleting destructor'(unsigned int)
PUBLIC 8f080 0 QUrlInfo::isFile()
PUBLIC 8f090 0 QUrlInfo::isSymLink()
PUBLIC 8f0a0 0 QUrlInfo::owner()
PUBLIC 8f0d0 0 QUrlInfo::setDir(bool)
PUBLIC 8f120 0 QUrlInfo::setFile(bool)
PUBLIC 8f170 0 QUrlInfo::setGroup(QString const &)
PUBLIC 8f1b0 0 QUrlInfo::setLastModified(QDateTime const &)
PUBLIC 8f1f0 0 QUrlInfo::setName(QString const &)
PUBLIC 8f240 0 QUrlInfo::setOwner(QString const &)
PUBLIC 8f280 0 QUrlInfo::setPermissions(int)
PUBLIC 8f2d0 0 QUrlInfo::setReadable(bool)
PUBLIC 8f320 0 QUrlInfo::setSize(__int64)
PUBLIC 8f360 0 QUrlInfo::setSymLink(bool)
PUBLIC 8f3b0 0 QUrlInfo::setWritable(bool)
PUBLIC 8f400 0 QHttpNetworkConnection::qt_static_metacall(QObject *,QMetaObject::Call,int,void * *)
PUBLIC 8f470 0 QStringBuilder<QStringBuilder<char const [2],QByteArray>,char const [2]>::convertTo<QByteArray>()
PUBLIC 8f4e0 0 QHttpNetworkConnection::QHttpNetworkConnection(QString const &,unsigned short,bool,QHttpNetworkConnection::ConnectionType,QObject *,QSharedPointer<QNetworkSession>)
PUBLIC 8f590 0 QHttpNetworkConnectionPrivate::QHttpNetworkConnectionPrivate(QString const &,unsigned short,bool,QHttpNetworkConnection::ConnectionType)
PUBLIC 8f770 0 QMap<int,QPair<QHttpNetworkRequest,QHttpNetworkReply *> >::~QMap<int,QPair<QHttpNetworkRequest,QHttpNetworkReply *> >()
PUBLIC 8f7d0 0 QHttpNetworkConnection::~QHttpNetworkConnection()
PUBLIC 8f7e0 0 QHttpNetworkConnectionChannel::~QHttpNetworkConnectionChannel()
PUBLIC 8f8e0 0 QHttpNetworkConnectionPrivate::~QHttpNetworkConnectionPrivate()
PUBLIC 8fae0 0 QHttpNetworkConnectionChannel::`vector deleting destructor'(unsigned int)
PUBLIC 8fb50 0 QHttpNetworkConnection::`vector deleting destructor'(unsigned int)
PUBLIC 8fb80 0 QHttpNetworkConnectionPrivate::`vector deleting destructor'(unsigned int)
PUBLIC 8fba0 0 QHttpNetworkConnectionPrivate::_q_hostLookupFinished(QHostInfo)
PUBLIC 8fe80 0 QHttpNetworkConnectionPrivate::_q_startNextRequest()
PUBLIC 90120 0 QList<QPair<QHttpNetworkRequest,QHttpNetworkReply *> >::append(QPair<QHttpNetworkRequest,QHttpNetworkReply *> const &)
PUBLIC 90190 0 QHttpNetworkConnection::cacheProxy()
PUBLIC 901b0 0 QHttpNetworkConnection::connectionType()
PUBLIC 901c0 0 QMapNode<int,QPair<QHttpNetworkRequest,QHttpNetworkReply *> >::copy(QMapData<int,QPair<QHttpNetworkRequest,QHttpNetworkReply *> > *)
PUBLIC 90270 0 QHttpNetworkConnectionPrivate::copyCredentials(int,QAuthenticator *,bool)
PUBLIC 904a0 0 QHttpNetworkConnectionPrivate::createAuthorization(QAbstractSocket *,QHttpNetworkRequest &)
PUBLIC 90710 0 QList<QPair<QHttpNetworkRequest,QHttpNetworkReply *> >::dealloc(QListData::Data *)
PUBLIC 90760 0 QHttpNetworkConnectionPrivate::dequeueRequest(QAbstractSocket *)
PUBLIC 90860 0 QMapNode<int,QPair<QHttpNetworkRequest,QHttpNetworkReply *> >::destroySubTree()
PUBLIC 90880 0 QList<QPair<QHttpNetworkRequest,QHttpNetworkReply *> >::detach_helper(int)
PUBLIC 908e0 0 QMap<int,QPair<QHttpNetworkRequest,QHttpNetworkReply *> >::detach_helper()
PUBLIC 90980 0 QList<QPair<QHttpNetworkRequest,QHttpNetworkReply *> >::detach_helper_grow(int,int)
PUBLIC 90a30 0 QHttpNetworkConnectionPrivate::emitProxyAuthenticationRequired(QHttpNetworkConnectionChannel const *,QNetworkProxy const &,QAuthenticator *)
PUBLIC 90ae0 0 QHttpNetworkConnectionPrivate::emitReplyError(QAbstractSocket *,QHttpNetworkReply *,QNetworkReply::NetworkError)
PUBLIC 90c80 0 QList<QPair<QHttpNetworkRequest,QHttpNetworkReply *> >::erase(QList<QPair<QHttpNetworkRequest,QHttpNetworkReply *> >::iterator)
PUBLIC 90d00 0 QHttpNetworkConnectionPrivate::errorDetail(QNetworkReply::NetworkError,QAbstractSocket *,QString const &)
PUBLIC 91070 0 QHttpNetworkConnectionPrivate::fillPipeline(QAbstractSocket *)
PUBLIC 91300 0 QHttpNetworkConnectionPrivate::fillPipeline(QList<QPair<QHttpNetworkRequest,QHttpNetworkReply *> > &,QHttpNetworkConnectionChannel &)
PUBLIC 91450 0 QHttpNetworkConnectionPrivate::handleAuthenticateChallenge(QAbstractSocket *,QHttpNetworkReply *,bool,bool &)
PUBLIC 91790 0 QHttpNetworkConnection::ignoreSslErrors(QList<QSslError> const &,int)
PUBLIC 917f0 0 QHttpNetworkConnection::ignoreSslErrors(int)
PUBLIC 91840 0 QHttpNetworkConnectionPrivate::indexOf(QAbstractSocket *)
PUBLIC 918a0 0 QHttpNetworkConnectionPrivate::init()
PUBLIC 91990 0 QMap<int,QPair<QHttpNetworkRequest,QHttpNetworkReply *> >::insertMulti(int const &,QPair<QHttpNetworkRequest,QHttpNetworkReply *> const &)
PUBLIC 91a20 0 QHttpNetworkConnection::metaObject()
PUBLIC 91a40 0 QHttpNetworkConnectionPrivate::networkLayerDetected(QAbstractSocket::NetworkLayerProtocol)
PUBLIC 91a80 0 QList<QPair<QHttpNetworkRequest,QHttpNetworkReply *> >::node_construct(QList<QPair<QHttpNetworkRequest,QHttpNetworkReply *> >::Node *,QPair<QHttpNetworkRequest,QHttpNetworkReply *> const &)
PUBLIC 91ac0 0 QList<QPair<QHttpNetworkRequest,QHttpNetworkReply *> >::node_copy(QList<QPair<QHttpNetworkRequest,QHttpNetworkReply *> >::Node *,QList<QPair<QHttpNetworkRequest,QHttpNetworkReply *> >::Node *,QList<QPair<QHttpNetworkRequest,QHttpNetworkReply *> >::Node *)
PUBLIC 91b20 0 QHttpNetworkConnectionPrivate::pauseConnection()
PUBLIC 91b70 0 QHttpNetworkConnection::preConnectFinished()
PUBLIC 91b80 0 QHttpNetworkConnectionPrivate::predictNextRequest()
PUBLIC 91c00 0 QHttpNetworkConnectionPrivate::prepareRequest(QPair<QHttpNetworkRequest,QHttpNetworkReply *> &)
PUBLIC 92890 0 QList<QPair<QHttpNetworkRequest,QHttpNetworkReply *> >::prepend(QPair<QHttpNetworkRequest,QHttpNetworkReply *> const &)
PUBLIC 92900 0 QHttpNetworkConnection::qt_metacall(QMetaObject::Call,int,void * *)
PUBLIC 92960 0 QHttpNetworkConnection::qt_metacast(char const *)
PUBLIC 929c0 0 QHttpNetworkConnectionPrivate::queueRequest(QHttpNetworkRequest const &)
PUBLIC 92b30 0 QHttpNetworkConnectionPrivate::readMoreLater(QHttpNetworkReply *)
PUBLIC 92bb0 0 QMap<int,QPair<QHttpNetworkRequest,QHttpNetworkReply *> >::remove(int const &)
PUBLIC 92c20 0 QHttpNetworkConnectionPrivate::removeReply(QHttpNetworkReply *)
PUBLIC 93140 0 QHttpNetworkConnectionPrivate::requeueRequest(QPair<QHttpNetworkRequest,QHttpNetworkReply *> const &)
PUBLIC 931d0 0 QHttpNetworkConnectionPrivate::resumeConnection()
PUBLIC 932a0 0 QHttpNetworkConnection::sendRequest(QHttpNetworkRequest const &)
PUBLIC 932b0 0 QHttpNetworkConnection::setCacheProxy(QNetworkProxy const &)
PUBLIC 933d0 0 QHttpNetworkConnection::setConnectionType(QHttpNetworkConnection::ConnectionType)
PUBLIC 933e0 0 QHttpNetworkConnection::setSslConfiguration(QSslConfiguration const &)
PUBLIC 93420 0 QHttpNetworkConnection::setSslContext(QSharedPointer<QSslContext>)
PUBLIC 93490 0 QHttpNetworkConnection::setTransparentProxy(QNetworkProxy const &)
PUBLIC 934d0 0 QHttpNetworkConnectionPrivate::shouldEmitChannelError(QAbstractSocket *)
PUBLIC 93670 0 QHttpNetworkConnection::sslContext()
PUBLIC 936b0 0 QHttpNetworkConnectionPrivate::startHostInfoLookup()
PUBLIC 938a0 0 QHttpNetworkConnectionPrivate::startNetworkLayerStateLookup()
PUBLIC 939e0 0 QList<QPair<QHttpNetworkRequest,QHttpNetworkReply *> >::takeAt(int)
PUBLIC 93a50 0 QList<QPair<QHttpNetworkRequest,QHttpNetworkReply *> >::takeLast()
PUBLIC 93ad0 0 QHttpNetworkConnection::transparentProxy()
PUBLIC 93af0 0 QMap<int,QPair<QHttpNetworkRequest,QHttpNetworkReply *> >::values()
PUBLIC 93bd0 0 QUdpSocket::metaObject()
PUBLIC 93bf0 0 QTcpSocket::qt_metacall(QMetaObject::Call,int,void * *)
PUBLIC 93c00 0 QUdpSocket::qt_metacast(char const *)
PUBLIC 93c60 0 QHttpNetworkReply::qt_static_metacall(QObject *,QMetaObject::Call,int,void * *)
PUBLIC 93f90 0 QHttpNetworkReply::authenticationRequired(QHttpNetworkRequest const &,QAuthenticator *)
PUBLIC 93ff0 0 QHttpNetworkReply::cacheCredentials(QHttpNetworkRequest const &,QAuthenticator *)
PUBLIC 94050 0 QHttpNetworkReply::dataReadProgress(__int64,__int64)
PUBLIC 940a0 0 QHttpNetworkReply::dataSendProgress(__int64,__int64)
PUBLIC 940f0 0 QHttpNetworkReply::encrypted()
PUBLIC 94110 0 QHttpNetworkReply::finished()
PUBLIC 94130 0 QHttpNetworkReply::finishedWithError(QNetworkReply::NetworkError,QString const &)
PUBLIC 94180 0 QHttpNetworkReply::headerChanged()
PUBLIC 941a0 0 QHttpNetworkReply::metaObject()
PUBLIC 941c0 0 QHttpNetworkReply::proxyAuthenticationRequired(QNetworkProxy const &,QAuthenticator *)
PUBLIC 94220 0 QHttpNetworkReply::qt_metacall(QMetaObject::Call,int,void * *)
PUBLIC 94270 0 QHttpNetworkReply::qt_metacast(char const *)
PUBLIC 94310 0 QHttpNetworkReply::readyRead()
PUBLIC 94330 0 QHttpNetworkReply::sslErrors(QList<QSslError> const &)
PUBLIC 94360 0 QAbstractProtocolHandler::QAbstractProtocolHandler(QHttpNetworkConnectionChannel *)
PUBLIC 943b0 0 QAbstractProtocolHandler::~QAbstractProtocolHandler()
PUBLIC 943c0 0 QAbstractProtocolHandler::`vector deleting destructor'(unsigned int)
PUBLIC 943e0 0 QAbstractProtocolHandler::setReply(QHttpNetworkReply *)
PUBLIC 943f0 0 QHttpNetworkConnectionChannel::qt_static_metacall(QObject *,QMetaObject::Call,int,void * *)
PUBLIC 94560 0 QHttpNetworkConnectionChannel::QHttpNetworkConnectionChannel()
PUBLIC 94670 0 QHttpNetworkConnectionChannel::_q_connected()
PUBLIC 94a00 0 QHttpNetworkConnectionChannel::_q_disconnected()
PUBLIC 94b30 0 QHttpNetworkConnectionChannel::_q_encrypted()
PUBLIC 94dd0 0 QHttpNetworkConnectionChannel::_q_error(QAbstractSocket::SocketError)
PUBLIC 95280 0 QHttpNetworkConnectionChannel::_q_proxyAuthenticationRequired(QNetworkProxy const &,QAuthenticator *)
PUBLIC 95320 0 QHttpNetworkConnectionChannel::_q_sslErrors(QList<QSslError> const &)
PUBLIC 95460 0 QHttpNetworkConnectionChannel::allDone()
PUBLIC 95730 0 QHttpNetworkConnectionChannel::close()
PUBLIC 95760 0 QHttpNetworkConnectionChannel::closeAndResendCurrentRequest()
PUBLIC 95820 0 QHttpNetworkConnectionChannel::detectPipeliningSupport()
PUBLIC 95a00 0 QHttpNetworkConnectionChannel::emitFinishedWithError(QNetworkReply::NetworkError,char const *)
PUBLIC 95b50 0 QHttpNetworkConnectionChannel::ensureConnection()
PUBLIC 95fe0 0 QHttpNetworkConnectionChannel::handleStatus()
PUBLIC 96230 0 QHttpNetworkConnectionChannel::handleUnexpectedEOF()
PUBLIC 96410 0 QHttpNetworkConnectionChannel::ignoreSslErrors(QList<QSslError> const &)
PUBLIC 96460 0 QHttpNetworkConnectionChannel::ignoreSslErrors()
PUBLIC 96480 0 QHttpNetworkConnectionChannel::init()
PUBLIC 967f0 0 QHttpNetworkConnectionChannel::isSocketBusy()
PUBLIC 96800 0 QHttpNetworkConnectionChannel::isSocketReading()
PUBLIC 96810 0 QHttpNetworkConnectionChannel::isSocketWaiting()
PUBLIC 96820 0 QHttpNetworkConnectionChannel::metaObject()
PUBLIC 96840 0 QHttpNetworkConnectionChannel::pipelineFlush()
PUBLIC 96870 0 QHttpNetworkConnectionChannel::pipelineInto(QPair<QHttpNetworkRequest,QHttpNetworkReply *> &)
PUBLIC 969b0 0 QHttpNetworkConnectionChannel::qt_metacall(QMetaObject::Call,int,void * *)
PUBLIC 96a00 0 QHttpNetworkConnectionChannel::qt_metacast(char const *)
PUBLIC 96a60 0 QHttpNetworkConnectionChannel::requeueCurrentlyPipelinedRequests()
PUBLIC 96bb0 0 QHttpNetworkConnectionChannel::requeueSpdyRequests()
PUBLIC 96ce0 0 QScopedPointer<QAbstractProtocolHandler,QScopedPointerDeleter<QAbstractProtocolHandler> >::reset(QAbstractProtocolHandler *)
PUBLIC 96d10 0 QHttpNetworkConnectionChannel::resetUploadData()
PUBLIC 96d80 0 QHttpNetworkConnectionChannel::sendRequest()
PUBLIC 96d90 0 QHttpNetworkConnectionChannel::setConnection(QHttpNetworkConnection *)
PUBLIC 96da0 0 QHttpNetworkConnectionChannel::setProxy(QNetworkProxy const &)
PUBLIC 96dd0 0 QHttpNetworkConnectionChannel::setSslConfiguration(QSslConfiguration const &)
PUBLIC 96e00 0 QList<QPair<QHttpNetworkRequest,QHttpNetworkReply *> >::takeFirst()
PUBLIC 96e80 0 QHttpProtocolHandler::QHttpProtocolHandler(QHttpNetworkConnectionChannel *)
PUBLIC 96ea0 0 QHttpProtocolHandler::`vector deleting destructor'(unsigned int)
PUBLIC 96ec0 0 QHttpProtocolHandler::_q_readyRead()
PUBLIC 96f50 0 QHttpProtocolHandler::_q_receiveReply()
PUBLIC 972f0 0 QHttpProtocolHandler::sendRequest()
PUBLIC 97a20 0 QConcatenable<QStringBuilder<QByteArray,QByteArray> >::appendTo<char>(QStringBuilder<QByteArray,QByteArray> const &,char * &)
PUBLIC 97aa0 0 QtStringBuilder::appendToByteArray<QByteArray,QByteArray>(QByteArray &,QStringBuilder<QByteArray,QByteArray> const &,char)
PUBLIC 97b30 0 QSpdyProtocolHandler::QSpdyProtocolHandler(QHttpNetworkConnectionChannel *)
PUBLIC 97c00 0 QSpdyProtocolHandler::~QSpdyProtocolHandler()
PUBLIC 97cb9 0 [thunk]:QSpdyProtocolHandler::`vector deleting destructor'`adjustor{8}' (unsigned int)
PUBLIC 97cd0 0 QSpdyProtocolHandler::`vector deleting destructor'(unsigned int)
PUBLIC 97cf0 0 QSpdyProtocolHandler::_q_receiveReply()
PUBLIC 97e10 0 QSpdyProtocolHandler::_q_replyDestroyed(QObject *)
PUBLIC 97ed0 0 QSpdyProtocolHandler::_q_uploadDataReadyRead()
PUBLIC 97f20 0 QSpdyProtocolHandler::composeHeader(QHttpNetworkRequest const &)
PUBLIC 987e0 0 QHash<unsigned int,QPair<QHttpNetworkRequest,QHttpNetworkReply *> >::createNode(unsigned int,unsigned int const &,QPair<QHttpNetworkRequest,QHttpNetworkReply *> const &,QHashNode<unsigned int,QPair<QHttpNetworkRequest,QHttpNetworkReply *> > * *)
PUBLIC 98850 0 QHash<unsigned int,QPair<QHttpNetworkRequest,QHttpNetworkReply *> >::deleteNode2(QHashData::Node *)
PUBLIC 98860 0 QHash<unsigned int,QPair<QHttpNetworkRequest,QHttpNetworkReply *> >::detach()
PUBLIC 988c0 0 QHash<unsigned int,QPair<QHttpNetworkRequest,QHttpNetworkReply *> >::duplicateNode(QHashData::Node *,void *)
PUBLIC 98900 0 QMap<int,QPair<QHttpNetworkRequest,QHttpNetworkReply *> >::erase(QMap<int,QPair<QHttpNetworkRequest,QHttpNetworkReply *> >::iterator)
PUBLIC 989c0 0 QMap<int,QPair<QHttpNetworkRequest,QHttpNetworkReply *> >::find(int const &)
PUBLIC 98a20 0 QSpdyProtocolHandler::handleControlFrame(QByteArray const &)
PUBLIC 98c80 0 QSpdyProtocolHandler::handleDataFrame(QByteArray const &)
PUBLIC 99100 0 QSpdyProtocolHandler::handleGOAWAY(char,unsigned int,QByteArray const &)
PUBLIC 99240 0 QSpdyProtocolHandler::handlePING(char,unsigned int,QByteArray const &)
PUBLIC 992f0 0 QSpdyProtocolHandler::handleRST_STREAM(char,unsigned int,QByteArray const &)
PUBLIC 994c0 0 QSpdyProtocolHandler::handleSETTINGS(char,unsigned int,QByteArray const &)
PUBLIC 99610 0 QSpdyProtocolHandler::handleSYN_STREAM(char,unsigned int,QByteArray const &)
PUBLIC 996c0 0 QSpdyProtocolHandler::handleWINDOW_UPDATE(char,unsigned int,QByteArray const &)
PUBLIC 99930 0 QHash<unsigned int,QPair<QHttpNetworkRequest,QHttpNetworkReply *> >::insert(unsigned int const &,QPair<QHttpNetworkRequest,QHttpNetworkReply *> const &)
PUBLIC 99a10 0 QMap<int,QPair<QHttpNetworkRequest,QHttpNetworkReply *> >::keys()
PUBLIC 99ac0 0 QSpdyProtocolHandler::parseHttpHeaders(char,QByteArray const &)
PUBLIC 9a1b0 0 QList<QByteArray>::prepend(QByteArray const &)
PUBLIC 9a220 0 QSpdyProtocolHandler::readNextChunk(__int64,char *)
PUBLIC 9a330 0 QHash<unsigned int,QPair<QHttpNetworkRequest,QHttpNetworkReply *> >::remove(unsigned int const &)
PUBLIC 9a400 0 QMultiMap<int,QPair<QHttpNetworkRequest,QHttpNetworkReply *> >::remove(int const &,QPair<QHttpNetworkRequest,QHttpNetworkReply *> const &)
PUBLIC 9a4a0 0 QSpdyProtocolHandler::replyFinished(QHttpNetworkReply *,int)
PUBLIC 9a540 0 QSpdyProtocolHandler::replyFinishedWithError(QHttpNetworkReply *,int,QNetworkReply::NetworkError,char const *)
PUBLIC 9a630 0 QSpdyProtocolHandler::sendControlFrame(QSpdyProtocolHandler::FrameType,QFlags<QSpdyProtocolHandler::ControlFrameFlag>,char const *,unsigned int)
PUBLIC 9a710 0 QSpdyProtocolHandler::sendDataFrame(int,QFlags<QSpdyProtocolHandler::DataFrameFlag>,unsigned int,char const *)
PUBLIC 9a890 0 QSpdyProtocolHandler::sendRST_STREAM(int,QSpdyProtocolHandler::RST_STREAM_STATUS_CODE)
PUBLIC 9a920 0 QSpdyProtocolHandler::sendRequest()
PUBLIC 9ac50 0 QSpdyProtocolHandler::sendSYN_STREAM(QPair<QHttpNetworkRequest,QHttpNetworkReply *>,int,int)
PUBLIC 9aee0 0 QSpdyProtocolHandler::sendWINDOW_UPDATE(int,unsigned int)
PUBLIC 9af70 0 QSpdyProtocolHandler::uncompressHeader(QByteArray const &,QByteArray *)
PUBLIC 9b0e0 0 QSpdyProtocolHandler::uploadData(int)
PUBLIC 9b3e0 0 QHash<unsigned int,QPair<QHttpNetworkRequest,QHttpNetworkReply *> >::value(unsigned int const &)
PUBLIC 9b480 0 QSpdyProtocolHandler::qt_static_metacall(QObject *,QMetaObject::Call,int,void * *)
PUBLIC 9b4d0 0 QSpdyProtocolHandler::metaObject()
PUBLIC 9b4f0 0 QSpdyProtocolHandler::qt_metacall(QMetaObject::Call,int,void * *)
PUBLIC 9b550 0 QSpdyProtocolHandler::qt_metacast(char const *)
PUBLIC 9b5f0 0 QArrayData::allocate(unsigned int,unsigned int,unsigned int,QFlags<QArrayData::AllocationOption>)
PUBLIC 9b6c0 0 QArrayData::deallocate(QArrayData *,unsigned int,unsigned int)
PUBLIC 9b6e0 0 QtPrivate::QContainerImplHelper::mid(int,int *,int *)
PUBLIC 9b750 0 std::_Lower_bound<UCS2Pair const *,unsigned short,int,std::less<void> >(UCS2Pair const *,UCS2Pair const *,unsigned short const &,std::less<void>,int *)
PUBLIC 9b7a0 0 std::_Lower_bound<UCS2SurrogatePair const *,unsigned int,int,std::less<void> >(UCS2SurrogatePair const *,UCS2SurrogatePair const *,unsigned int const &,std::less<void>,int *)
PUBLIC 9b800 0 `anonymous namespace'::UnrollTailLoop<3>::exec<int,<lambda_3b69afa15b2cca22b768e69c9932d5cb>,<lambda_7fe3a25e8df180e5536a9f5f2085c5a1> >(int,int,<lambda_3b69afa15b2cca22b768e69c9932d5cb>,<lambda_7fe3a25e8df180e5536a9f5f2085c5a1>,int)
PUBLIC 9b850 0 `anonymous namespace'::UnrollTailLoop<4>::exec<int,<lambda_3b69afa15b2cca22b768e69c9932d5cb>,<lambda_7fe3a25e8df180e5536a9f5f2085c5a1> >(int,int,<lambda_3b69afa15b2cca22b768e69c9932d5cb>,<lambda_7fe3a25e8df180e5536a9f5f2085c5a1>,int)
PUBLIC 9b8b0 0 `anonymous namespace'::UnrollTailLoop<5>::exec<int,<lambda_3b69afa15b2cca22b768e69c9932d5cb>,<lambda_7fe3a25e8df180e5536a9f5f2085c5a1> >(int,int,<lambda_3b69afa15b2cca22b768e69c9932d5cb>,<lambda_7fe3a25e8df180e5536a9f5f2085c5a1>,int)
PUBLIC 9b910 0 `anonymous namespace'::UnrollTailLoop<6>::exec<int,<lambda_3b69afa15b2cca22b768e69c9932d5cb>,<lambda_7fe3a25e8df180e5536a9f5f2085c5a1> >(int,int,<lambda_3b69afa15b2cca22b768e69c9932d5cb>,<lambda_7fe3a25e8df180e5536a9f5f2085c5a1>,int)
PUBLIC 9b970 0 `anonymous namespace'::UnrollTailLoop<1>::exec<int,<lambda_59e854fba85492c0bc60302019284d63>,<lambda_59e854fba85492c0bc60302019284d63> >(int,int,<lambda_59e854fba85492c0bc60302019284d63>,<lambda_59e854fba85492c0bc60302019284d63>,int)
PUBLIC 9b9c0 0 `anonymous namespace'::UnrollTailLoop<2>::exec<int,<lambda_59e854fba85492c0bc60302019284d63>,<lambda_59e854fba85492c0bc60302019284d63> >(int,int,<lambda_59e854fba85492c0bc60302019284d63>,<lambda_59e854fba85492c0bc60302019284d63>,int)
PUBLIC 9ba30 0 `anonymous namespace'::UnrollTailLoop<3>::exec<int,<lambda_59e854fba85492c0bc60302019284d63>,<lambda_59e854fba85492c0bc60302019284d63> >(int,int,<lambda_59e854fba85492c0bc60302019284d63>,<lambda_59e854fba85492c0bc60302019284d63>,int)
PUBLIC 9baa0 0 `anonymous namespace'::UnrollTailLoop<4>::exec<int,<lambda_59e854fba85492c0bc60302019284d63>,<lambda_59e854fba85492c0bc60302019284d63> >(int,int,<lambda_59e854fba85492c0bc60302019284d63>,<lambda_59e854fba85492c0bc60302019284d63>,int)
PUBLIC 9bb10 0 `anonymous namespace'::UnrollTailLoop<5>::exec<int,<lambda_59e854fba85492c0bc60302019284d63>,<lambda_59e854fba85492c0bc60302019284d63> >(int,int,<lambda_59e854fba85492c0bc60302019284d63>,<lambda_59e854fba85492c0bc60302019284d63>,int)
PUBLIC 9bb80 0 `anonymous namespace'::UnrollTailLoop<3>::exec<int,<lambda_612ca84e3ec7b10bd1afee32aa74f7fe>,<lambda_bdcf5c73874d57aff15794cfb14695c4> >(int,int,<lambda_612ca84e3ec7b10bd1afee32aa74f7fe>,<lambda_bdcf5c73874d57aff15794cfb14695c4>,int)
PUBLIC 9bbd0 0 `anonymous namespace'::UnrollTailLoop<5>::exec<int,<lambda_612ca84e3ec7b10bd1afee32aa74f7fe>,<lambda_bdcf5c73874d57aff15794cfb14695c4> >(int,int,<lambda_612ca84e3ec7b10bd1afee32aa74f7fe>,<lambda_bdcf5c73874d57aff15794cfb14695c4>,int)
PUBLIC 9bc40 0 `anonymous namespace'::UnrollTailLoop<7>::exec<int,<lambda_612ca84e3ec7b10bd1afee32aa74f7fe>,<lambda_bdcf5c73874d57aff15794cfb14695c4> >(int,int,<lambda_612ca84e3ec7b10bd1afee32aa74f7fe>,<lambda_bdcf5c73874d57aff15794cfb14695c4>,int)
PUBLIC 9bcb0 0 `anonymous namespace'::UnrollTailLoop<9>::exec<int,<lambda_612ca84e3ec7b10bd1afee32aa74f7fe>,<lambda_bdcf5c73874d57aff15794cfb14695c4> >(int,int,<lambda_612ca84e3ec7b10bd1afee32aa74f7fe>,<lambda_bdcf5c73874d57aff15794cfb14695c4>,int)
PUBLIC 9bd20 0 `anonymous namespace'::UnrollTailLoop<11>::exec<int,<lambda_612ca84e3ec7b10bd1afee32aa74f7fe>,<lambda_bdcf5c73874d57aff15794cfb14695c4> >(int,int,<lambda_612ca84e3ec7b10bd1afee32aa74f7fe>,<lambda_bdcf5c73874d57aff15794cfb14695c4>,int)
PUBLIC 9bd90 0 `anonymous namespace'::UnrollTailLoop<13>::exec<int,<lambda_612ca84e3ec7b10bd1afee32aa74f7fe>,<lambda_bdcf5c73874d57aff15794cfb14695c4> >(int,int,<lambda_612ca84e3ec7b10bd1afee32aa74f7fe>,<lambda_bdcf5c73874d57aff15794cfb14695c4>,int)
PUBLIC 9be00 0 `anonymous namespace'::UnrollTailLoop<2>::exec<int,<lambda_abb16998277e9dd3eabc868afcc2e6f8>,<lambda_abb16998277e9dd3eabc868afcc2e6f8> >(int,int,<lambda_abb16998277e9dd3eabc868afcc2e6f8>,<lambda_abb16998277e9dd3eabc868afcc2e6f8>,int)
PUBLIC 9be80 0 `anonymous namespace'::UnrollTailLoop<3>::exec<int,<lambda_abb16998277e9dd3eabc868afcc2e6f8>,<lambda_abb16998277e9dd3eabc868afcc2e6f8> >(int,int,<lambda_abb16998277e9dd3eabc868afcc2e6f8>,<lambda_abb16998277e9dd3eabc868afcc2e6f8>,int)
PUBLIC 9bef0 0 `anonymous namespace'::UnrollTailLoop<4>::exec<int,<lambda_abb16998277e9dd3eabc868afcc2e6f8>,<lambda_abb16998277e9dd3eabc868afcc2e6f8> >(int,int,<lambda_abb16998277e9dd3eabc868afcc2e6f8>,<lambda_abb16998277e9dd3eabc868afcc2e6f8>,int)
PUBLIC 9bf60 0 `anonymous namespace'::UnrollTailLoop<5>::exec<int,<lambda_abb16998277e9dd3eabc868afcc2e6f8>,<lambda_abb16998277e9dd3eabc868afcc2e6f8> >(int,int,<lambda_abb16998277e9dd3eabc868afcc2e6f8>,<lambda_abb16998277e9dd3eabc868afcc2e6f8>,int)
PUBLIC 9bfd0 0 `anonymous namespace'::UnrollTailLoop<6>::exec<int,<lambda_abb16998277e9dd3eabc868afcc2e6f8>,<lambda_abb16998277e9dd3eabc868afcc2e6f8> >(int,int,<lambda_abb16998277e9dd3eabc868afcc2e6f8>,<lambda_abb16998277e9dd3eabc868afcc2e6f8>,int)
PUBLIC 9c040 0 `anonymous namespace'::UnrollTailLoop<7>::exec<int,<lambda_abb16998277e9dd3eabc868afcc2e6f8>,<lambda_abb16998277e9dd3eabc868afcc2e6f8> >(int,int,<lambda_abb16998277e9dd3eabc868afcc2e6f8>,<lambda_abb16998277e9dd3eabc868afcc2e6f8>,int)
PUBLIC 9c0b0 0 `anonymous namespace'::UnrollTailLoop<8>::exec<int,<lambda_abb16998277e9dd3eabc868afcc2e6f8>,<lambda_abb16998277e9dd3eabc868afcc2e6f8> >(int,int,<lambda_abb16998277e9dd3eabc868afcc2e6f8>,<lambda_abb16998277e9dd3eabc868afcc2e6f8>,int)
PUBLIC 9c120 0 `anonymous namespace'::UnrollTailLoop<9>::exec<int,<lambda_abb16998277e9dd3eabc868afcc2e6f8>,<lambda_abb16998277e9dd3eabc868afcc2e6f8> >(int,int,<lambda_abb16998277e9dd3eabc868afcc2e6f8>,<lambda_abb16998277e9dd3eabc868afcc2e6f8>,int)
PUBLIC 9c190 0 `anonymous namespace'::UnrollTailLoop<10>::exec<int,<lambda_abb16998277e9dd3eabc868afcc2e6f8>,<lambda_abb16998277e9dd3eabc868afcc2e6f8> >(int,int,<lambda_abb16998277e9dd3eabc868afcc2e6f8>,<lambda_abb16998277e9dd3eabc868afcc2e6f8>,int)
PUBLIC 9c200 0 `anonymous namespace'::UnrollTailLoop<11>::exec<int,<lambda_abb16998277e9dd3eabc868afcc2e6f8>,<lambda_abb16998277e9dd3eabc868afcc2e6f8> >(int,int,<lambda_abb16998277e9dd3eabc868afcc2e6f8>,<lambda_abb16998277e9dd3eabc868afcc2e6f8>,int)
PUBLIC 9c270 0 `anonymous namespace'::UnrollTailLoop<12>::exec<int,<lambda_abb16998277e9dd3eabc868afcc2e6f8>,<lambda_abb16998277e9dd3eabc868afcc2e6f8> >(int,int,<lambda_abb16998277e9dd3eabc868afcc2e6f8>,<lambda_abb16998277e9dd3eabc868afcc2e6f8>,int)
PUBLIC 9c2e0 0 `anonymous namespace'::UnrollTailLoop<13>::exec<int,<lambda_abb16998277e9dd3eabc868afcc2e6f8>,<lambda_abb16998277e9dd3eabc868afcc2e6f8> >(int,int,<lambda_abb16998277e9dd3eabc868afcc2e6f8>,<lambda_abb16998277e9dd3eabc868afcc2e6f8>,int)
PUBLIC 9c350 0 `anonymous namespace'::UnrollTailLoop<2>::exec<int,<lambda_e5729918b468e51f32d5c145b5d6cd82>,<lambda_9f59965aaf4c9c2ba8f2fd8083239f6d> >(int,int,<lambda_e5729918b468e51f32d5c145b5d6cd82>,<lambda_9f59965aaf4c9c2ba8f2fd8083239f6d>,int)
PUBLIC 9c3b0 0 `anonymous namespace'::UnrollTailLoop<3>::exec<int,<lambda_e5729918b468e51f32d5c145b5d6cd82>,<lambda_9f59965aaf4c9c2ba8f2fd8083239f6d> >(int,int,<lambda_e5729918b468e51f32d5c145b5d6cd82>,<lambda_9f59965aaf4c9c2ba8f2fd8083239f6d>,int)
PUBLIC 9c410 0 `anonymous namespace'::UnrollTailLoop<4>::exec<int,<lambda_e5729918b468e51f32d5c145b5d6cd82>,<lambda_9f59965aaf4c9c2ba8f2fd8083239f6d> >(int,int,<lambda_e5729918b468e51f32d5c145b5d6cd82>,<lambda_9f59965aaf4c9c2ba8f2fd8083239f6d>,int)
PUBLIC 9c470 0 `anonymous namespace'::UnrollTailLoop<5>::exec<int,<lambda_e5729918b468e51f32d5c145b5d6cd82>,<lambda_9f59965aaf4c9c2ba8f2fd8083239f6d> >(int,int,<lambda_e5729918b468e51f32d5c145b5d6cd82>,<lambda_9f59965aaf4c9c2ba8f2fd8083239f6d>,int)
PUBLIC 9c4d0 0 `anonymous namespace'::UnrollTailLoop<6>::exec<int,<lambda_e5729918b468e51f32d5c145b5d6cd82>,<lambda_9f59965aaf4c9c2ba8f2fd8083239f6d> >(int,int,<lambda_e5729918b468e51f32d5c145b5d6cd82>,<lambda_9f59965aaf4c9c2ba8f2fd8083239f6d>,int)
PUBLIC 9c530 0 `anonymous namespace'::UnrollTailLoop<7>::exec<int,<lambda_e5729918b468e51f32d5c145b5d6cd82>,<lambda_9f59965aaf4c9c2ba8f2fd8083239f6d> >(int,int,<lambda_e5729918b468e51f32d5c145b5d6cd82>,<lambda_9f59965aaf4c9c2ba8f2fd8083239f6d>,int)
PUBLIC 9c590 0 `anonymous namespace'::UnrollTailLoop<8>::exec<int,<lambda_e5729918b468e51f32d5c145b5d6cd82>,<lambda_9f59965aaf4c9c2ba8f2fd8083239f6d> >(int,int,<lambda_e5729918b468e51f32d5c145b5d6cd82>,<lambda_9f59965aaf4c9c2ba8f2fd8083239f6d>,int)
PUBLIC 9c5f0 0 `anonymous namespace'::UnrollTailLoop<9>::exec<int,<lambda_e5729918b468e51f32d5c145b5d6cd82>,<lambda_9f59965aaf4c9c2ba8f2fd8083239f6d> >(int,int,<lambda_e5729918b468e51f32d5c145b5d6cd82>,<lambda_9f59965aaf4c9c2ba8f2fd8083239f6d>,int)
PUBLIC 9c650 0 `anonymous namespace'::UnrollTailLoop<10>::exec<int,<lambda_e5729918b468e51f32d5c145b5d6cd82>,<lambda_9f59965aaf4c9c2ba8f2fd8083239f6d> >(int,int,<lambda_e5729918b468e51f32d5c145b5d6cd82>,<lambda_9f59965aaf4c9c2ba8f2fd8083239f6d>,int)
PUBLIC 9c6b0 0 `anonymous namespace'::UnrollTailLoop<11>::exec<int,<lambda_e5729918b468e51f32d5c145b5d6cd82>,<lambda_9f59965aaf4c9c2ba8f2fd8083239f6d> >(int,int,<lambda_e5729918b468e51f32d5c145b5d6cd82>,<lambda_9f59965aaf4c9c2ba8f2fd8083239f6d>,int)
PUBLIC 9c710 0 `anonymous namespace'::UnrollTailLoop<12>::exec<int,<lambda_e5729918b468e51f32d5c145b5d6cd82>,<lambda_9f59965aaf4c9c2ba8f2fd8083239f6d> >(int,int,<lambda_e5729918b468e51f32d5c145b5d6cd82>,<lambda_9f59965aaf4c9c2ba8f2fd8083239f6d>,int)
PUBLIC 9c770 0 `anonymous namespace'::UnrollTailLoop<13>::exec<int,<lambda_e5729918b468e51f32d5c145b5d6cd82>,<lambda_9f59965aaf4c9c2ba8f2fd8083239f6d> >(int,int,<lambda_e5729918b468e51f32d5c145b5d6cd82>,<lambda_9f59965aaf4c9c2ba8f2fd8083239f6d>,int)
PUBLIC 9cba0 0 QVarLengthArray<unsigned short,256>::QVarLengthArray<unsigned short,256>(int)
PUBLIC 9cbf0 0 QVector<QPointF>::QVector<QPointF>(QVector<QPointF> const &)
PUBLIC 9ccb0 0 QString::QString(int,QChar)
PUBLIC 9cd40 0 QString::QString(int,Qt::Initialization)
PUBLIC 9cd80 0 QString::QString(QChar const *,int)
PUBLIC 9ce30 0 QString::QString(QChar)
PUBLIC 9ce80 0 QStringMatcher::QStringMatcher(QChar const *,int,Qt::CaseSensitivity)
PUBLIC 9ced0 0 QMap<int,int>::~QMap<int,int>()
PUBLIC 9cf10 0 QVector<QPointF>::~QVector<QPointF>()
PUBLIC 9cf40 0 QString::operator=(QString const &)
PUBLIC 9cfa0 0 QString::operator=(QChar)
PUBLIC 9d010 0 operator<<(QDataStream &,QString const &)
PUBLIC 9d170 0 QVector<QPointF>::operator==(QVector<QPointF> const &)
PUBLIC 9d210 0 operator==(QString const &,QString const &)
PUBLIC 9d250 0 operator==(QString const &,QStringRef const &)
PUBLIC 9d2b0 0 operator==(QStringRef const &,QStringRef const &)
PUBLIC 9d330 0 operator==(QLatin1String,QStringRef const &)
PUBLIC 9d390 0 QString::operator==(QLatin1String)
PUBLIC 9d410 0 QMap<int,int>::operator[](int const &)
PUBLIC 9d490 0 operator<(QString const &,QString const &)
PUBLIC 9d500 0 QString::operator>(QLatin1String)
PUBLIC 9d570 0 QString::append(QString const &)
PUBLIC 9d620 0 QString::append(QChar const *,int)
PUBLIC 9d6b0 0 QString::append(QChar)
PUBLIC 9d720 0 QString::append(QLatin1String)
PUBLIC 9d790 0 QAbstractConcatenable::appendLatin1To(char const *,int,QChar *)
PUBLIC 9d7b0 0 QString::arg(QString const &,int,QChar)
PUBLIC 9d980 0 QString::arg(double,int,char,int,QChar)
PUBLIC 9dcf0 0 QString::arg(QChar,int,QChar)
PUBLIC 9dda0 0 QString::arg(__int64,int,int,QChar)
PUBLIC 9e0e0 0 QString::arg(unsigned __int64,int,int,QChar)
PUBLIC 9ec50 0 QChar::category(unsigned int)
PUBLIC 9ec70 0 QString::chop(int)
PUBLIC 9ec90 0 QString::compare(QString const &,Qt::CaseSensitivity)
PUBLIC 9ed30 0 QString::compare(QLatin1String,Qt::CaseSensitivity)
PUBLIC 9eda0 0 QString::compare_helper(QChar const *,int,QChar const *,int,Qt::CaseSensitivity)
PUBLIC 9ee20 0 QString::compare_helper(QChar const *,int,char const *,int,Qt::CaseSensitivity)
PUBLIC 9f0d0 0 QMapNode<int,int>::copy(QMapData<int,int> *)
PUBLIC 9f150 0 QString::count(QChar,Qt::CaseSensitivity)
PUBLIC 9f170 0 QMapData<int,int>::createNode(int const &,int const &,QMapNode<int,int> *,bool)
PUBLIC 9f4b0 0 QVector<QPointF>::defaultConstruct(QPointF *,QPointF *)
PUBLIC 9f4e0 0 QMap<int,int>::detach_helper()
PUBLIC 9f550 0 QSharedDataPointer<QLocalePrivate>::detach_helper()
PUBLIC 9f5b0 0 QChar::digitValue(unsigned int)
PUBLIC 9f5d0 0 QVector<QPointF>::end()
PUBLIC 9f640 0 QString::endsWith(QString const &,Qt::CaseSensitivity)
PUBLIC 9f690 0 QString::endsWith(QChar,Qt::CaseSensitivity)
PUBLIC 9f6f0 0 QString::endsWith(QLatin1String,Qt::CaseSensitivity)
PUBLIC 9f720 0 QStringRef::endsWith(QChar,Qt::CaseSensitivity)
PUBLIC 9f7a0 0 QStringRef::endsWith(QLatin1String,Qt::CaseSensitivity)
PUBLIC 9f7e0 0 QString::expand(int)
PUBLIC 9f850 0 QString::fill(QChar,int)
PUBLIC 9fc80 0 QString::fromAscii_helper(char const *,int)
PUBLIC 9fcf0 0 QString::fromLatin1_helper(char const *,int)
PUBLIC 9fd80 0 QString::fromLocal8Bit_helper(char const *,int)
PUBLIC 9fe20 0 QString::fromRawData(QChar const *,int)
PUBLIC 9fea0 0 QString::fromUcs4(unsigned int const *,int)
PUBLIC 9ff00 0 QTextCodec::fromUnicode(QChar const *,int,QTextCodec::ConverterState *)
PUBLIC 9ff30 0 QString::fromUtf16(unsigned short const *,int)
PUBLIC 9ff90 0 QString::fromUtf8_helper(char const *,int)
PUBLIC a0040 0 QStringMatcher::indexIn(QChar const *,int,int)
PUBLIC a0080 0 QString::indexOf(QRegExp &,int)
PUBLIC a00a0 0 QString::indexOf(QString const &,int,Qt::CaseSensitivity)
PUBLIC a00d0 0 QString::indexOf(QChar,int,Qt::CaseSensitivity)
PUBLIC a0100 0 QString::indexOf(QLatin1String,int,Qt::CaseSensitivity)
PUBLIC a0130 0 QStringRef::indexOf(QChar,int,Qt::CaseSensitivity)
PUBLIC a0170 0 QMap<int,int>::insert(int const &,int const &)
PUBLIC a0200 0 QString::insert(int,QChar const *,int)
PUBLIC a02f0 0 QString::insert(int,QChar)
PUBLIC a0370 0 QString::insert(int,QLatin1String)
PUBLIC a0400 0 QChar::isLetterOrNumber_helper(unsigned int)
PUBLIC a0430 0 QChar::isLetter_helper(unsigned int)
PUBLIC a0460 0 QChar::isMark(unsigned int)
PUBLIC a0490 0 QChar::isSpace_helper(unsigned int)
PUBLIC a04c0 0 QString::lastIndexOf(QChar,int,Qt::CaseSensitivity)
PUBLIC a04f0 0 QString::left(int)
PUBLIC a0540 0 QStringRef::left(int)
PUBLIC a0580 0 QString::leftJustified(int,QChar,bool)
PUBLIC a0690 0 QString::leftRef(int)
PUBLIC a0850 0 QString::localeAwareCompare(QString const &)
PUBLIC a0880 0 QString::localeAwareCompare_helper(QChar const *,int,QChar const *,int)
PUBLIC a0910 0 QString::mid(int,int)
PUBLIC a09c0 0 QStringRef::mid(int,int)
PUBLIC a0a60 0 QString::midRef(int,int)
PUBLIC a0b00 0 QString::multiArg(int,QString const * *)
PUBLIC a1010 0 QString::number(int,int)
PUBLIC a10d0 0 QString::number(unsigned int,int)
PUBLIC a1180 0 QString::number(double,char,int)
PUBLIC a1200 0 QString::number(__int64,int)
PUBLIC a12c0 0 QString::number(unsigned __int64,int)
PUBLIC a1380 0 qFindString(QChar const *,int,int,QChar const *,int,Qt::CaseSensitivity)
PUBLIC a15b0 0 qFindStringBoyerMoore(QChar const *,int,int,QChar const *,int,Qt::CaseSensitivity)
PUBLIC a16d0 0 qToLower(char)
PUBLIC a1920 0 qt_from_latin1(unsigned short *,char const *,unsigned int)
PUBLIC a1c70 0 qt_string_normalize(QString *,QString::NormalizationForm,QChar::UnicodeVersion,int)
PUBLIC a1fb0 0 QVector<QPointF>::reallocData(int,int,QFlags<QArrayData::AllocationOption>)
PUBLIC a2180 0 QString::reallocData(unsigned int,bool)
PUBLIC a2290 0 QString::remove(int,int)
PUBLIC a2330 0 QString::remove(QChar,Qt::CaseSensitivity)
PUBLIC a2500 0 QString::replace(QRegExp const &,QString const &)
PUBLIC a2c70 0 QString::replace(int,int,QString const &)
PUBLIC a2d30 0 QString::replace(int,int,QChar const *,int)
PUBLIC a2d70 0 QString::replace(QChar const *,int,QChar const *,int,Qt::CaseSensitivity)
PUBLIC a2f40 0 QString::replace(QChar,QChar,Qt::CaseSensitivity)
PUBLIC a3090 0 QString::replace(QChar,QString const &,Qt::CaseSensitivity)
PUBLIC a32a0 0 QString::replace(QChar,QLatin1String,Qt::CaseSensitivity)
PUBLIC a36a0 0 QString::replace_helper(unsigned int *,int,int,QChar const *,int)
PUBLIC a3990 0 QString::resize(int)
PUBLIC a3a70 0 QString::right(int)
PUBLIC a3ac0 0 QStringRef::right(int)
PUBLIC a3b00 0 QString::rightJustified(int,QChar,bool)
PUBLIC a3c10 0 QString::setNum(double,char,int)
PUBLIC a3cc0 0 QString::setUtf16(unsigned short const *,int)
PUBLIC a3d00 0 QString::simplified()
PUBLIC a40d0 0 QString::split(QString const &,QString::SplitBehavior,Qt::CaseSensitivity)
PUBLIC a4110 0 QString::split(QChar,QString::SplitBehavior,Qt::CaseSensitivity)
PUBLIC a4150 0 QString::sprintf(char const *,...)
PUBLIC a4170 0 QString::startsWith(QString const &,Qt::CaseSensitivity)
PUBLIC a41c0 0 QString::startsWith(QChar,Qt::CaseSensitivity)
PUBLIC a4220 0 QString::startsWith(QLatin1String,Qt::CaseSensitivity)
PUBLIC a4250 0 QStringRef::startsWith(QChar,Qt::CaseSensitivity)
PUBLIC a42d0 0 QChar::toCaseFolded()
PUBLIC a4320 0 QString::toCaseFolded()
PUBLIC a45b0 0 QString::toDouble(bool *)
PUBLIC a45d0 0 QString::toFloat(bool *)
PUBLIC a4680 0 QString::toInt(bool *,int)
PUBLIC a46e0 0 QStringRef::toInt(bool *,int)
PUBLIC a4760 0 QString::toLatin1_helper(QString const &)
PUBLIC a47a0 0 QString::toLatin1_helper(QChar const *,int)
PUBLIC a47e0 0 QString::toLocal8Bit_helper(QChar const *,int)
PUBLIC a4830 0 QString::toLongLong(bool *,int)
PUBLIC a4860 0 QChar::toLower(unsigned int)
PUBLIC a48a0 0 QString::toLower()
PUBLIC a4bc0 0 QStringRef::toString()
PUBLIC a4c40 0 QString::toUInt(bool *,int)
PUBLIC a4c90 0 QString::toULongLong(bool *,int)
PUBLIC a4cc0 0 QString::toUShort(bool *,int)
PUBLIC a4d20 0 QTextCodec::toUnicode(char const *,int,QTextCodec::ConverterState *)
PUBLIC a4d50 0 QChar::toUpper(unsigned int)
PUBLIC a4d90 0 QString::toUpper()
PUBLIC a50b0 0 QString::toUtf8_helper(QString const &)
PUBLIC a50f0 0 QString::trimmed()
PUBLIC a5290 0 QString::truncate(int)
PUBLIC a5710 0 QChar::unicodeVersion(unsigned int)
PUBLIC a5730 0 QString::utf16()
PUBLIC a5750 0 QString::vsprintf(char const *,char *)
PUBLIC a6220 0 QFile::QFile(QString const &)
PUBLIC a62d0 0 QFile::QFile()
PUBLIC a6360 0 QFile::~QFile()
PUBLIC a6370 0 QFileSystemEntry::~QFileSystemEntry()
PUBLIC a63d0 0 QFile::`vector deleting destructor'(unsigned int)
PUBLIC a6400 0 QFilePrivate::`vector deleting destructor'(unsigned int)
PUBLIC a6460 0 QFilePrivate::engine()
PUBLIC a6490 0 QFile::exists()
PUBLIC a64c0 0 QFile::exists(QString const &)
PUBLIC a64d0 0 QFile::fileName()
PUBLIC a6500 0 QFile::open(QFlags<QIODevice::OpenModeFlag>)
PUBLIC a6710 0 QFile::permissions()
PUBLIC a6720 0 QFile::remove()
PUBLIC a6840 0 QFile::remove(QString const &)
PUBLIC a68b0 0 QFile::resize(__int64)
PUBLIC a68c0 0 QFile::setFileName(QString const &)
PUBLIC a6a00 0 QFile::setPermissions(QFlags<QFileDevice::Permission>)
PUBLIC a6a10 0 QFile::size()
PUBLIC a6a20 0 std::_Adjust_heap<QDirSortItem *,int,QDirSortItem,QDirSortItemComparator>(QDirSortItem *,int,int,QDirSortItem &&,QDirSortItemComparator)
PUBLIC a6b10 0 std::_Insertion_sort1<QDirSortItem *,QDirSortItemComparator,QDirSortItem>(QDirSortItem *,QDirSortItem *,QDirSortItemComparator,QDirSortItem *)
PUBLIC a6d10 0 std::_Make_heap<QDirSortItem *,int,QDirSortItem,QDirSortItemComparator>(QDirSortItem *,QDirSortItem *,QDirSortItemComparator,int *,QDirSortItem *)
PUBLIC a6e70 0 std::_Med3<QDirSortItem *,QDirSortItemComparator>(QDirSortItem *,QDirSortItem *,QDirSortItem *,QDirSortItemComparator)
PUBLIC a6ed0 0 std::_Median<QDirSortItem *,QDirSortItemComparator>(QDirSortItem *,QDirSortItem *,QDirSortItem *,QDirSortItemComparator)
PUBLIC a6f80 0 std::_Move_backward<QDirSortItem *,QDirSortItem *>(QDirSortItem *,QDirSortItem *,QDirSortItem *,std::_Nonscalar_ptr_iterator_tag)
PUBLIC a6fd0 0 std::_Pop_heap_0<QDirSortItem *,QDirSortItem,QDirSortItemComparator>(QDirSortItem *,QDirSortItem *,QDirSortItemComparator,QDirSortItem *)
PUBLIC a70d0 0 std::_Push_heap<QDirSortItem *,int,QDirSortItem,QDirSortItemComparator>(QDirSortItem *,int,int,QDirSortItem &&,QDirSortItemComparator)
PUBLIC a7180 0 std::_Sort<QDirSortItem *,int,QDirSortItemComparator>(QDirSortItem *,QDirSortItem *,int,QDirSortItemComparator)
PUBLIC a72c0 0 std::_Sort_heap<QDirSortItem *,QDirSortItemComparator>(QDirSortItem *,QDirSortItem *,QDirSortItemComparator)
PUBLIC a7320 0 std::_Unguarded_partition<QDirSortItem *,QDirSortItemComparator>(QDirSortItem *,QDirSortItem *,QDirSortItemComparator)
PUBLIC a7530 0 QStringBuilder<QStringBuilder<QString,QLatin1Char>,QString>::convertTo<QString>()
PUBLIC a7600 0 QStringBuilder<QString,QLatin1Char>::convertTo<QString>()
PUBLIC a76a0 0 std::swap<QDirSortItem>(QDirSortItem &,QDirSortItem &)
PUBLIC a7790 0 QList<QFileInfo>::QList<QFileInfo>(QList<QFileInfo> const &)
PUBLIC a7850 0 QVarLengthArray<QChar,256>::QVarLengthArray<QChar,256>(int)
PUBLIC a78c0 0 QDir::QDir(QString const &)
PUBLIC a79c0 0 QDirPrivate::QDirPrivate(QDirPrivate const &)
PUBLIC a7ac0 0 QDirPrivate::QDirPrivate(QString const &,QStringList const &,QFlags<QDir::SortFlag>,QFlags<QDir::Filter>)
PUBLIC a7d60 0 QDirSortItem::QDirSortItem()
PUBLIC a7dc0 0 QWriteLocker::QWriteLocker(QReadWriteLock *)
PUBLIC a7df0 0 QList<QFileInfo>::~QList<QFileInfo>()
PUBLIC a7e50 0 QScopedArrayPointer<QDirSortItem,QScopedPointerArrayDeleter<QDirSortItem> >::~QScopedArrayPointer<QDirSortItem,QScopedPointerArrayDeleter<QDirSortItem> >()
PUBLIC a7e80 0 QScopedPointer<QAbstractFileEngine,QScopedPointerDeleter<QAbstractFileEngine> >::~QScopedPointer<QAbstractFileEngine,QScopedPointerDeleter<QAbstractFileEngine> >()
PUBLIC a7e90 0 QScopedPointer<QDirPrivate,QScopedPointerDeleter<QDirPrivate> >::~QScopedPointer<QDirPrivate,QScopedPointerDeleter<QDirPrivate> >()
PUBLIC a7eb0 0 QSharedDataPointer<QDirPrivate>::~QSharedDataPointer<QDirPrivate>()
PUBLIC a7ee0 0 QDirPrivate::~QDirPrivate()
PUBLIC a7ff0 0 QDirSortItem::~QDirSortItem()
PUBLIC a8090 0 QReadLocker::~QReadLocker()
PUBLIC a80b0 0 QSharedDataPointer<QDirPrivate>::operator=(QDirPrivate *)
PUBLIC a8100 0 QFileSystemEntry::operator=(QFileSystemEntry const &)
PUBLIC a8140 0 QList<QString>::operator==(QList<QString> const &)
PUBLIC a81b0 0 QStringBuilder<QStringBuilder<QString,QLatin1Char>,QString>::operator QString()
PUBLIC a81d0 0 QStringBuilder<QString,QLatin1Char>::operator QString()
PUBLIC a81f0 0 QDirSortItemComparator::operator()(QDirSortItem const &,QDirSortItem const &)
PUBLIC a8710 0 QDir::absoluteFilePath(QString const &)
PUBLIC a8950 0 QDir::absolutePath()
PUBLIC a8980 0 QList<QFileInfo>::append(QFileInfo const &)
PUBLIC a8a60 0 QDir::canonicalPath()
PUBLIC a8b00 0 QDir::cd(QString const &)
PUBLIC a8ec0 0 QDir::cdUp()
PUBLIC a8f50 0 QDir::cleanPath(QString const &)
PUBLIC a90e0 0 QDirPrivate::clearFileLists()
PUBLIC a9150 0 QDir::currentPath()
PUBLIC a9210 0 QMapNode<QString,QStringList>::destroySubTree()
PUBLIC a92a0 0 QSharedDataPointer<QDirPrivate>::detach_helper()
PUBLIC a9340 0 QList<QFileInfo>::detach_helper_grow(int,int)
PUBLIC a94a0 0 QDir::dirName()
PUBLIC a94c0 0 QDir::entryList(QStringList const &,QFlags<QDir::Filter>,QFlags<QDir::SortFlag>)
PUBLIC a9710 0 QDir::entryList(QFlags<QDir::Filter>,QFlags<QDir::SortFlag>)
PUBLIC a9740 0 QDir::exists()
PUBLIC a9750 0 QDirPrivate::exists()
PUBLIC a97c0 0 QDir::filePath(QString const &)
PUBLIC a9920 0 QDir::fromNativeSeparators(QString const &)
PUBLIC a9a70 0 QDir::homePath()
PUBLIC a9a90 0 QDirPrivate::initFileLists(QDir const &)
PUBLIC a9bd0 0 QChar::isLetter()
PUBLIC a9c00 0 QDir::isRoot()
PUBLIC a9c40 0 QMapNode<QString,QLibraryPrivate *>::lowerBound(QString const &)
PUBLIC a9c80 0 QDir::mkpath(QString const &)
PUBLIC a9d90 0 QList<QFileInfo>::node_copy(QList<QFileInfo>::Node *,QList<QFileInfo>::Node *,QList<QFileInfo>::Node *)
PUBLIC a9e30 0 QList<QFileInfo>::node_destruct(QList<QFileInfo>::Node *,QList<QFileInfo>::Node *)
PUBLIC a9e60 0 QDir::path()
PUBLIC a9e80 0 qt_normalizePathSegments(QString const &,bool)
PUBLIC aa210 0 QDir::removeRecursively()
PUBLIC aa4c0 0 QDirPrivate::resolveAbsoluteEntry()
PUBLIC aa6a0 0 QDir::rmdir(QString const &)
PUBLIC aa7b0 0 QDir::searchPaths(QString const &)
PUBLIC aa8b0 0 QDir::separator()
PUBLIC aa8c0 0 QDirPrivate::setPath(QString const &)
PUBLIC aab20 0 QDirPrivate::sortFileList(QFlags<QDir::SortFlag>,QList<QFileInfo> &,QStringList *,QList<QFileInfo> *)
PUBLIC aadc0 0 QDir::tempPath()
PUBLIC aade0 0 QDir::toNativeSeparators(QString const &)
PUBLIC aaf30 0 QMap<QString,QStringList>::value(QString const &,QStringList const &)
PUBLIC aafa0 0 QObject::qt_static_metacall(QObject *,QMetaObject::Call,int,void * *)
PUBLIC ab190 0 operator<<<QByteArray>(QDebug,QList<QByteArray> const &)
PUBLIC ab360 0 std::_Upper_bound<QPostEvent *,QPostEvent,int,std::less<void> >(QPostEvent *,QPostEvent *,QPostEvent const &,std::less<void>,int *)
PUBLIC ab3c0 0 qDeleteAll<QDirIteratorPrivateIteratorStack<QAbstractFileEngineIterator> >(QDirIteratorPrivateIteratorStack<QAbstractFileEngineIterator> const &)
PUBLIC ab410 0 QList<QAbstractEventDispatcher::TimerInfo>::QList<QAbstractEventDispatcher::TimerInfo>(QList<QAbstractEventDispatcher::TimerInfo> const &)
PUBLIC ab4d0 0 QVarLengthArray<QArgumentType,10>::QVarLengthArray<QArgumentType,10>(int)
PUBLIC ab540 0 QObjectPrivate::ExtraData::ExtraData()
PUBLIC ab570 0 QMetaCallEvent::QMetaCallEvent(unsigned short,unsigned short,void (*)(QObject *,QMetaObject::Call,int,void * *),QObject const *,int,int,int *,void * *,QSemaphore *)
PUBLIC ab5d0 0 QMetaCallEvent::QMetaCallEvent(QtPrivate::QSlotObjectBase *,QObject const *,int,int,int *,void * *,QSemaphore *)
PUBLIC ab640 0 QObject::QObject(QObjectPrivate &,QObject *)
PUBLIC ab740 0 QObject::QObject(QObject *)
PUBLIC ab8b0 0 QObjectPrivate::QObjectPrivate(int)
PUBLIC ab970 0 QOrderedMutexLocker::QOrderedMutexLocker(QMutex *,QMutex *)
PUBLIC ab9c0 0 QScopedArrayPointer<int,QScopedPointerArrayDeleter<int> >::~QScopedArrayPointer<int,QScopedPointerArrayDeleter<int> >()
PUBLIC ab9d0 0 QScopedPointer<QObjectPrivate::Connection,QScopedPointerDeleter<QObjectPrivate::Connection> >::~QScopedPointer<QObjectPrivate::Connection,QScopedPointerDeleter<QObjectPrivate::Connection> >()
PUBLIC aba20 0 QScopedPointer<QtPrivate::QSlotObjectBase,QSlotObjectBaseDeleter>::~QScopedPointer<QtPrivate::QSlotObjectBase,QSlotObjectBaseDeleter>()
PUBLIC aba50 0 QVarLengthArray<QArgumentType,10>::~QVarLengthArray<QArgumentType,10>()
PUBLIC abab0 0 QStack<QAbstractFileEngineIterator *>::~QStack<QAbstractFileEngineIterator *>()
PUBLIC abae0 0 QMetaObject::Connection::~Connection()
PUBLIC abb40 0 QObjectPrivate::ExtraData::~ExtraData()
PUBLIC abcc0 0 QArgumentType::~QArgumentType()
PUBLIC abcf0 0 QConnectionSenderSwitcher::~QConnectionSenderSwitcher()
PUBLIC abd20 0 QMetaCallEvent::~QMetaCallEvent()
PUBLIC abdf0 0 QObject::~QObject()
PUBLIC ac360 0 QObjectData::~QObjectData()
PUBLIC ac390 0 QObjectPrivate::~QObjectPrivate()
PUBLIC ac4f0 0 QOrderedMutexLocker::~QOrderedMutexLocker()
PUBLIC ac520 0 operator<<(QDebug,QObject const *)
PUBLIC ac6e0 0 QList<QVariant>::operator[](int)
PUBLIC ac710 0 QVector<QObjectPrivate::ConnectionList>::operator[](int)
PUBLIC ac780 0 QMetaCallEvent::`vector deleting destructor'(unsigned int)
PUBLIC ac7a0 0 QEventLoopPrivate::`vector deleting destructor'(unsigned int)
PUBLIC ac7c0 0 QObjectPrivate::_q_reregisterTimers(void *)
PUBLIC ac820 0 QMetaObject::activate(QObject *,int,int,void * *)
PUBLIC ace90 0 QMetaObject::activate(QObject *,QMetaObject const *,int,void * *)
PUBLIC acec0 0 QObjectPrivate::addConnection(int,QObjectPrivate::Connection *)
PUBLIC acfe0 0 QPostEventList::addEvent(QPostEvent const &)
PUBLIC ad060 0 QVector<QPostEvent>::append(QPostEvent const &)
PUBLIC ad0f0 0 QVector<QPostEvent>::begin()
PUBLIC ad150 0 QObject::blockSignals(bool)
PUBLIC ad330 0 QObjectPrivate::cleanConnectionLists()
PUBLIC ad430 0 QVarLengthArray<QArgumentType,10>::clear()
PUBLIC ad450 0 QtPrivate::QSlotObjectBase::compare(void * *)
PUBLIC ad470 0 QMetaObjectPrivate::connect(QObject const *,int,QMetaObject const *,QObject const *,int,QMetaObject const *,int,int *)
PUBLIC ad6d0 0 QObject::connect(QObject const *,char const *,QObject const *,char const *,Qt::ConnectionType)
PUBLIC adc70 0 QObject::connectImpl(QObject const *,void * *,QObject const *,void * *,QtPrivate::QSlotObjectBase *,Qt::ConnectionType,int const *,QMetaObject const *)
PUBLIC addd0 0 QObjectPrivate::connectImpl(QObject const *,int,QObject const *,void * *,QtPrivate::QSlotObjectBase *,Qt::ConnectionType,int const *,QMetaObject const *)
PUBLIC ae0b0 0 QVector<QObjectPrivate::ConnectionList>::defaultConstruct(QObjectPrivate::ConnectionList *,QObjectPrivate::ConnectionList *)
PUBLIC ae0e0 0 QVector<QPostEvent>::defaultConstruct(QPostEvent *,QPostEvent *)
PUBLIC ae120 0 QObjectPrivate::deleteChildren()
PUBLIC ae1d0 0 QObject::deleteLater()
PUBLIC ae240 0 QObjectPrivate::Connection::deref()
PUBLIC ae2a0 0 QtPrivate::QSlotObjectBase::destroyIfLastRef()
PUBLIC ae2c0 0 QObject::destroyed(QObject *)
PUBLIC ae300 0 QVector<int>::detach()
PUBLIC ae350 0 QVector<QPostEvent>::detach()
PUBLIC ae3a0 0 QList<QVariant>::detach_helper(int)
PUBLIC ae470 0 QMetaObjectPrivate::disconnect(QObject const *,int,QMetaObject const *,QObject const *,int,void * *,QMetaObjectPrivate::DisconnectType)
PUBLIC ae660 0 QObject::disconnect(QObject const *,char const *,QObject const *,char const *)
PUBLIC aec00 0 QMetaObjectPrivate::disconnectHelper(QObjectPrivate::Connection *,QObject const *,int,void * *,QMutex *,QMetaObjectPrivate::DisconnectType)
PUBLIC aed90 0 QObjectData::dynamicMetaObject()
PUBLIC aedb0 0 QVector<QPostEvent>::end()
PUBLIC af260 0 QObject::event(QEvent *)
PUBLIC af560 0 QVector<int>::indexOf(int const &,int)
PUBLIC af5e0 0 QVector<QPostEvent>::insert(QPostEvent *,int,QPostEvent const &)
PUBLIC af6e0 0 QObject::killTimer(int)
PUBLIC af8a0 0 QObject::metaObject()
PUBLIC af8d0 0 QObject::moveToThread(QThread *)
PUBLIC afab0 0 QObjectPrivate::moveToThread_helper()
PUBLIC afb70 0 QArgumentType::name()
PUBLIC afbd0 0 QList<IOResult>::node_copy(QList<IOResult>::Node *,QList<IOResult>::Node *,QList<IOResult>::Node *)
PUBLIC afc80 0 QList<`anonymous namespace'::Receiver>::node_destruct(QList<`anonymous namespace'::Receiver>::Node *,QList<`anonymous namespace'::Receiver>::Node *)
PUBLIC afcd0 0 QObject::objectName()
PUBLIC afda0 0 QObject::objectNameChanged(QString const &,QObject::QPrivateSignal)
PUBLIC afde0 0 QMetaCallEvent::placeMetaCall(QObject *)
PUBLIC afe60 0 QObject::property(char const *)
PUBLIC aff30 0 QObject::qt_metacall(QMetaObject::Call,int,void * *)
PUBLIC b0010 0 QObject::qt_metacast(char const *)
PUBLIC b0060 0 qt_qFindChildren_helper(QObject const *,QString const &,QMetaObject const &,QList<void *> *,QFlags<Qt::FindChildOption>)
PUBLIC b0950 0 QVarLengthArray<QArgumentType,10>::realloc(int,int)
PUBLIC b0af0 0 QVector<QObjectPrivate::ConnectionList>::reallocData(int,int,QFlags<QArrayData::AllocationOption>)
PUBLIC b0c70 0 QVector<QPostEvent>::reallocData(int,int,QFlags<QArrayData::AllocationOption>)
PUBLIC b0e50 0 QList<QObject *>::removeAt(int)
PUBLIC b0e90 0 QList<QVariant>::removeAt(int)
PUBLIC b0ef0 0 QCoreApplication::sendEvent(QObject *,QEvent *)
PUBLIC b0f20 0 QObject::sender()
PUBLIC b0f90 0 QObject::setObjectName(QString const &)
PUBLIC b1040 0 QObject::setParent(QObject *)
PUBLIC b1050 0 QObjectPrivate::setParent_helper(QObject *)
PUBLIC b1230 0 QObject::setProperty(char const *,QVariant const &)
PUBLIC b1430 0 QObjectPrivate::setThreadData_helper(QThreadData *,QThreadData *)
PUBLIC b1530 0 QObject::startTimer(int,Qt::TimerType)
PUBLIC b1650 0 QObject::thread()
PUBLIC b1660 0 QList<QVariant>::value(int)
PUBLIC b16b0 0 QList<bool (*)(void * *)>::QList<bool (*)(void * *)>(QList<bool (*)(void * *)> const &)
PUBLIC b1770 0 std::bad_alloc::bad_alloc(std::bad_alloc const &)
PUBLIC b1800 0 std::bad_alloc::~bad_alloc()
PUBLIC b1810 0 QVector<QList<bool (*)(void * *)> >::operator[](int)
PUBLIC b1880 0 std::bad_alloc::`vector deleting destructor'(unsigned int)
PUBLIC b18b0 0 QInternal::activateCallbacks(QInternal::Callback,void * *)
PUBLIC b19b0 0 QVector<QList<bool (*)(void * *)> >::defaultConstruct(QList<bool (*)(void * *)> *,QList<bool (*)(void * *)> *)
PUBLIC b19e0 0 QVector<QList<bool (*)(void * *)> >::destruct(QList<bool (*)(void * *)> *,QList<bool (*)(void * *)> *)
PUBLIC b1a30 0 `anonymous namespace'::Q_QGS_global_callback_table::innerFunction()
PUBLIC b1af0 0 qBadAlloc()
PUBLIC b1b30 0 qEnvironmentVariableIsEmpty(char const *)
PUBLIC b1b60 0 qEnvironmentVariableIsSet(char const *)
PUBLIC b1b90 0 qTerminate()
PUBLIC b1ba0 0 qgetenv(char const *)
PUBLIC b1cd0 0 qrand()
PUBLIC b1ce0 0 qt_error_string(int)
PUBLIC b1f10 0 QVector<QList<bool (*)(void * *)> >::reallocData(int,int,QFlags<QArrayData::AllocationOption>)
PUBLIC b22a0 0 QSysInfo::windowsVersion()
PUBLIC b2640 0 operator+=<QStringBuilder<QLatin1String,QString>,QLatin1Char>(QString &,QStringBuilder<QStringBuilder<QLatin1String,QString>,QLatin1Char> const &)
PUBLIC b2750 0 QMessagePattern::QMessagePattern()
PUBLIC b28d0 0 QDebug::Stream::Stream(QtMsgType)
PUBLIC b2940 0 QMessagePattern::~QMessagePattern()
PUBLIC b2ab0 0 QMessageLogger::critical(char const *,...)
PUBLIC b2b80 0 QMessageLogger::debug(char const *,...)
PUBLIC b2c10 0 QMessageLogger::debug()
PUBLIC b2ca0 0 QMessageLogger::fatal(char const *,...)
PUBLIC b2d60 0 QString::fromLocal8Bit(QByteArray const &)
PUBLIC b2db0 0 `anonymous namespace'::Q_QGS_qMessagePattern::innerFunction()
PUBLIC b2f90 0 qCleanupFuncinfo(QByteArray)
PUBLIC b3390 0 qErrnoWarning(int,char const *,...)
PUBLIC b3510 0 qErrnoWarning(char const *,...)
PUBLIC b3690 0 qFormatLogMessage(QtMsgType,QMessageLogContext const &,QString const &)
PUBLIC b3d30 0 qt_message_output(QtMsgType,QMessageLogContext const &,QString const &)
PUBLIC b3e80 0 QVarLengthArray<QEvent *,256>::realloc(int,int)
PUBLIC b3f30 0 QMessagePattern::setPattern(QString const &)
PUBLIC b4980 0 QMessageLogger::warning(char const *,...)
PUBLIC b4a50 0 QMessageLogger::warning()
PUBLIC b4ba0 0 QByteArray::QByteArray(int,char)
PUBLIC b4c10 0 QByteArray::QByteArray(int,Qt::Initialization)
PUBLIC b4c50 0 QByteArray::QByteArray(char const *,int)
PUBLIC b4cf0 0 QScopedPointer<QTypedArrayData<char>,QScopedPointerPodDeleter>::~QScopedPointer<QTypedArrayData<char>,QScopedPointerPodDeleter>()
PUBLIC b4d00 0 QByteArray::operator=(QByteArray const &)
PUBLIC b4d60 0 QByteArray::operator=(char const *)
PUBLIC b4e60 0 operator<<(QDataStream &,QByteArray const &)
PUBLIC b4ea0 0 QByteArray::append(QByteArray const &)
PUBLIC b4f60 0 QByteArray::append(char)
PUBLIC b4fd0 0 QByteArray::append(char const *)
PUBLIC b5060 0 QByteArray::append(char const *,int)
PUBLIC b5110 0 QByteArray::chop(int)
PUBLIC b5130 0 QByteArray::clear()
PUBLIC b5170 0 QByteArray::endsWith(char)
PUBLIC b51a0 0 QByteArray::endsWith(char const *)
PUBLIC b5210 0 QByteArray::expand(int)
PUBLIC b5240 0 QByteArray::fromBase64(QByteArray const &)
PUBLIC b5270 0 QByteArray::fromBase64(QByteArray const &,QFlags<QByteArray::Base64Option>)
PUBLIC b5400 0 QByteArray::fromPercentEncoding(QByteArray const &,char)
PUBLIC b5500 0 QByteArray::fromRawData(char const *,int)
PUBLIC b5580 0 QByteArray::indexOf(QByteArray const &,int)
PUBLIC b55f0 0 QByteArray::indexOf(char,int)
PUBLIC b5660 0 QByteArray::indexOf(char const *,int)
PUBLIC b56e0 0 QByteArray::insert(int,char const *)
PUBLIC b5730 0 QByteArray::isNull()
PUBLIC b5740 0 QByteArray::lastIndexOf(char,int)
PUBLIC b5790 0 QByteArray::left(int)
PUBLIC b57e0 0 QByteArray::leftJustified(int,char,bool)
PUBLIC b58f0 0 QByteArray::mid(int,int)
PUBLIC b59a0 0 QByteArray::nulTerminated()
PUBLIC b5ab0 0 QByteArray::number(int,int)
PUBLIC b5b40 0 QByteArray::number(double,char,int)
PUBLIC b5bc0 0 QByteArray::number(__int64,int)
PUBLIC b5c30 0 QByteArray::number(unsigned __int64,int)
PUBLIC b5d00 0 QByteArray::prepend(QByteArray const &)
PUBLIC b5e00 0 QByteArray::prepend(char)
PUBLIC b5e90 0 QByteArray::prepend(char const *)
PUBLIC b5ed0 0 QByteArray::prepend(char const *,int)
PUBLIC b5f70 0 qAllocMore(int,int)
PUBLIC b5fa0 0 qUncompress(unsigned char const *,int)
PUBLIC b64c0 0 qstrcmp(QByteArray const &,QByteArray const &)
PUBLIC b6560 0 qstrcmp(QByteArray const &,char const *)
PUBLIC b65c0 0 qstrcmp(char const *,char const *)
PUBLIC b6610 0 qstricmp(char const *,char const *)
PUBLIC b6680 0 qstrncpy(char *,char const *,unsigned int)
PUBLIC b6720 0 QByteArray::reallocData(unsigned int,QFlags<QArrayData::AllocationOption>)
PUBLIC b6850 0 QByteArray::remove(int,int)
PUBLIC b68f0 0 QByteArray::replace(char const *,int,char const *,int)
PUBLIC b6d20 0 QScopedPointer<QTypedArrayData<char>,QScopedPointerPodDeleter>::reset(QTypedArrayData<char> *)
PUBLIC b6d40 0 QByteArray::resize(int)
PUBLIC b6e70 0 QByteArray::right(int)
PUBLIC b6ed0 0 QByteArray::rightJustified(int,char,bool)
PUBLIC b6fe0 0 QByteArray::setNum(double,char,int)
PUBLIC b7100 0 QByteArray::setNum(__int64,int)
PUBLIC b71b0 0 QByteArray::setNum(unsigned __int64,int)
PUBLIC b7240 0 QByteArray::split(char)
PUBLIC b73b0 0 QByteArray::startsWith(char)
PUBLIC b73d0 0 QByteArray::startsWith(char const *)
PUBLIC b7430 0 QByteArray::toBase64(QFlags<QByteArray::Base64Option>)
PUBLIC b7720 0 QByteArray::toBase64()
PUBLIC b7750 0 QByteArray::toDouble(bool *)
PUBLIC b77f0 0 QByteArray::toFloat(bool *)
PUBLIC b7890 0 QByteArray::toHex()
PUBLIC b79b0 0 QByteArray::toInt(bool *,int)
PUBLIC b7a70 0 QByteArray::toLongLong(bool *,int)
PUBLIC b7b10 0 QByteArray::toLower()
PUBLIC b7c20 0 QByteArray::toUInt(bool *,int)
PUBLIC b7ce0 0 QByteArray::toULongLong(bool *,int)
PUBLIC b7d80 0 QByteArray::trimmed()
PUBLIC b7e90 0 QByteArray::truncate(int)
PUBLIC b7eb0 0 QString::toLatin1()
PUBLIC b7ed0 0 QString::toLocal8Bit()
PUBLIC b7f00 0 QString::toUtf8()
PUBLIC b7f20 0 QListData::append(QListData const &)
PUBLIC b7f40 0 QListData::append(int)
PUBLIC b8010 0 QListData::append()
PUBLIC b8020 0 QListData::detach(int)
PUBLIC b8080 0 QListData::detach_grow(int *,int)
PUBLIC b8130 0 QListData::erase(void * *)
PUBLIC b8170 0 QListData::insert(int)
PUBLIC b8270 0 QListData::prepend()
PUBLIC b8350 0 QListData::realloc(int)
PUBLIC b8390 0 QListData::remove(int)
PUBLIC b8410 0 QListData::remove(int,int)
PUBLIC b84c0 0 QSingleShotTimer::qt_static_metacall(QObject *,QMetaObject::Call,int,void * *)
PUBLIC b8500 0 QSingleShotTimer::QSingleShotTimer(int,Qt::TimerType,QObject const *,char const *)
PUBLIC b85c0 0 QTimer::QTimer(QObject *)
PUBLIC b8600 0 QPointer<QObject const >::~QPointer<QObject const >()
PUBLIC b8620 0 QSingleShotTimer::~QSingleShotTimer()
PUBLIC b86d0 0 QTimer::~QTimer()
PUBLIC b8740 0 QSingleShotTimer::`vector deleting destructor'(unsigned int)
PUBLIC b8760 0 QTimer::`vector deleting destructor'(unsigned int)
PUBLIC b87e0 0 QSingleShotTimer::metaObject()
PUBLIC b8800 0 QSingleShotTimer::qt_metacall(QMetaObject::Call,int,void * *)
PUBLIC b8860 0 QSingleShotTimer::qt_metacast(char const *)
PUBLIC b88c0 0 QTimer::remainingTime()
PUBLIC b88f0 0 QTimer::setInterval(int)
PUBLIC b8930 0 QTimer::singleShot(int,QObject const *,char const *)
PUBLIC b8960 0 QTimer::singleShot(int,Qt::TimerType,QObject const *,char const *)
PUBLIC b8ae0 0 QTimer::start(int)
PUBLIC b8b40 0 QTimer::start()
PUBLIC b8b90 0 QTimer::stop()
PUBLIC b8bb0 0 QSingleShotTimer::timeout()
PUBLIC b8bd0 0 QSingleShotTimer::timerEvent(QTimerEvent *)
PUBLIC b8c70 0 QTimer::timerEvent(QTimerEvent *)
PUBLIC b8cb0 0 QProcess::qt_static_metacall(QObject *,QMetaObject::Call,int,void * *)
PUBLIC b8eb0 0 QProcess::QProcess(QObject *)
PUBLIC b8f30 0 QProcessPrivate::QProcessPrivate()
PUBLIC b9160 0 QHash<QProcEnvKey,QString>::~QHash<QProcEnvKey,QString>()
PUBLIC b9190 0 QHashNode<QProcEnvKey,QString>::~QHashNode<QProcEnvKey,QString>()
PUBLIC b91f0 0 QProcessPrivate::Channel::~Channel()
PUBLIC b92a0 0 QTimeZonePrivate::Data::~Data()
PUBLIC b92d0 0 QProcess::~QProcess()
PUBLIC b9480 0 QProcessPrivate::~QProcessPrivate()
PUBLIC b9670 0 QProcess::`vector deleting destructor'(unsigned int)
PUBLIC b9690 0 QProcessPrivate::`vector deleting destructor'(unsigned int)
PUBLIC b96b0 0 QProcessPrivate::_q_canWrite()
PUBLIC b98a0 0 QProcessPrivate::_q_processDied()
PUBLIC b9a90 0 QProcessPrivate::_q_startupNotification()
PUBLIC b9ba0 0 QProcess::atEnd()
PUBLIC b9bf0 0 QProcess::bytesAvailable()
PUBLIC b9c20 0 QProcess::bytesToWrite()
PUBLIC b9c40 0 QProcess::canReadLine()
PUBLIC b9c80 0 QProcessPrivate::cleanup()
PUBLIC b9e30 0 QProcessPrivate::Channel::clear()
PUBLIC b9ec0 0 QProcess::close()
PUBLIC b9ef0 0 QProcessPrivate::closeWriteChannel()
PUBLIC b9f30 0 QHash<QByteArray,QByteArray>::createNode(unsigned int,QByteArray const &,QByteArray const &,QHashNode<QByteArray,QByteArray> * *)
PUBLIC b9fb0 0 QHash<QProcEnvKey,QString>::deleteNode2(QHashData::Node *)
PUBLIC b9fc0 0 QHash<QProcEnvKey,QString>::detach()
PUBLIC ba020 0 QProcess::error(QProcess::ProcessError)
PUBLIC ba050 0 QProcess::execute(QString const &,QStringList const &)
PUBLIC ba140 0 QHash<QProcEnvKey,QString>::findNode(QProcEnvKey const &,unsigned int *)
PUBLIC ba200 0 QProcess::finished(int)
PUBLIC ba230 0 QProcess::finished(int,QProcess::ExitStatus)
PUBLIC ba280 0 QRingBuffer::getChar()
PUBLIC ba2d0 0 QRingBuffer::indexOf(char)
PUBLIC ba360 0 QHash<QProcEnvKey,QString>::insert(QProcEnvKey const &,QString const &)
PUBLIC ba430 0 QProcessEnvironment::isEmpty()
PUBLIC ba450 0 QResourceFileEngine::caseSensitive()
PUBLIC ba460 0 QProcess::metaObject()
PUBLIC ba480 0 QProcess::open(QFlags<QIODevice::OpenModeFlag>)
PUBLIC ba510 0 QProcess::program()
PUBLIC ba540 0 QProcess::qt_metacall(QMetaObject::Call,int,void * *)
PUBLIC ba5a0 0 QProcess::qt_metacast(char const *)
PUBLIC ba600 0 QIODevicePrivateLinearBuffer::readAll()
PUBLIC ba650 0 QProcess::readAllStandardError()
PUBLIC ba6d0 0 QProcess::readAllStandardOutput()
PUBLIC ba750 0 QProcess::readData(char *,__int64)
PUBLIC ba8d0 0 QProcess::readyReadStandardError(QProcess::QPrivateSignal)
PUBLIC ba8f0 0 QProcess::readyReadStandardOutput(QProcess::QPrivateSignal)
PUBLIC ba910 0 QProcess::setProcessState(QProcess::ProcessState)
PUBLIC ba960 0 QProcess::setReadChannel(QProcess::ProcessChannel)
PUBLIC baa50 0 QProcess::start(QString const &,QStringList const &,QFlags<QIODevice::OpenModeFlag>)
PUBLIC baac0 0 QProcessPrivate::start(QFlags<QIODevice::OpenModeFlag>)
PUBLIC baba0 0 QProcess::started(QProcess::QPrivateSignal)
PUBLIC babc0 0 QProcess::state()
PUBLIC babd0 0 QProcess::stateChanged(QProcess::ProcessState,QProcess::QPrivateSignal)
PUBLIC bac00 0 QProcess::tr(char const *,char const *,int)
PUBLIC bac30 0 QProcessPrivate::tryReadFromChannel(QProcessPrivate::Channel *)
PUBLIC bae50 0 QRingBuffer::ungetChar(char)
PUBLIC bafa0 0 QProcess::waitForBytesWritten(int)
PUBLIC bb050 0 QProcess::waitForFinished(int)
PUBLIC bb100 0 QProcess::waitForReadyRead(int)
PUBLIC bb140 0 QProcess::writeData(char const *,__int64)
PUBLIC bb1d0 0 QVector<QPostEvent>::QVector<QPostEvent>(QVector<QPostEvent> const &)
PUBLIC bb270 0 QCoreApplication::QCoreApplication(int &,char * *,int)
PUBLIC bb320 0 QCoreApplicationPrivate::QCoreApplicationPrivate(int &,char * *,unsigned int)
PUBLIC bb460 0 QVector<QPostEvent>::~QVector<QPostEvent>()
PUBLIC bb530 0 QCoreApplication::~QCoreApplication()
PUBLIC bb690 0 QCoreApplicationData::~QCoreApplicationData()
PUBLIC bb7f0 0 QCoreApplicationPrivate::~QCoreApplicationPrivate()
PUBLIC bb920 0 QMutexUnlocker::~QMutexUnlocker()
PUBLIC bb940 0 QScopedLoopLevelCounter::~QScopedLoopLevelCounter()
PUBLIC bb950 0 QVector<QPostEvent>::operator=(QVector<QPostEvent> &&)
PUBLIC bb980 0 QVector<QPostEvent>::operator[](int)
PUBLIC bba00 0 QCoreApplication::`vector deleting destructor'(unsigned int)
PUBLIC bba20 0 QCoreApplicationPrivate::`vector deleting destructor'(unsigned int)
PUBLIC bba40 0 QCoreApplicationPrivate::appendApplicationPathToLibraryPaths()
PUBLIC bbbc0 0 QCoreApplication::applicationDirPath()
PUBLIC bbd20 0 QCoreApplication::applicationFilePath()
PUBLIC bbed0 0 QCoreApplication::applicationName()
PUBLIC bc060 0 QCoreApplication::applicationPid()
PUBLIC bc070 0 QCoreApplication::applicationVersion()
PUBLIC bc0b0 0 QCoreApplicationPrivate::cleanupThreadData()
PUBLIC bc1c0 0 QVector<QPostEvent>::clear()
PUBLIC bc240 0 QCoreApplicationPrivate::clearApplicationFilePath()
PUBLIC bc290 0 QCoreApplication::closingDown()
PUBLIC bc2a0 0 QCoreApplication::compressEvent(QEvent *,QObject *,QPostEventList *)
PUBLIC bc380 0 QVector<QPostEvent>::copyConstruct(QPostEvent const *,QPostEvent const *,QPostEvent *)
PUBLIC bc3c0 0 QCoreApplicationPrivate::createEventDispatcher()
PUBLIC bc440 0 QFile::decodeName(QByteArray const &)
PUBLIC bc460 0 QVector<QPostEvent>::erase(QPostEvent *,QPostEvent *)
PUBLIC bc500 0 QCoreApplication::event(QEvent *)
PUBLIC bc530 0 QCoreApplication::exec()
PUBLIC bc710 0 QCoreApplication::exit(int)
PUBLIC bc760 0 QCoreApplication::init()
PUBLIC bc840 0 QCoreApplicationPrivate::initLocale()
PUBLIC bc860 0 `anonymous namespace'::Q_QGS_coreappdata::innerFunction()
PUBLIC bc940 0 `anonymous namespace'::Q_QGS_postRList::innerFunction()
PUBLIC bca00 0 `anonymous namespace'::Q_QGS_preRList::innerFunction()
PUBLIC bcac0 0 QCoreApplication::isQuitLockEnabled()
PUBLIC bcad0 0 QCoreApplicationPrivate::mainThread()
PUBLIC bcae0 0 QCoreApplication::notify(QObject *,QEvent *)
PUBLIC bcb50 0 QCoreApplication::notifyInternal(QObject *,QEvent *)
PUBLIC bcc00 0 QCoreApplicationPrivate::notify_helper(QObject *,QEvent *)
PUBLIC bcc40 0 QCoreApplication::organizationDomain()
PUBLIC bcc80 0 QCoreApplication::organizationName()
PUBLIC bccc0 0 QCoreApplication::postEvent(QObject *,QEvent *,int)
PUBLIC bce60 0 QCoreApplicationPrivate::processCommandLineArguments()
PUBLIC bd090 0 qAddPostRoutine(void (*)(void))
PUBLIC bd0b0 0 qAddPreRoutine(void (*)(void))
PUBLIC bd140 0 qGlobalPostedEventsCount()
PUBLIC bd160 0 qt_call_post_routines()
PUBLIC bd310 0 QCoreApplication::quit()
PUBLIC bd320 0 QCoreApplicationPrivate::removePostedEvent(QEvent *)
PUBLIC bd400 0 QCoreApplication::removePostedEvents(QObject *,int)
PUBLIC bd900 0 QCoreApplication::sendPostedEvents(QObject *,int)
PUBLIC bd920 0 QCoreApplicationPrivate::sendPostedEvents(QObject *,int,QThreadData *)
PUBLIC bdbe0 0 QCoreApplicationPrivate::sendThroughApplicationEventFilters(QObject *,QEvent *)
PUBLIC bdcb0 0 QCoreApplicationPrivate::sendThroughObjectEventFilters(QObject *,QEvent *)
PUBLIC bdd80 0 QCoreApplicationPrivate::setApplicationFilePath(QString const &)
PUBLIC bddd0 0 QCoreApplication::setApplicationName(QString const &)
PUBLIC bde30 0 QCoreApplication::setApplicationVersion(QString const &)
PUBLIC bde90 0 QCoreApplication::setOrganizationDomain(QString const &)
PUBLIC bdef0 0 QCoreApplication::setOrganizationName(QString const &)
PUBLIC bdf40 0 QCoreApplication::setQuitLockEnabled(bool)
PUBLIC bdf50 0 QCoreApplication::translate(char const *,char const *,char const *,int)
PUBLIC be130 0 QFreeListElement<QMutexPrivate>::QFreeListElement<QMutexPrivate>()
PUBLIC be150 0 QMutex::QMutex(QMutex::RecursionMode)
PUBLIC be1f0 0 QMutexPrivate::QMutexPrivate()
PUBLIC be260 0 QRecursiveMutexPrivate::QRecursiveMutexPrivate()
PUBLIC be280 0 QFreeList<QMutexPrivate,`anonymous namespace'::FreeListConstants>::~QFreeList<QMutexPrivate,`anonymous namespace'::FreeListConstants>()
PUBLIC be2c0 0 QFreeListElement<QMutexPrivate>::~QFreeListElement<QMutexPrivate>()
PUBLIC be2d0 0 QMutex::~QMutex()
PUBLIC be360 0 QFreeList<QMutexPrivate,`anonymous namespace'::FreeListConstants>::allocate(int,int)
PUBLIC be4e0 0 QMutexPrivate::allocate()
PUBLIC be550 0 QMutexPrivate::deref()
PUBLIC be590 0 QMutexPrivate::derefWaiters(int)
PUBLIC be5c0 0 A0xfc25ee47::`anonymous namespace'::Q_QGS_freelist::innerFunction()
PUBLIC be6a0 0 QBasicMutex::isRecursive()
PUBLIC be6b0 0 QMutex::lock()
PUBLIC be720 0 QRecursiveMutexPrivate::lock(int)
PUBLIC be790 0 QBasicMutex::lockInternal(int)
PUBLIC be970 0 QFreeList<QMutexPrivate,`anonymous namespace'::FreeListConstants>::next()
PUBLIC bea40 0 QFreeList<QMutexPrivate,`anonymous namespace'::FreeListConstants>::release(int)
PUBLIC beab0 0 QMutexPrivate::release()
PUBLIC beae0 0 QMutex::tryLock(int)
PUBLIC beb20 0 QMutex::unlock()
PUBLIC beb70 0 QBasicMutex::unlockInternal()
PUBLIC bec00 0 QMutexPrivate::wait(int)
PUBLIC bec20 0 QChildEvent::QChildEvent(QEvent::Type,QObject *)
PUBLIC bec60 0 QDeferredDeleteEvent::QDeferredDeleteEvent()
PUBLIC beca0 0 QDynamicPropertyChangeEvent::QDynamicPropertyChangeEvent(QByteArray const &)
PUBLIC becf0 0 QEvent::QEvent(QEvent::Type)
PUBLIC bed20 0 QTimerEvent::QTimerEvent(int)
PUBLIC bed60 0 QDynamicPropertyChangeEvent::~QDynamicPropertyChangeEvent()
PUBLIC bedc0 0 QChildEvent::~QChildEvent()
PUBLIC bede0 0 QChildEvent::`vector deleting destructor'(unsigned int)
PUBLIC bee20 0 QDynamicPropertyChangeEvent::`vector deleting destructor'(unsigned int)
PUBLIC bee90 0 QLibrary::QLibrary(QString const &,QObject *)
PUBLIC bef00 0 QLibraryPrivate::QLibraryPrivate(QString const &,QString const &,QFlags<QLibrary::LoadHint>)
PUBLIC bf040 0 QForeachContainer<QMap<QString,QLibraryPrivate *> >::~QForeachContainer<QMap<QString,QLibraryPrivate *> >()
PUBLIC bf090 0 QLibrary::~QLibrary()
PUBLIC bf100 0 QLibraryPrivate::~QLibraryPrivate()
PUBLIC bf220 0 QLibrary::`vector deleting destructor'(unsigned int)
PUBLIC bf2a0 0 QLibraryStore::cleanup()
PUBLIC bf6b0 0 QMapNode<QString,QLibraryPrivate *>::copy(QMapData<QString,QLibraryPrivate *> *)
PUBLIC bf730 0 QMapData<QString,QLibraryPrivate *>::createNode(QString const &,QLibraryPrivate * const &,QMapNode<QString,QLibraryPrivate *> *,bool)
PUBLIC bf780 0 QMapNode<QString,QLibraryPrivate *>::destroySubTree()
PUBLIC bf7d0 0 QMap<QString,QLibraryPrivate *>::detach_helper()
PUBLIC bf850 0 QFile::encodeName(QString const &)
PUBLIC bf870 0 QLibrary::fileName()
PUBLIC bf8c0 0 QLibraryStore::findOrCreate(QString const &,QString const &,QFlags<QLibrary::LoadHint>)
PUBLIC bfa10 0 QLibraryPrivate::fromRawMetaData(char const *)
PUBLIC bfab0 0 QMap<QString,QLibraryPrivate *>::insert(QString const &,QLibraryPrivate * const &)
PUBLIC bfb70 0 QLibraryPrivate::load()
PUBLIC bfc70 0 QLibrary::loadHints()
PUBLIC bfca0 0 QLibraryPrivate::loadPlugin()
PUBLIC bfde0 0 qt_debug_component()
PUBLIC bfe80 0 QLibraryPrivate::release()
PUBLIC bfe90 0 QLibraryStore::releaseLibrary(QLibraryPrivate *)
PUBLIC bff70 0 QLibrary::resolve(char const *)
PUBLIC bffc0 0 QLibrary::resolve(QString const &,char const *)
PUBLIC c00b0 0 QLibrary::setFileName(QString const &)
PUBLIC c0160 0 QLibrary::setLoadHints(QFlags<QLibrary::LoadHint>)
PUBLIC c02b0 0 QMap<QString,QLibraryPrivate *>::take(QString const &)
PUBLIC c0340 0 QLibrary::tr(char const *,char const *,int)
PUBLIC c0370 0 QLibraryPrivate::unload(QLibraryPrivate::UnloadFlag)
PUBLIC c04b0 0 QSemaphore::QSemaphore(int)
PUBLIC c0530 0 QSemaphore::~QSemaphore()
PUBLIC c05a0 0 QSemaphore::acquire(int)
PUBLIC c0640 0 QSemaphore::release(int)
PUBLIC c06c0 0 QSemaphore::tryAcquire(int,int)
PUBLIC c0800 0 qDeleteAll<QList<QWaitConditionEvent *>::const_iterator>(QList<QWaitConditionEvent *>::const_iterator,QList<QWaitConditionEvent *>::const_iterator)
PUBLIC c0840 0 QWaitCondition::QWaitCondition()
PUBLIC c08d0 0 QWaitCondition::~QWaitCondition()
PUBLIC c0980 0 QWaitConditionPrivate::~QWaitConditionPrivate()
PUBLIC c0a30 0 QList<QWaitConditionEvent *>::insert(int,QWaitConditionEvent * const &)
PUBLIC c0ac0 0 QWaitConditionPrivate::post(QWaitConditionEvent *,bool)
PUBLIC c0b50 0 QWaitConditionPrivate::pre()
PUBLIC c0c10 0 QList<WinTimerInfo *>::removeAll(WinTimerInfo * const &)
PUBLIC c0ce0 0 QWaitCondition::wait(QMutex *,unsigned long)
PUBLIC c0d80 0 QWaitCondition::wakeAll()
PUBLIC c0e00 0 QWaitCondition::wakeOne()
PUBLIC c0e80 0 QAbstractEventDispatcher::QAbstractEventDispatcher(QAbstractEventDispatcherPrivate &,QObject *)
PUBLIC c0ea0 0 QAbstractEventDispatcher::~QAbstractEventDispatcher()
PUBLIC c0eb0 0 QAbstractEventDispatcherPrivate::~QAbstractEventDispatcherPrivate()
PUBLIC c0f30 0 QAbstractEventDispatcher::`vector deleting destructor'(unsigned int)
PUBLIC c0f60 0 QFreeList<void,QtTimerIdFreeListConstants>::allocate(int,int)
PUBLIC c1060 0 QAbstractEventDispatcher::filterNativeEvent(QByteArray const &,void *,long *)
PUBLIC c1110 0 `anonymous namespace'::Q_QGS_timerIdFreeList::innerFunction()
PUBLIC c1200 0 QAbstractEventDispatcher::installNativeEventFilter(QAbstractNativeEventFilter *)
PUBLIC c1240 0 QAbstractEventDispatcher::instance(QThread *)
PUBLIC c1260 0 QFreeList<void,QtTimerIdFreeListConstants>::next()
PUBLIC c1300 0 QAbstractEventDispatcher::registerTimer(int,Qt::TimerType,QObject *)
PUBLIC c1340 0 QFreeList<void,QtTimerIdFreeListConstants>::release(int)
PUBLIC c13a0 0 QAbstractEventDispatcherPrivate::releaseTimerId(int)
PUBLIC c13c0 0 QAbstractEventDispatcher::removeNativeEventFilter(QAbstractNativeEventFilter *)
PUBLIC c1430 0 QtSharedPointer::ExternalRefCountData::~ExternalRefCountData()
PUBLIC c1440 0 QThread::qt_static_metacall(QObject *,QMetaObject::Call,int,void * *)
PUBLIC c1510 0 QThread::finished(QThread::QPrivateSignal)
PUBLIC c1530 0 QThread::metaObject()
PUBLIC c1550 0 QThread::qt_metacall(QMetaObject::Call,int,void * *)
PUBLIC c15b0 0 QThread::qt_metacast(char const *)
PUBLIC c1610 0 QThread::started(QThread::QPrivateSignal)
PUBLIC c1630 0 QAdoptedThread::QAdoptedThread(QThreadData *)
PUBLIC c16e0 0 QThread::QThread(QObject *)
PUBLIC c1770 0 QThreadData::QThreadData(int)
PUBLIC c1830 0 QThreadPrivate::QThreadPrivate(QThreadData *)
PUBLIC c1910 0 QPostEventList::~QPostEventList()
PUBLIC c1990 0 QThread::~QThread()
PUBLIC c1ab0 0 QThreadData::~QThreadData()
PUBLIC c1c10 0 QAdoptedThread::`vector deleting destructor'(unsigned int)
PUBLIC c1c40 0 QThread::`vector deleting destructor'(unsigned int)
PUBLIC c1c60 0 QThreadPrivate::`vector deleting destructor'(unsigned int)
PUBLIC c1d00 0 QThread::currentThread()
PUBLIC c1d10 0 QThreadData::deref()
PUBLIC c1d30 0 QThread::event(QEvent *)
PUBLIC c1d50 0 QThread::exec()
PUBLIC c1e50 0 QThread::exit(int)
PUBLIC c1f00 0 QThread::isFinished()
PUBLIC c1f40 0 QThread::isRunning()
PUBLIC c1f80 0 QThread::quit()
PUBLIC c1f90 0 QThreadData::ref()
PUBLIC c1fa0 0 QAdoptedThread::run()
PUBLIC c1fd0 0 QThread::run()
PUBLIC c1fe0 0 QThreadData::clearCurrentThreadData()
PUBLIC c1ff0 0 QThreadPrivate::createEventDispatcher(QThreadData *)
PUBLIC c2060 0 QThreadData::current(bool)
PUBLIC c21c0 0 QThread::currentThreadId()
PUBLIC c21d0 0 QVector<int>::erase(int *,int *)
PUBLIC c2240 0 QThreadPrivate::finish(void *,bool)
PUBLIC c23a0 0 QThread::idealThreadCount()
PUBLIC c23c0 0 QAdoptedThread::init()
PUBLIC c23e0 0 QVector<void *>::insert(void * *,int,void * const &)
PUBLIC c24a0 0 QThread::msleep(unsigned long)
PUBLIC c24b0 0 QVector<void *>::prepend(void * const &)
PUBLIC c2520 0 qt_adopted_thread_watcher_function(void *)
PUBLIC c27b0 0 qt_create_tls()
PUBLIC c2850 0 qt_watch_adopted_thread(void * const,QThread *)
PUBLIC c2950 0 QVector<int>::reallocData(int,int,QFlags<QArrayData::AllocationOption>)
PUBLIC c2af0 0 QThread::start(QThread::Priority)
PUBLIC c2ca0 0 QThreadPrivate::start(void *)
PUBLIC c2e50 0 QThread::terminate()
PUBLIC c2ef0 0 QThread::wait(unsigned long)
PUBLIC c3040 0 QThread::yieldCurrentThread()
PUBLIC c3050 0 QAbstractNativeEventFilter::QAbstractNativeEventFilter()
PUBLIC c3060 0 QAbstractNativeEventFilter::~QAbstractNativeEventFilter()
PUBLIC c3090 0 QAbstractNativeEventFilter::`vector deleting destructor'(unsigned int)
PUBLIC c30d0 0 QIODevice::QIODevice(QIODevicePrivate &,QObject *)
PUBLIC c30f0 0 QIODevice::QIODevice(QObject *)
PUBLIC c3170 0 QIODevicePrivate::QIODevicePrivate()
PUBLIC c3200 0 QIODevice::~QIODevice()
PUBLIC c3210 0 QIODevicePrivate::~QIODevicePrivate()
PUBLIC c3260 0 QIODevice::`vector deleting destructor'(unsigned int)
PUBLIC c3290 0 QIODevicePrivate::`vector deleting destructor'(unsigned int)
PUBLIC c32f0 0 QIODevice::atEnd()
PUBLIC c3320 0 QIODevice::bytesAvailable()
PUBLIC c33b0 0 QIODevice::canReadLine()
PUBLIC c33d0 0 QIODevice::close()
PUBLIC c3480 0 QIODevice::errorString()
PUBLIC c34e0 0 QIODevice::getChar(char *)
PUBLIC c3510 0 QIODevice::isOpen()
PUBLIC c3520 0 QIODevicePrivate::isSequential()
PUBLIC c3560 0 QIODevice::isTextModeEnabled()
PUBLIC c3570 0 QIODevice::isWritable()
PUBLIC c3580 0 QIODevice::open(QFlags<QIODevice::OpenModeFlag>)
PUBLIC c3600 0 QIODevice::peek(__int64)
PUBLIC c3630 0 QIODevice::peek(char *,__int64)
PUBLIC c3650 0 QIODevicePrivate::peek(__int64)
PUBLIC c3760 0 QIODevicePrivate::peek(char *,__int64)
PUBLIC c37e0 0 QIODevice::pos()
PUBLIC c37f0 0 QIODevice::putChar(char)
PUBLIC c3800 0 QIODevicePrivate::putCharHelper(char)
PUBLIC c3830 0 QIODevice::read(__int64)
PUBLIC c3a90 0 QIODevice::read(char *,__int64)
PUBLIC c3f30 0 QIODevicePrivateLinearBuffer::read(char *,__int64)
PUBLIC c3f80 0 QIODevice::readAll()
PUBLIC c4280 0 QIODevice::readLine(__int64)
PUBLIC c4530 0 QIODevice::readLine(char *,__int64)
PUBLIC c4770 0 QIODevicePrivateLinearBuffer::readLine(char *,__int64)
PUBLIC c47e0 0 QIODevice::readLineData(char *,__int64)
PUBLIC c48a0 0 QIODevice::reset()
PUBLIC c48b0 0 QIODevice::seek(__int64)
PUBLIC c49f0 0 QIODevice::setErrorString(QString const &)
PUBLIC c4a00 0 QIODevice::setOpenMode(QFlags<QIODevice::OpenModeFlag>)
PUBLIC c4a60 0 QIODevice::setTextModeEnabled(bool)
PUBLIC c4ac0 0 QIODevice::size()
PUBLIC c4b20 0 QIODevicePrivateLinearBuffer::skip(__int64)
PUBLIC c4b80 0 QIODevice::tr(char const *,char const *,int)
PUBLIC c4bb0 0 QIODevice::ungetChar(char)
PUBLIC c4c70 0 QIODevice::write(char const *,__int64)
PUBLIC c4f00 0 QtPrivate::QStringList_contains(QStringList const *,QString const &,Qt::CaseSensitivity)
PUBLIC c4f70 0 QtPrivate::QStringList_join(QStringList const *,QChar const *,int)
PUBLIC c5120 0 `anonymous namespace'::Q_QGS_staticPluginList::innerFunction()
PUBLIC c51e0 0 QStaticPlugin::metaData()
PUBLIC c5260 0 qRegisterStaticPluginFunction(QStaticPlugin)
PUBLIC c5290 0 QPluginLoader::staticPlugins()
PUBLIC c52d0 0 QStringBuilder<QStringBuilder<char const [5],QByteArray>,char>::convertTo<QByteArray>()
PUBLIC c5390 0 QStringBuilder<QStringBuilder<QByteArray,char const [3]>,char const *>::convertTo<QByteArray>()
PUBLIC c5f10 0 QStringBuilder<QStringBuilder<char const [5],QByteArray>,char>::operator QByteArray()
PUBLIC c5f30 0 QStringBuilder<QStringBuilder<QByteArray,char const [3]>,char const *>::operator QByteArray()
PUBLIC c6010 0 QVarLengthArray<char,512>::append(char const *,int)
PUBLIC c61f0 0 QMetaObject::cast(QObject *)
PUBLIC c6220 0 QMetaObjectPrivate::checkConnectArgs(int,QArgumentType const *,int,QArgumentType const *)
PUBLIC c6290 0 QMetaObject::className()
PUBLIC c62e0 0 QMetaObjectPrivate::decodeMethodSignature(char const *,QVarLengthArray<QArgumentType,10> &)
PUBLIC c6360 0 QMetaObject::enumerator(int)
PUBLIC c6670 0 QMetaMethod::fromSignalImpl(QMetaObject const *,void * *)
PUBLIC c66f0 0 QMetaObject::indexOfEnumerator(char const *)
PUBLIC c67e0 0 QMetaObject::indexOfMethod(char const *)
PUBLIC c68e0 0 QMetaObjectPrivate::indexOfMethod(QMetaObject const *,QByteArray const &,int,QArgumentType const *)
PUBLIC c6930 0 QMetaObject::indexOfProperty(char const *)
PUBLIC c6a60 0 QMetaObject::indexOfSignal(char const *)
PUBLIC c6b60 0 QMetaObjectPrivate::indexOfSignalRelative(QMetaObject const * *,QByteArray const &,int,QArgumentType const *)
PUBLIC c6b70 0 QMetaObjectPrivate::indexOfSlotRelative(QMetaObject const * *,QByteArray const &,int,QArgumentType const *)
PUBLIC c6b80 0 QMetaMethod::invoke(QObject *,Qt::ConnectionType,QGenericReturnArgument,QGenericArgument,QGenericArgument,QGenericArgument,QGenericArgument,QGenericArgument,QGenericArgument,QGenericArgument,QGenericArgument,QGenericArgument,QGenericArgument)
PUBLIC c71d0 0 QMetaObject::invokeMethod(QObject *,char const *,Qt::ConnectionType,QGenericReturnArgument,QGenericArgument,QGenericArgument,QGenericArgument,QGenericArgument,QGenericArgument,QGenericArgument,QGenericArgument,QGenericArgument,QGenericArgument,QGenericArgument)
PUBLIC c76c0 0 QMetaProperty::isEnumType()
PUBLIC c7710 0 QMetaProperty::isFlagType()
PUBLIC c7770 0 QMetaEnum::isValid()
PUBLIC c77a0 0 QMetaEnum::keyToValue(char const *,bool *)
PUBLIC c79c0 0 QMetaEnum::keysToValue(char const *,bool *)
PUBLIC c7da0 0 QMetaObject::metacall(QObject *,QMetaObject::Call,int,void * *)
PUBLIC c7dd0 0 QMetaObject::method(int)
PUBLIC c7e40 0 QMetaObject::methodCount()
PUBLIC c7e60 0 QMetaObject::methodOffset()
PUBLIC c7e80 0 QMetaMethod::methodSignature()
PUBLIC c7eb0 0 QMetaMethod::name()
PUBLIC c7ee0 0 QMetaMethodPrivate::name()
PUBLIC c7f10 0 QMetaProperty::name()
PUBLIC c86f0 0 QMetaObject::normalizedSignature(char const *)
PUBLIC c88c0 0 QMetaObject::normalizedType(char const *)
PUBLIC c8ab0 0 QMetaObjectPrivate::originalClone(QMetaObject const *,int)
PUBLIC c8ae0 0 QMetaMethod::parameterTypes()
PUBLIC c8b10 0 QMetaMethodPrivate::parameterTypes()
PUBLIC c8c30 0 QMetaObject::property(int)
PUBLIC c8dd0 0 QMetaObject::propertyOffset()
PUBLIC c91a0 0 QMetaProperty::read(QObject const *)
PUBLIC c94d0 0 QVarLengthArray<char,512>::realloc(int,int)
PUBLIC c9570 0 QMetaMethod::returnType()
PUBLIC c95a0 0 QMetaObjectPrivate::signal(QMetaObject const *,int)
PUBLIC c9620 0 QMetaObjectPrivate::signalOffset(QMetaObject const *)
PUBLIC c9640 0 QMetaMethodPrivate::signature()
PUBLIC c97b0 0 QMetaObject::static_metacall(QMetaObject::Call,int,void * *)
PUBLIC c9800 0 QMetaObject::tr(char const *,char const *,int)
PUBLIC c9920 0 QMetaMethod::typeName()
PUBLIC c99e0 0 QMetaProperty::write(QObject *,QVariant const &)
PUBLIC c9cf0 0 `anonymous namespace'::TypeInfo::delegate<signed char>(signed char const *)
PUBLIC c9d60 0 `anonymous namespace'::TypeCreator::delegate<short>(short const *)
PUBLIC c9da0 0 `anonymous namespace'::TypeInfo::delegate<short>(short const *)
PUBLIC c9e10 0 `anonymous namespace'::TypeCreator::delegate<int>(int const *)
PUBLIC c9e50 0 `anonymous namespace'::TypeInfo::delegate<int>(int const *)
PUBLIC c9ec0 0 `anonymous namespace'::TypeCreator::delegate<double>(double const *)
PUBLIC c9f00 0 `anonymous namespace'::TypeInfo::delegate<double>(double const *)
PUBLIC c9f70 0 `anonymous namespace'::TypeInfo::delegate<QObject *>(QObject * const *)
PUBLIC c9fe0 0 `anonymous namespace'::TypeDestroyer::delegate<QHash<QString,QVariant> >(QHash<QString,QVariant> const *)
PUBLIC ca020 0 `anonymous namespace'::TypeDestructor::delegate<QHash<QString,QVariant> >(QHash<QString,QVariant> const *)
PUBLIC ca060 0 `anonymous namespace'::TypeInfo::delegate<QHash<QString,QVariant> >(QHash<QString,QVariant> const *)
PUBLIC ca0d0 0 `anonymous namespace'::TypeDestructor::delegate<QList<QByteArray> >(QList<QByteArray> const *)
PUBLIC ca120 0 `anonymous namespace'::TypeInfo::delegate<QList<QByteArray> >(QList<QByteArray> const *)
PUBLIC ca190 0 `anonymous namespace'::TypeDestroyer::delegate<QList<QVariant> >(QList<QVariant> const *)
PUBLIC ca1d0 0 `anonymous namespace'::TypeDestructor::delegate<QList<QVariant> >(QList<QVariant> const *)
PUBLIC ca200 0 `anonymous namespace'::TypeInfo::delegate<QList<QVariant> >(QList<QVariant> const *)
PUBLIC ca270 0 `anonymous namespace'::TypeDestroyer::delegate<QMap<QString,QVariant> >(QMap<QString,QVariant> const *)
PUBLIC ca2d0 0 `anonymous namespace'::TypeDestructor::delegate<QMap<QString,QVariant> >(QMap<QString,QVariant> const *)
PUBLIC ca320 0 `anonymous namespace'::TypeInfo::delegate<QMap<QString,QVariant> >(QMap<QString,QVariant> const *)
PUBLIC ca390 0 `anonymous namespace'::TypeCreator::delegate<QBitArray>(QBitArray const *)
PUBLIC ca3f0 0 `anonymous namespace'::TypeDestroyer::delegate<QBitArray>(QBitArray const *)
PUBLIC ca430 0 `anonymous namespace'::TypeDestructor::delegate<QBitArray>(QBitArray const *)
PUBLIC ca460 0 `anonymous namespace'::TypeInfo::delegate<QBitArray>(QBitArray const *)
PUBLIC ca4d0 0 `anonymous namespace'::TypeInfo::delegate<QChar>(QChar const *)
PUBLIC ca540 0 `anonymous namespace'::TypeCreator::delegate<QDate>(QDate const *)
PUBLIC ca580 0 `anonymous namespace'::TypeInfo::delegate<QDate>(QDate const *)
PUBLIC ca5f0 0 `anonymous namespace'::TypeDestroyer::delegate<QDateTime>(QDateTime const *)
PUBLIC ca610 0 `anonymous namespace'::TypeInfo::delegate<QDateTime>(QDateTime const *)
PUBLIC ca680 0 `anonymous namespace'::TypeDestroyer::delegate<QEasingCurve>(QEasingCurve const *)
PUBLIC ca6a0 0 `anonymous namespace'::TypeInfo::delegate<QEasingCurve>(QEasingCurve const *)
PUBLIC ca710 0 `anonymous namespace'::TypeDestroyer::delegate<QBitmap>(QBitmap const *)
PUBLIC ca730 0 `anonymous namespace'::SizeOf::delegate<QBitmap>(QBitmap const *)
PUBLIC ca750 0 `anonymous namespace'::TypeDestroyer::delegate<QJsonArray>(QJsonArray const *)
PUBLIC ca770 0 `anonymous namespace'::TypeInfo::delegate<QJsonArray>(QJsonArray const *)
PUBLIC ca7e0 0 `anonymous namespace'::TypeInfo::delegate<QJsonDocument>(QJsonDocument const *)
PUBLIC ca850 0 `anonymous namespace'::TypeDestroyer::delegate<QJsonValue>(QJsonValue const *)
PUBLIC ca870 0 `anonymous namespace'::TypeInfo::delegate<QJsonValue>(QJsonValue const *)
PUBLIC ca8e0 0 `anonymous namespace'::TypeCreator::delegate<QLine>(QLine const *)
PUBLIC ca930 0 `anonymous namespace'::TypeInfo::delegate<QLine>(QLine const *)
PUBLIC ca9a0 0 `anonymous namespace'::TypeDestroyer::delegate<QLocale>(QLocale const *)
PUBLIC ca9c0 0 `anonymous namespace'::TypeInfo::delegate<QLocale>(QLocale const *)
PUBLIC caa30 0 `anonymous namespace'::TypeCreator::delegate<QBitmap>(QBitmap const *)
PUBLIC caa60 0 `anonymous namespace'::TypeCreator::delegate<QModelIndex>(QModelIndex const *)
PUBLIC caab0 0 `anonymous namespace'::TypeInfo::delegate<QModelIndex>(QModelIndex const *)
PUBLIC cab20 0 `anonymous namespace'::Flags::delegate<QBitmap>(QBitmap const *)
PUBLIC cab40 0 `anonymous namespace'::TypeInfo::delegate<QPoint>(QPoint const *)
PUBLIC cabb0 0 `anonymous namespace'::TypeCreator::delegate<QPointF>(QPointF const *)
PUBLIC cabf0 0 `anonymous namespace'::TypeInfo::delegate<QPointF>(QPointF const *)
PUBLIC cac60 0 `anonymous namespace'::TypeCreator::delegate<QRect>(QRect const *)
PUBLIC cacb0 0 `anonymous namespace'::TypeInfo::delegate<QRect>(QRect const *)
PUBLIC cad20 0 `anonymous namespace'::TypeCreator::delegate<QLineF>(QLineF const *)
PUBLIC cad70 0 `anonymous namespace'::TypeInfo::delegate<QLineF>(QLineF const *)
PUBLIC cade0 0 `anonymous namespace'::TypeDestroyer::delegate<QRegExp>(QRegExp const *)
PUBLIC cae00 0 `anonymous namespace'::TypeInfo::delegate<QRegExp>(QRegExp const *)
PUBLIC cae70 0 `anonymous namespace'::TypeDestroyer::delegate<QRegularExpression>(QRegularExpression const *)
PUBLIC cae90 0 `anonymous namespace'::TypeInfo::delegate<QRegularExpression>(QRegularExpression const *)
PUBLIC caf00 0 `anonymous namespace'::TypeCreator::delegate<QSize>(QSize const *)
PUBLIC caf40 0 `anonymous namespace'::TypeInfo::delegate<QSize>(QSize const *)
PUBLIC cafb0 0 `anonymous namespace'::TypeCreator::delegate<QSizeF>(QSizeF const *)
PUBLIC cb000 0 `anonymous namespace'::TypeInfo::delegate<QSizeF>(QSizeF const *)
PUBLIC cb070 0 `anonymous namespace'::Flags::delegate<QSizePolicy>(QSizePolicy const *)
PUBLIC cb090 0 `anonymous namespace'::SizeOf::delegate<QSizePolicy>(QSizePolicy const *)
PUBLIC cb0b0 0 `anonymous namespace'::TypeCreator::delegate<QSizePolicy>(QSizePolicy const *)
PUBLIC cb0e0 0 `anonymous namespace'::TypeDestroyer::delegate<QSizePolicy>(QSizePolicy const *)
PUBLIC cb100 0 `anonymous namespace'::TypeDestructor::delegate<QSizePolicy>(QSizePolicy const *)
PUBLIC cb120 0 `anonymous namespace'::TypeInfo::delegate<QSizePolicy>(QSizePolicy const *)
PUBLIC cb160 0 `anonymous namespace'::TypeDestroyer::delegate<QString>(QString const *)
PUBLIC cb1a0 0 `anonymous namespace'::TypeDestructor::delegate<QString>(QString const *)
PUBLIC cb1d0 0 `anonymous namespace'::TypeInfo::delegate<QString>(QString const *)
PUBLIC cb240 0 `anonymous namespace'::TypeDestructor::delegate<QStringList>(QStringList const *)
PUBLIC cb290 0 `anonymous namespace'::TypeInfo::delegate<QStringList>(QStringList const *)
PUBLIC cb300 0 `anonymous namespace'::TypeCreator::delegate<QTime>(QTime const *)
PUBLIC cb340 0 `anonymous namespace'::TypeInfo::delegate<QTime>(QTime const *)
PUBLIC cb3b0 0 `anonymous namespace'::TypeDestroyer::delegate<QUrl>(QUrl const *)
PUBLIC cb3d0 0 `anonymous namespace'::TypeInfo::delegate<QUrl>(QUrl const *)
PUBLIC cb440 0 `anonymous namespace'::TypeCreator::delegate<QUuid>(QUuid const *)
PUBLIC cb490 0 `anonymous namespace'::TypeInfo::delegate<QUuid>(QUuid const *)
PUBLIC cb500 0 `anonymous namespace'::TypeDestroyer::delegate<QVariant>(QVariant const *)
PUBLIC cb520 0 `anonymous namespace'::TypeInfo::delegate<QVariant>(QVariant const *)
PUBLIC cb590 0 `anonymous namespace'::TypeDestructor::delegate<QBitmap>(QBitmap const *)
PUBLIC cb5b0 0 `anonymous namespace'::TypeInfo::delegate<QBitmap>(QBitmap const *)
PUBLIC cb5f0 0 `anonymous namespace'::TypeInfo::delegate<void>(void const *)
PUBLIC cb660 0 `anonymous namespace'::TypeCreator::delegate<QPoint>(QPoint const *)
PUBLIC cb6a0 0 `anonymous namespace'::TypeInfo::delegate<__int64>(__int64 const *)
PUBLIC cb710 0 `anonymous namespace'::TypeCreator::delegate<signed char>(signed char const *)
PUBLIC cb960 0 QMetaTypeSwitcher::switcher<int,`anonymous namespace'::SizeOf>(`anonymous namespace'::SizeOf &,int,void const *)
PUBLIC cbc10 0 QMetaTypeSwitcher::switcher<unsigned int,`anonymous namespace'::Flags>(`anonymous namespace'::Flags &,int,void const *)
PUBLIC cbeb0 0 QMetaTypeSwitcher::switcher<void *,`anonymous namespace'::TypeCreator>(`anonymous namespace'::TypeCreator &,int,void const *)
PUBLIC cc4d0 0 QMetaTypeSwitcher::switcher<void,`anonymous namespace'::TypeDestroyer>(`anonymous namespace'::TypeDestroyer &,int,void const *)
PUBLIC cc8a0 0 QMetaTypeSwitcher::switcher<void,`anonymous namespace'::TypeDestructor>(`anonymous namespace'::TypeDestructor &,int,void const *)
PUBLIC ccc30 0 QMetaTypeSwitcher::switcher<void,`anonymous namespace'::TypeInfo>(`anonymous namespace'::TypeInfo &,int,void const *)
PUBLIC cd210 0 QList<QVariant>::QList<QVariant>(QList<QVariant> const &)
PUBLIC cd2d0 0 QMap<QString,QVariant>::QMap<QString,QVariant>(QMap<QString,QVariant> const &)
PUBLIC cd340 0 QCustomTypeInfo::QCustomTypeInfo()
PUBLIC cd3c0 0 QMetaType::QMetaType(int)
PUBLIC cd460 0 QForeachContainer<QSet<QThreadPoolThread *> >::~QForeachContainer<QSet<QThreadPoolThread *> >()
PUBLIC cd490 0 QMetaTypeFunctionRegistry<QtPrivate::AbstractComparatorFunction,int>::~QMetaTypeFunctionRegistry<QtPrivate::AbstractComparatorFunction,int>()
PUBLIC cd600 0 QBitArray::~QBitArray()
PUBLIC cd630 0 QCustomTypeInfo::~QCustomTypeInfo()
PUBLIC cd660 0 QHash<QPair<int,int>,QtPrivate::AbstractConverterFunction const *>::operator[](QPair<int,int> const &)
PUBLIC cd750 0 QtMetaTypePrivate::QMetaTypeFunctionHelper<signed char,1>::Construct(void *,void const *)
PUBLIC cd780 0 QtMetaTypePrivate::QMetaTypeFunctionHelper<short,1>::Construct(void *,void const *)
PUBLIC cd7b0 0 QtMetaTypePrivate::QMetaTypeFunctionHelper<int,1>::Construct(void *,void const *)
PUBLIC cd7e0 0 QtMetaTypePrivate::QMetaTypeFunctionHelper<double,1>::Construct(void *,void const *)
PUBLIC cd800 0 QtMetaTypePrivate::QMetaTypeFunctionHelper<QHash<QString,QVariant>,1>::Construct(void *,void const *)
PUBLIC cd8d0 0 QtMetaTypePrivate::QMetaTypeFunctionHelper<QList<QByteArray>,1>::Construct(void *,void const *)
PUBLIC cd960 0 QtMetaTypePrivate::QMetaTypeFunctionHelper<QList<QVariant>,1>::Construct(void *,void const *)
PUBLIC cd9f0 0 QtMetaTypePrivate::QMetaTypeFunctionHelper<QMap<QString,QVariant>,1>::Construct(void *,void const *)
PUBLIC cda80 0 QtMetaTypePrivate::QMetaTypeFunctionHelper<QBitArray,1>::Construct(void *,void const *)
PUBLIC cdad0 0 QtMetaTypePrivate::QMetaTypeFunctionHelper<QChar,1>::Construct(void *,void const *)
PUBLIC cdb00 0 QtMetaTypePrivate::QMetaTypeFunctionHelper<QDate,1>::Construct(void *,void const *)
PUBLIC cdb40 0 QtMetaTypePrivate::QMetaTypeFunctionHelper<QDateTime,1>::Construct(void *,void const *)
PUBLIC cdbd0 0 QtMetaTypePrivate::QMetaTypeFunctionHelper<QEasingCurve,1>::Construct(void *,void const *)
PUBLIC cdc60 0 QtMetaTypePrivate::QMetaTypeFunctionHelper<QJsonArray,1>::Construct(void *,void const *)
PUBLIC cdcf0 0 QtMetaTypePrivate::QMetaTypeFunctionHelper<QJsonValue,1>::Construct(void *,void const *)
PUBLIC cdd80 0 QtMetaTypePrivate::QMetaTypeFunctionHelper<QLine,1>::Construct(void *,void const *)
PUBLIC cddc0 0 QtMetaTypePrivate::QMetaTypeFunctionHelper<QLineF,1>::Construct(void *,void const *)
PUBLIC cde00 0 QtMetaTypePrivate::QMetaTypeFunctionHelper<QLocale,1>::Construct(void *,void const *)
PUBLIC cde90 0 QtMetaTypePrivate::QMetaTypeFunctionHelper<QModelIndex,1>::Construct(void *,void const *)
PUBLIC cded0 0 QtMetaTypePrivate::QMetaTypeFunctionHelper<QPoint,1>::Construct(void *,void const *)
PUBLIC cdf10 0 QtMetaTypePrivate::QMetaTypeFunctionHelper<QPointF,1>::Construct(void *,void const *)
PUBLIC cdf40 0 QtMetaTypePrivate::QMetaTypeFunctionHelper<QRect,1>::Construct(void *,void const *)
PUBLIC cdf80 0 QtMetaTypePrivate::QMetaTypeFunctionHelper<QRegExp,1>::Construct(void *,void const *)
PUBLIC ce010 0 QtMetaTypePrivate::QMetaTypeFunctionHelper<QRegularExpression,1>::Construct(void *,void const *)
PUBLIC ce0a0 0 QtMetaTypePrivate::QMetaTypeFunctionHelper<QSize,1>::Construct(void *,void const *)
PUBLIC ce0e0 0 QtMetaTypePrivate::QMetaTypeFunctionHelper<QSizeF,1>::Construct(void *,void const *)
PUBLIC ce110 0 QtMetaTypePrivate::QMetaTypeFunctionHelper<QStringList,1>::Construct(void *,void const *)
PUBLIC ce1b0 0 QtMetaTypePrivate::QMetaTypeFunctionHelper<QTime,1>::Construct(void *,void const *)
PUBLIC ce1e0 0 QtMetaTypePrivate::QMetaTypeFunctionHelper<QJsonDocument,1>::Construct(void *,void const *)
PUBLIC ce270 0 QtMetaTypePrivate::QMetaTypeFunctionHelper<QUuid,1>::Construct(void *,void const *)
PUBLIC ce2b0 0 QtMetaTypePrivate::QMetaTypeFunctionHelper<QVariant,1>::Construct(void *,void const *)
PUBLIC ce340 0 QtMetaTypePrivate::QMetaTypeFunctionHelper<__int64,1>::Construct(void *,void const *)
PUBLIC ce370 0 `anonymous namespace'::TypeCreator::CreatorImpl<QHash<QString,QVariant>,1>::Create(int,void const *)
PUBLIC ce440 0 `anonymous namespace'::TypeCreator::CreatorImpl<QList<QByteArray>,1>::Create(int,void const *)
PUBLIC ce4d0 0 `anonymous namespace'::TypeCreator::CreatorImpl<QList<QVariant>,1>::Create(int,void const *)
PUBLIC ce560 0 `anonymous namespace'::TypeCreator::CreatorImpl<QMap<QString,QVariant>,1>::Create(int,void const *)
PUBLIC ce5f0 0 `anonymous namespace'::TypeCreator::CreatorImpl<QDateTime,1>::Create(int,void const *)
PUBLIC ce690 0 `anonymous namespace'::TypeCreator::CreatorImpl<QEasingCurve,1>::Create(int,void const *)
PUBLIC ce730 0 `anonymous namespace'::TypeCreator::CreatorImpl<QJsonDocument,1>::Create(int,void const *)
PUBLIC ce7d0 0 `anonymous namespace'::TypeCreator::CreatorImpl<QJsonArray,1>::Create(int,void const *)
PUBLIC ce870 0 `anonymous namespace'::TypeCreator::CreatorImpl<QJsonValue,1>::Create(int,void const *)
PUBLIC ce910 0 `anonymous namespace'::TypeCreator::CreatorImpl<QLocale,1>::Create(int,void const *)
PUBLIC ce9b0 0 `anonymous namespace'::TypeCreator::CreatorImpl<QRegExp,1>::Create(int,void const *)
PUBLIC cea50 0 `anonymous namespace'::TypeCreator::CreatorImpl<QRegularExpression,1>::Create(int,void const *)
PUBLIC ceaf0 0 `anonymous namespace'::TypeCreator::CreatorImpl<QStringList,1>::Create(int,void const *)
PUBLIC ceba0 0 `anonymous namespace'::TypeCreator::CreatorImpl<QVariant,1>::Create(int,void const *)
PUBLIC cec30 0 QtMetaTypePrivate::QMetaTypeFunctionHelper<signed char,1>::Create(void const *)
PUBLIC cec60 0 QtMetaTypePrivate::QMetaTypeFunctionHelper<short,1>::Create(void const *)
PUBLIC cec90 0 QtMetaTypePrivate::QMetaTypeFunctionHelper<double,1>::Create(void const *)
PUBLIC cecd0 0 QtMetaTypePrivate::QMetaTypeFunctionHelper<QHash<QString,QVariant>,1>::Create(void const *)
PUBLIC ceda0 0 QtMetaTypePrivate::QMetaTypeFunctionHelper<QList<QByteArray>,1>::Create(void const *)
PUBLIC cee30 0 QtMetaTypePrivate::QMetaTypeFunctionHelper<QList<QVariant>,1>::Create(void const *)
PUBLIC ceec0 0 QtMetaTypePrivate::QMetaTypeFunctionHelper<QMap<QString,QVariant>,1>::Create(void const *)
PUBLIC cef50 0 QtMetaTypePrivate::QMetaTypeFunctionHelper<QDate,1>::Create(void const *)
PUBLIC cef90 0 QtMetaTypePrivate::QMetaTypeFunctionHelper<QDateTime,1>::Create(void const *)
PUBLIC cf030 0 QtMetaTypePrivate::QMetaTypeFunctionHelper<QEasingCurve,1>::Create(void const *)
PUBLIC cf0d0 0 QtMetaTypePrivate::QMetaTypeFunctionHelper<QJsonArray,1>::Create(void const *)
PUBLIC cf170 0 QtMetaTypePrivate::QMetaTypeFunctionHelper<QJsonDocument,1>::Create(void const *)
PUBLIC cf210 0 QtMetaTypePrivate::QMetaTypeFunctionHelper<QJsonValue,1>::Create(void const *)
PUBLIC cf2b0 0 QtMetaTypePrivate::QMetaTypeFunctionHelper<QLine,1>::Create(void const *)
PUBLIC cf300 0 QtMetaTypePrivate::QMetaTypeFunctionHelper<QLineF,1>::Create(void const *)
PUBLIC cf340 0 QtMetaTypePrivate::QMetaTypeFunctionHelper<QLocale,1>::Create(void const *)
PUBLIC cf3e0 0 QtMetaTypePrivate::QMetaTypeFunctionHelper<QModelIndex,1>::Create(void const *)
PUBLIC cf430 0 QtMetaTypePrivate::QMetaTypeFunctionHelper<QPoint,1>::Create(void const *)
PUBLIC cf470 0 QtMetaTypePrivate::QMetaTypeFunctionHelper<QPointF,1>::Create(void const *)
PUBLIC cf4b0 0 QtMetaTypePrivate::QMetaTypeFunctionHelper<QRect,1>::Create(void const *)
PUBLIC cf500 0 QtMetaTypePrivate::QMetaTypeFunctionHelper<QRegExp,1>::Create(void const *)
PUBLIC cf5a0 0 QtMetaTypePrivate::QMetaTypeFunctionHelper<QRegularExpression,1>::Create(void const *)
PUBLIC cf640 0 QtMetaTypePrivate::QMetaTypeFunctionHelper<QSize,1>::Create(void const *)
PUBLIC cf680 0 QtMetaTypePrivate::QMetaTypeFunctionHelper<QSizeF,1>::Create(void const *)
PUBLIC cf6c0 0 QtMetaTypePrivate::QMetaTypeFunctionHelper<QBitArray,1>::Create(void const *)
PUBLIC cf710 0 QtMetaTypePrivate::QMetaTypeFunctionHelper<QStringList,1>::Create(void const *)
PUBLIC cf7c0 0 QtMetaTypePrivate::QMetaTypeFunctionHelper<QTime,1>::Create(void const *)
PUBLIC cf7f0 0 QtMetaTypePrivate::QMetaTypeFunctionHelper<QUuid,1>::Create(void const *)
PUBLIC cf830 0 QtMetaTypePrivate::QMetaTypeFunctionHelper<QVariant,1>::Create(void const *)
PUBLIC cf8c0 0 QtMetaTypePrivate::QMetaTypeFunctionHelper<signed char,1>::Delete(void *)
PUBLIC cf8d0 0 QtMetaTypePrivate::QMetaTypeFunctionHelper<QHash<QString,QVariant>,1>::Delete(void *)
PUBLIC cf910 0 QtMetaTypePrivate::QMetaTypeFunctionHelper<QList<QByteArray>,1>::Delete(void *)
PUBLIC cf970 0 QtMetaTypePrivate::QMetaTypeFunctionHelper<QList<QVariant>,1>::Delete(void *)
PUBLIC cf9b0 0 QtMetaTypePrivate::QMetaTypeFunctionHelper<QMap<QString,QVariant>,1>::Delete(void *)
PUBLIC cfa10 0 QtMetaTypePrivate::QMetaTypeFunctionHelper<QBitArray,1>::Delete(void *)
PUBLIC cfa50 0 QtMetaTypePrivate::QMetaTypeFunctionHelper<QDateTime,1>::Delete(void *)
PUBLIC cfa70 0 QtMetaTypePrivate::QMetaTypeFunctionHelper<QEasingCurve,1>::Delete(void *)
PUBLIC cfa90 0 QtMetaTypePrivate::QMetaTypeFunctionHelper<QJsonArray,1>::Delete(void *)
PUBLIC cfab0 0 QtMetaTypePrivate::QMetaTypeFunctionHelper<QJsonValue,1>::Delete(void *)
PUBLIC cfad0 0 QtMetaTypePrivate::QMetaTypeFunctionHelper<QLocale,1>::Delete(void *)
PUBLIC cfaf0 0 QtMetaTypePrivate::QMetaTypeFunctionHelper<QRegExp,1>::Delete(void *)
PUBLIC cfb10 0 QtMetaTypePrivate::QMetaTypeFunctionHelper<QRegularExpression,1>::Delete(void *)
PUBLIC cfb30 0 QtMetaTypePrivate::QMetaTypeFunctionHelper<QString,1>::Delete(void *)
PUBLIC cfb70 0 QtMetaTypePrivate::QMetaTypeFunctionHelper<QStringList,1>::Delete(void *)
PUBLIC cfbd0 0 QtMetaTypePrivate::QMetaTypeFunctionHelper<QUrl,1>::Delete(void *)
PUBLIC cfbf0 0 QtMetaTypePrivate::QMetaTypeFunctionHelper<QVariant,1>::Delete(void *)
PUBLIC cfc10 0 QtMetaTypePrivate::QMetaTypeFunctionHelper<QHash<QString,QVariant>,1>::Destruct(void *)
PUBLIC cfc40 0 QtMetaTypePrivate::QMetaTypeFunctionHelper<QList<QByteArray>,1>::Destruct(void *)
PUBLIC cfc90 0 QtMetaTypePrivate::QMetaTypeFunctionHelper<QList<QVariant>,1>::Destruct(void *)
PUBLIC cfcc0 0 QtMetaTypePrivate::QMetaTypeFunctionHelper<QMap<QString,QVariant>,1>::Destruct(void *)
PUBLIC cfd10 0 QtMetaTypePrivate::QMetaTypeFunctionHelper<QBitArray,1>::Destruct(void *)
PUBLIC cfd40 0 QtMetaTypePrivate::QMetaTypeFunctionHelper<QDateTime,1>::Destruct(void *)
PUBLIC cfd50 0 QtMetaTypePrivate::QMetaTypeFunctionHelper<QEasingCurve,1>::Destruct(void *)
PUBLIC cfd60 0 QtMetaTypePrivate::QMetaTypeFunctionHelper<QJsonArray,1>::Destruct(void *)
PUBLIC cfd70 0 QtMetaTypePrivate::QMetaTypeFunctionHelper<QJsonValue,1>::Destruct(void *)
PUBLIC cfd80 0 QtMetaTypePrivate::QMetaTypeFunctionHelper<QLocale,1>::Destruct(void *)
PUBLIC cfd90 0 QtMetaTypePrivate::QMetaTypeFunctionHelper<QRegExp,1>::Destruct(void *)
PUBLIC cfda0 0 QtMetaTypePrivate::QMetaTypeFunctionHelper<QRegularExpression,1>::Destruct(void *)
PUBLIC cfdb0 0 QtMetaTypePrivate::QMetaTypeFunctionHelper<QString,1>::Destruct(void *)
PUBLIC cfde0 0 QtMetaTypePrivate::QMetaTypeFunctionHelper<QStringList,1>::Destruct(void *)
PUBLIC cfe30 0 QtMetaTypePrivate::QMetaTypeFunctionHelper<QUrl,1>::Destruct(void *)
PUBLIC cfe40 0 QtMetaTypePrivate::QMetaTypeFunctionHelper<QVariant,1>::Destruct(void *)
PUBLIC cfe50 0 QVector<QCustomTypeInfo>::append(QCustomTypeInfo const &)
PUBLIC cffa0 0 QMetaType::compare(void const *,void const *,int,int *)
PUBLIC d0020 0 QHash<QPair<int,int>,QtPrivate::AbstractConverterFunction const *>::contains(QPair<int,int> const &)
PUBLIC d0080 0 QMetaType::convert(void const *,int,void *,int)
PUBLIC d00d0 0 QMetaType::create(int,void const *)
PUBLIC d00f0 0 `anonymous namespace'::TypeDestroyer::customTypeDestroyer(int,void *)
PUBLIC d01e0 0 `anonymous namespace'::TypeDestructor::customTypeDestructor(int,void *)
PUBLIC d02d0 0 `anonymous namespace'::Flags::customTypeFlags(int)
PUBLIC d03b0 0 `anonymous namespace'::TypeInfo::customTypeInfo(unsigned int)
PUBLIC d0450 0 `anonymous namespace'::SizeOf::customTypeSizeOf(int)
PUBLIC d0510 0 QMetaType::debugStream(QDebug &,void const *,int)
PUBLIC d0550 0 QVector<QCustomTypeInfo>::defaultConstruct(QCustomTypeInfo *,QCustomTypeInfo *)
PUBLIC d05e0 0 `anonymous namespace'::TypeCreator::delegate(QMetaTypeSwitcher::NotBuiltinType const *)
PUBLIC d06e0 0 QMetaType::destroy(int,void *)
PUBLIC d0700 0 QVector<QCustomTypeInfo>::destruct(QCustomTypeInfo *,QCustomTypeInfo *)
PUBLIC d0750 0 QMetaType::destruct(int,void *)
PUBLIC d0770 0 QHash<QPair<int,int>,QtPrivate::AbstractConverterFunction const *>::detach()
PUBLIC d07d0 0 QHash<QPair<int,int>,QtPrivate::AbstractConverterFunction const *>::duplicateNode(QHashData::Node *,void *)
PUBLIC d0800 0 QHash<QPair<int,int>,QtPrivate::AbstractConverterFunction const *>::findNode(QPair<int,int> const &,unsigned int *)
PUBLIC d0870 0 QMetaTypeFunctionRegistry<QtPrivate::AbstractComparatorFunction,int>::function(int)
PUBLIC d08e0 0 QMetaTypeFunctionRegistry<QtPrivate::AbstractConverterFunction,QPair<int,int> >::function(QPair<int,int>)
PUBLIC d0950 0 QMetaType::hasRegisteredConverterFunction(int,int)
PUBLIC d09d0 0 `anonymous namespace'::Q_QGS_customTypes::innerFunction()
PUBLIC d0a90 0 `anonymous namespace'::Q_QGS_customTypesComparatorRegistry::innerFunction()
PUBLIC d0b70 0 `anonymous namespace'::Q_QGS_customTypesConversionRegistry::innerFunction()
PUBLIC d0c50 0 `anonymous namespace'::Q_QGS_customTypesDebugStreamRegistry::innerFunction()
PUBLIC d0d30 0 `anonymous namespace'::Q_QGS_customTypesLock::innerFunction()
PUBLIC d0e00 0 QMetaTypeFunctionRegistry<QtPrivate::AbstractConverterFunction,QPair<int,int> >::insertIfNotContains(QPair<int,int>,QtPrivate::AbstractConverterFunction const *)
PUBLIC d0eb0 0 QMetaType::isRegistered(int)
PUBLIC d10e0 0 qMetaTypeTypeInternal(char const *)
PUBLIC d10f0 0 QVector<QCustomTypeInfo>::reallocData(int,int,QFlags<QArrayData::AllocationOption>)
PUBLIC d1380 0 QMetaType::registerConverterFunction(QtPrivate::AbstractConverterFunction const *,int,int)
PUBLIC d1410 0 QMetaType::registerNormalizedType(QByteArray const &,void (*)(void *),void * (*)(void const *),void (*)(void *),void * (*)(void *,void const *),int,QFlags<QMetaType::TypeFlag>,QMetaObject const *)
PUBLIC d1700 0 QMetaType::registerNormalizedTypedef(QByteArray const &,int)
PUBLIC d18d0 0 QHash<QPair<int,int>,QtPrivate::AbstractConverterFunction const *>::remove(QPair<int,int> const &)
PUBLIC d19b0 0 QMetaTypeFunctionRegistry<QtPrivate::AbstractConverterFunction,QPair<int,int> >::remove(int,int)
PUBLIC d1a50 0 QMetaType::sizeOf(int)
PUBLIC d1a70 0 QMetaType::type(char const *)
PUBLIC d1a80 0 QMetaType::typeFlags(int)
PUBLIC d1ab0 0 QMetaType::typeInfo(int)
PUBLIC d1c10 0 QMetaType::typeName(int)
PUBLIC d2290 0 QMetaType::unregisterConverterFunction(int,int)
PUBLIC d22b0 0 QHash<int,QtPrivate::AbstractComparatorFunction const *>::value(int const &,QtPrivate::AbstractComparatorFunction const * const &)
PUBLIC d2320 0 QHash<QPair<int,int>,QtPrivate::AbstractConverterFunction const *>::value(QPair<int,int> const &,QtPrivate::AbstractConverterFunction const * const &)
PUBLIC d23a0 0 QConcatenable<QStringBuilder<QStringBuilder<QStringBuilder<QString,QLatin1Char>,QString>,QLatin1String> >::appendTo<QChar>(QStringBuilder<QStringBuilder<QStringBuilder<QString,QLatin1Char>,QString>,QLatin1String> const &,QChar * &)
PUBLIC d2420 0 QStringBuilder<QStringBuilder<QStringBuilder<QString,QLatin1Char>,QString>,QLatin1String>::convertTo<QString>()
PUBLIC d24d0 0 QTemporaryDir::QTemporaryDir()
PUBLIC d2580 0 QScopedPointer<QTemporaryDirPrivate,QScopedPointerDeleter<QTemporaryDirPrivate> >::~QScopedPointer<QTemporaryDirPrivate,QScopedPointerDeleter<QTemporaryDirPrivate> >()
PUBLIC d25c0 0 QTemporaryDir::~QTemporaryDir()
PUBLIC d2650 0 QStringBuilder<QStringBuilder<QStringBuilder<QString,QLatin1Char>,QString>,QLatin1String>::operator QString()
PUBLIC d2670 0 QTemporaryDirPrivate::create(QString const &)
PUBLIC d27b0 0 QFile::decodeName(char const *)
PUBLIC d2a40 0 QTemporaryDir::path()
PUBLIC d2d30 0 QTemporaryDir::remove()
PUBLIC d2ee0 0 QDate::QDate(int,int,int)
PUBLIC d2f00 0 QDateTime::QDateTime(QDateTime const &)
PUBLIC d2f20 0 QDateTime::QDateTime(QDate const &)
PUBLIC d3010 0 QDateTime::QDateTime(QDate const &,QTime const &,Qt::TimeSpec)
PUBLIC d3090 0 QDateTime::QDateTime(QDate const &,QTime const &,Qt::TimeSpec,int)
PUBLIC d3110 0 QDateTime::QDateTime()
PUBLIC d31b0 0 QDateTimeParser::QDateTimeParser(QVariant::Type,QDateTimeParser::Context)
PUBLIC d32e0 0 QDateTimePrivate::QDateTimePrivate(QDate const &,QTime const &,Qt::TimeSpec,int)
PUBLIC d3380 0 QStringRef::QStringRef(QString const *)
PUBLIC d33b0 0 QTime::QTime(int,int,int,int)
PUBLIC d3410 0 QVector<QDateTimeParser::SectionNode>::~QVector<QDateTimeParser::SectionNode>()
PUBLIC d3440 0 QDateTime::~QDateTime()
PUBLIC d3470 0 QDateTimeParser::~QDateTimeParser()
PUBLIC d3590 0 QDateTime::operator=(QDateTime const &)
PUBLIC d35e0 0 operator<<(QDebug,QDate const &)
PUBLIC d3720 0 operator<<(QDebug,QDateTime const &)
PUBLIC d3c00 0 operator<<(QDebug,QTime const &)
PUBLIC d3d80 0 QDateTime::operator==(QDateTime const &)
PUBLIC d3e20 0 QSharedDataPointer<QTimeZonePrivate>::operator->()
PUBLIC d3e70 0 QDateTime::operator<(QDateTime const &)
PUBLIC d40e0 0 QDateTimeParser::`vector deleting destructor'(unsigned int)
PUBLIC d4100 0 QDate::addDays(__int64)
PUBLIC d4190 0 QDateTime::addMSecs(__int64)
PUBLIC d42c0 0 QTime::addMSecs(int)
PUBLIC d4340 0 QDate::addMonths(int)
PUBLIC d4460 0 QDateTime::addMonths(int)
PUBLIC d4600 0 QDateTime::addSecs(__int64)
PUBLIC d4640 0 QExplicitlySharedDataPointer<QDateTimePrivate>::clone()
PUBLIC d46e0 0 QDate::currentDate()
PUBLIC d4750 0 QDateTime::currentDateTime()
PUBLIC d48c0 0 QDateTime::currentDateTimeUtc()
PUBLIC d4a30 0 QDateTime::currentMSecsSinceEpoch()
PUBLIC d4ae0 0 QTime::currentTime()
PUBLIC d4b90 0 QDateTime::date()
PUBLIC d4bf0 0 QDate::day()
PUBLIC d4c40 0 QDate::dayOfWeek()
PUBLIC d4ca0 0 QDate::daysInMonth()
PUBLIC d4d20 0 QDate::daysTo(QDate const &)
PUBLIC d4d90 0 QDateTime::daysTo(QDateTime const &)
PUBLIC d4e60 0 QExplicitlySharedDataPointer<QDateTimePrivate>::detach_helper()
PUBLIC d4eb0 0 QTime::elapsed()
PUBLIC d5200 0 floor(float)
PUBLIC d5520 0 QDateTime::fromMSecsSinceEpoch(__int64,Qt::TimeSpec,int)
PUBLIC d58f0 0 QDate::fromString(QString const &,Qt::DateFormat)
PUBLIC d5e40 0 QDateTime::fromString(QString const &,QString const &)
PUBLIC d60d0 0 QDateTime::fromString(QString const &,Qt::DateFormat)
PUBLIC d69d0 0 QTime::fromString(QString const &,Qt::DateFormat)
PUBLIC d6be0 0 QDateTime::fromTime_t(unsigned int)
PUBLIC d6c10 0 QDate::getDate(int *,int *,int *)
PUBLIC d6e30 0 QDateTimePrivate::getDateTime(QDate *,QTime *)
PUBLIC d6e80 0 QTime::hour()
PUBLIC d6eb0 0 QChar::isDigit()
PUBLIC d6ee0 0 QDate::isLeapYear(int)
PUBLIC d6f40 0 QDateTime::isNull()
PUBLIC d6f60 0 QDate::isValid(int,int,int)
PUBLIC d6fb0 0 QDateTime::isValid()
PUBLIC d6fd0 0 QTime::isValid()
PUBLIC d6ff0 0 QTime::isValid(int,int,int,int)
PUBLIC d7520 0 QDateTimeParser::locale()
PUBLIC d7540 0 QTime::minute()
PUBLIC d7580 0 QDate::month()
PUBLIC d75d0 0 QTime::msec()
PUBLIC d7610 0 QDateTime::msecsTo(QDateTime const &)
PUBLIC d7680 0 QTime::msecsTo(QTime const &)
PUBLIC d77e0 0 pow(double,int)
PUBLIC d7840 0 qRound(double)
PUBLIC d7d40 0 qt_monthNumberFromShortName(QString const &)
PUBLIC d7e30 0 QDateTimePrivate::refreshDateTime()
PUBLIC d8840 0 QTime::second()
PUBLIC d8870 0 QDateTime::secsTo(QDateTime const &)
PUBLIC d8890 0 QDate::setDate(int,int,int)
PUBLIC d8930 0 QDateTime::setDate(QDate const &)
PUBLIC d8990 0 QDateTimePrivate::setDateTime(QDate const &,QTime const &)
PUBLIC d8af0 0 QDateTimePrivate::setDaylightStatus(QDateTimePrivate::DaylightStatus)
PUBLIC d8b30 0 QDateTime::setMSecsSinceEpoch(__int64)
PUBLIC d8c70 0 QDateTime::setOffsetFromUtc(int)
PUBLIC d8d30 0 QDateTime::setTime(QTime const &)
PUBLIC d8db0 0 QDateTime::setTimeSpec(Qt::TimeSpec)
PUBLIC d8e90 0 QDateTimePrivate::setTimeSpec(Qt::TimeSpec,int)
PUBLIC d8f20 0 QDate::shortDayName(int,QDate::MonthNameType)
PUBLIC d9020 0 QDate::shortMonthName(int,QDate::MonthNameType)
PUBLIC d9120 0 QTime::start()
PUBLIC d9140 0 QDateTime::time()
PUBLIC d9180 0 QDateTime::timeZone()
PUBLIC d9300 0 QDateTime::timeZoneAbbreviation()
PUBLIC d9760 0 QDate::toString(Qt::DateFormat)
PUBLIC d9c80 0 QDateTime::toString(QString const &)
PUBLIC d9d00 0 QDateTime::toString(Qt::DateFormat)
PUBLIC da550 0 QTime::toString(QString const &)
PUBLIC da5d0 0 QTime::toString(Qt::DateFormat)
PUBLIC da8e0 0 QDateTime::toTimeSpec(Qt::TimeSpec)
PUBLIC daa10 0 QDateTime::toTime_t()
PUBLIC daa50 0 QTimeZonePrivate::utcQByteArray()
PUBLIC daa70 0 QTimeZonePrivate::utcQString()
PUBLIC daa90 0 QDate::year()
PUBLIC daae0 0 QDateTimePrivate::zoneMSecsToEpochMSecs(__int64,QTimeZone const &,QDate *,QTime *)
PUBLIC dab90 0 QTextStream::QTextStream(QByteArray const &,QFlags<QIODevice::OpenModeFlag>)
PUBLIC daca0 0 QTextStream::QTextStream(QIODevice *)
PUBLIC dad70 0 QTextStream::QTextStream(QString *,QFlags<QIODevice::OpenModeFlag>)
PUBLIC dae00 0 QTextStreamPrivate::QTextStreamPrivate(QTextStream *)
PUBLIC daf20 0 QScopedPointer<QTextStreamPrivate,QScopedPointerDeleter<QTextStreamPrivate> >::~QScopedPointer<QTextStreamPrivate,QScopedPointerDeleter<QTextStreamPrivate> >()
PUBLIC daf40 0 QDeviceClosedNotifier::~QDeviceClosedNotifier()
PUBLIC daf50 0 QTextStream::~QTextStream()
PUBLIC dafd0 0 QTextStreamPrivate::~QTextStreamPrivate()
PUBLIC db0e0 0 QTextStream::operator<<(QByteArray const &)
PUBLIC db1c0 0 QTextStream::operator<<(QString const &)
PUBLIC db220 0 QTextStream::operator<<(char)
PUBLIC db2f0 0 QTextStream::operator<<(short)
PUBLIC db380 0 QTextStream::operator<<(unsigned short)
PUBLIC db3e0 0 QTextStream::operator<<(int)
PUBLIC db460 0 QTextStream::operator<<(unsigned int)
PUBLIC db4c0 0 QTextStream::operator<<(float)
PUBLIC db4e0 0 QTextStream::operator<<(double)
PUBLIC db760 0 QTextStream::operator<<(char const *)
PUBLIC db840 0 QTextStream::operator<<(void const *)
PUBLIC db8d0 0 QTextStream::operator<<(QChar)
PUBLIC db9a0 0 QTextStream::operator<<(__int64)
PUBLIC dba30 0 QTextStream::operator<<(unsigned __int64)
PUBLIC dba90 0 QTextStream::`vector deleting destructor'(unsigned int)
PUBLIC dbb20 0 QTextStream::atEnd()
PUBLIC dbba0 0 QTextCodec::codecForName(char const *)
PUBLIC dbc30 0 QTextStreamPrivate::consume(int)
PUBLIC dbcf0 0 endl(QTextStream &)
PUBLIC dbd10 0 QTextStreamPrivate::fillReadBuffer(__int64)
PUBLIC dc0e0 0 flush(QTextStream &)
PUBLIC dc100 0 QTextStream::flush()
PUBLIC dc110 0 QTextStreamPrivate::flushWriteBuffer()
PUBLIC dc2d0 0 QTextStream::locale()
PUBLIC dc300 0 QTextStreamPrivate::putNumber(unsigned __int64,bool)
PUBLIC dc5f0 0 QTextStreamPrivate::putString(QString const &,bool)
PUBLIC dc860 0 QTextStream::readLine(__int64)
PUBLIC dc990 0 QTextStreamPrivate::reset()
PUBLIC dcad0 0 QTextStreamPrivate::saveConverterState(__int64)
PUBLIC dcb70 0 QTextStreamPrivate::scan(QChar const * *,int *,int,QTextStreamPrivate::TokenDelimiter)
PUBLIC dcdc0 0 QBuffer::qt_static_metacall(QObject *,QMetaObject::Call,int,void * *)
PUBLIC dce20 0 QBuffer::QBuffer(QByteArray *,QObject *)
PUBLIC dcf10 0 QBuffer::QBuffer(QObject *)
PUBLIC dcfe0 0 QBuffer::~QBuffer()
PUBLIC dcff0 0 QBuffer::`vector deleting destructor'(unsigned int)
PUBLIC dd020 0 QBufferPrivate::`vector deleting destructor'(unsigned int)
PUBLIC dd080 0 QBuffer::atEnd()
PUBLIC dd090 0 QBuffer::buffer()
PUBLIC dd0a0 0 QBuffer::canReadLine()
PUBLIC dd0f0 0 QBuffer::close()
PUBLIC dd100 0 QBuffer::connectNotify(QMetaMethod const &)
PUBLIC dd1f0 0 QBuffer::disconnectNotify(QMetaMethod const &)
PUBLIC dd300 0 QBuffer::metaObject()
PUBLIC dd320 0 QBuffer::open(QFlags<QIODevice::OpenModeFlag>)
PUBLIC dd3a0 0 QBufferPrivate::peek(__int64)
PUBLIC dd460 0 QBufferPrivate::peek(char *,__int64)
PUBLIC dd4c0 0 QBuffer::qt_metacall(QMetaObject::Call,int,void * *)
PUBLIC dd520 0 QBuffer::qt_metacast(char const *)
PUBLIC dd580 0 QBuffer::readData(char *,__int64)
PUBLIC dd630 0 QBuffer::seek(__int64)
PUBLIC dd7f0 0 QBuffer::setData(QByteArray const &)
PUBLIC dd850 0 QBuffer::size()
PUBLIC dd860 0 QBuffer::writeData(char const *,__int64)
PUBLIC dd9c0 0 operator+=<QString,QLatin1Char>(QString &,QStringBuilder<QString,QLatin1Char> const &)
PUBLIC dda90 0 QStringBuilder<QStringBuilder<QString,QString>,QString>::convertTo<QString>()
PUBLIC ddb70 0 qAtomicDetach<QUrlPrivate>(QUrlPrivate * &)
PUBLIC ddc00 0 QUrl::QUrl(QString const &,QUrl::ParsingMode)
PUBLIC ddc20 0 QUrlPrivate::QUrlPrivate(QUrlPrivate const &)
PUBLIC ddd80 0 QUrlPrivate::QUrlPrivate()
PUBLIC dddd0 0 QUrl::~QUrl()
PUBLIC dde00 0 QUrlPrivate::~QUrlPrivate()
PUBLIC ddf70 0 QUrl::operator=(QUrl const &)
PUBLIC de010 0 operator<<(QDebug,QUrl const &)
PUBLIC de160 0 QUrl::operator==(QUrl const &)
PUBLIC de2c0 0 QUrl::operator!=(QUrl const &)
PUBLIC de2e0 0 QStringBuilder<QStringBuilder<QString,QString>,QString>::operator QString()
PUBLIC de360 0 QUrlPrivate::appendAuthority(QString &,QUrlTwoFlags<QUrl::UrlFormattingOption,QUrl::ComponentFormattingOption>,QUrlPrivate::Section)
PUBLIC de460 0 QUrlPrivate::appendFragment(QString &,QUrlTwoFlags<QUrl::UrlFormattingOption,QUrl::ComponentFormattingOption>,QUrlPrivate::Section)
PUBLIC de4d0 0 QUrlPrivate::appendHost(QString &,QUrlTwoFlags<QUrl::UrlFormattingOption,QUrl::ComponentFormattingOption>)
PUBLIC de5c0 0 QUrlPrivate::appendPassword(QString &,QUrlTwoFlags<QUrl::UrlFormattingOption,QUrl::ComponentFormattingOption>)
PUBLIC de630 0 QUrlPrivate::appendPath(QString &,QUrlTwoFlags<QUrl::UrlFormattingOption,QUrl::ComponentFormattingOption>,QUrlPrivate::Section)
PUBLIC de830 0 QUrlPrivate::appendQuery(QString &,QUrlTwoFlags<QUrl::UrlFormattingOption,QUrl::ComponentFormattingOption>,QUrlPrivate::Section)
PUBLIC de8a0 0 QUrlPrivate::appendUserInfo(QString &,QUrlTwoFlags<QUrl::UrlFormattingOption,QUrl::ComponentFormattingOption>,QUrlPrivate::Section)
PUBLIC de9a0 0 QUrlPrivate::appendUserName(QString &,QUrlTwoFlags<QUrl::UrlFormattingOption,QUrl::ComponentFormattingOption>)
PUBLIC dea10 0 QUrl::authority(QFlags<QUrl::ComponentFormattingOption>)
PUBLIC deb10 0 QUrlPrivate::clearError()
PUBLIC deb80 0 QUrl::fromAce(QByteArray const &)
PUBLIC dec20 0 QUrl::fromEncoded(QByteArray const &,QUrl::ParsingMode)
PUBLIC decd0 0 QUrl::hasQuery()
PUBLIC decf0 0 QUrl::host(QFlags<QUrl::ComponentFormattingOption>)
PUBLIC dee10 0 QUrl::isEmpty()
PUBLIC dee40 0 QUrl::isLocalFile()
PUBLIC dee60 0 QUrl::isValid()
PUBLIC def10 0 QUrlPrivate::parse(QString const &,QUrl::ParsingMode)
PUBLIC df810 0 QUrl::password(QFlags<QUrl::ComponentFormattingOption>)
PUBLIC df8e0 0 QUrl::path(QFlags<QUrl::ComponentFormattingOption>)
PUBLIC df9b0 0 QUrl::port(int)
PUBLIC df9d0 0 QUrl::query(QFlags<QUrl::ComponentFormattingOption>)
PUBLIC dfbe0 0 QUrl::scheme()
PUBLIC dfc20 0 QUrlPrivate::setAuthority(QString const &,int,int,QUrl::ParsingMode)
PUBLIC dfef0 0 QUrlPrivate::setError(QUrlPrivate::ErrorCode,QString const &,int)
PUBLIC dff40 0 QUrl::setFragment(QString const &,QUrl::ParsingMode)
PUBLIC e0100 0 QUrl::setHost(QString const &,QUrl::ParsingMode)
PUBLIC e02e0 0 QUrlPrivate::setHost(QString const &,int,int,QUrl::ParsingMode)
PUBLIC e0630 0 QUrl::setPassword(QString const &,QUrl::ParsingMode)
PUBLIC e07f0 0 QUrlPrivate::setPassword(QString const &,int,int)
PUBLIC e0860 0 QUrl::setPath(QString const &,QUrl::ParsingMode)
PUBLIC e0a80 0 QUrl::setPort(int)
PUBLIC e0be0 0 QUrl::setQuery(QString const &,QUrl::ParsingMode)
PUBLIC e0da0 0 QUrl::setScheme(QString const &)
PUBLIC e0e80 0 QUrlPrivate::setScheme(QString const &,int,bool)
PUBLIC e1070 0 QUrl::setUrl(QString const &,QUrl::ParsingMode)
PUBLIC e1120 0 QUrl::setUserInfo(QString const &,QUrl::ParsingMode)
PUBLIC e12a0 0 QUrlPrivate::setUserInfo(QString const &,int,int)
PUBLIC e1390 0 QUrl::setUserName(QString const &,QUrl::ParsingMode)
PUBLIC e1550 0 QUrl::toAce(QString const &)
PUBLIC e15f0 0 QUrl::toDisplayString(QUrlTwoFlags<QUrl::UrlFormattingOption,QUrl::ComponentFormattingOption>)
PUBLIC e1620 0 QUrl::toEncoded(QUrlTwoFlags<QUrl::UrlFormattingOption,QUrl::ComponentFormattingOption>)
PUBLIC e16d0 0 QUrl::toLocalFile()
PUBLIC e19e0 0 QUrl::toString(QUrlTwoFlags<QUrl::UrlFormattingOption,QUrl::ComponentFormattingOption>)
PUBLIC e1c90 0 QUrl::url(QUrlTwoFlags<QUrl::UrlFormattingOption,QUrl::ComponentFormattingOption>)
PUBLIC e1cb0 0 QUrl::userInfo(QFlags<QUrl::ComponentFormattingOption>)
PUBLIC e1db0 0 QUrl::userName(QFlags<QUrl::ComponentFormattingOption>)
PUBLIC e1e80 0 QUrlPrivate::validateComponent(QUrlPrivate::Section,QString const &,int,int)
PUBLIC e2030 0 QEventLoop::QEventLoop(QObject *)
PUBLIC e21a0 0 QEventLoop::~QEventLoop()
PUBLIC e21b0 0 QEventLoop::`vector deleting destructor'(unsigned int)
PUBLIC e21e0 0 QVector<int>::append(int const &)
PUBLIC e2250 0 QEventLoop::event(QEvent *)
PUBLIC e2290 0 QEventLoop::exec(QFlags<QEventLoop::ProcessEventsFlag>)
PUBLIC e23e0 0 QEventLoop::exit(int)
PUBLIC e2410 0 QEventLoop::quit()
PUBLIC e2510 0 QNetworkAccessBackend::canResume()
PUBLIC e39a0 0 operator<<<QString,QVariant>(QDebug,QHash<QString,QVariant> const &)
PUBLIC e3be0 0 operator<<<QString,QVariant>(QDebug,QMap<QString,QVariant> const &)
PUBLIC e3e00 0 operator<<<QVariant>(QDebug,QList<QVariant> const &)
PUBLIC e3fa0 0 QVariant::canConvert<QString>()
PUBLIC e4090 0 QVariantDebugStream<`anonymous namespace'::CoreTypesFilter>::delegate<signed char>(signed char const *)
PUBLIC e4110 0 QVariantConstructor<`anonymous namespace'::CoreTypesFilter>::delegate<signed char>(signed char const *)
PUBLIC e4160 0 QVariantDebugStream<`anonymous namespace'::CoreTypesFilter>::delegate<char>(char const *)
PUBLIC e41f0 0 QVariantDebugStream<`anonymous namespace'::CoreTypesFilter>::delegate<unsigned char>(unsigned char const *)
PUBLIC e4270 0 QVariantDebugStream<`anonymous namespace'::CoreTypesFilter>::delegate<short>(short const *)
PUBLIC e42f0 0 QVariantConstructor<`anonymous namespace'::CoreTypesFilter>::delegate<short>(short const *)
PUBLIC e4340 0 QVariantDebugStream<`anonymous namespace'::CoreTypesFilter>::delegate<unsigned short>(unsigned short const *)
PUBLIC e43c0 0 QVariantDebugStream<`anonymous namespace'::CoreTypesFilter>::delegate<int>(int const *)
PUBLIC e4440 0 QVariantDebugStream<`anonymous namespace'::CoreTypesFilter>::delegate<unsigned int>(unsigned int const *)
PUBLIC e44c0 0 QVariantDebugStream<`anonymous namespace'::CoreTypesFilter>::delegate<float>(float const *)
PUBLIC e4550 0 QVariantConstructor<`anonymous namespace'::CoreTypesFilter>::delegate<double>(double const *)
PUBLIC e45a0 0 QVariantDebugStream<`anonymous namespace'::CoreTypesFilter>::delegate<double>(double const *)
PUBLIC e4630 0 QVariantDebugStream<`anonymous namespace'::CoreTypesFilter>::delegate<QObject *>(QObject * const *)
PUBLIC e46c0 0 QVariantConstructor<`anonymous namespace'::CoreTypesFilter>::delegate<int>(int const *)
PUBLIC e4710 0 QVariantDebugStream<`anonymous namespace'::CoreTypesFilter>::delegate<void *>(void * const *)
PUBLIC e4790 0 QVariantConstructor<`anonymous namespace'::CoreTypesFilter>::delegate<QHash<QString,QVariant> >(QHash<QString,QVariant> const *)
PUBLIC e47c0 0 QVariantDebugStream<`anonymous namespace'::CoreTypesFilter>::delegate<QHash<QString,QVariant> >(QHash<QString,QVariant> const *)
PUBLIC e4850 0 QVariantDestructor<`anonymous namespace'::CoreTypesFilter>::delegate<QHash<QString,QVariant> >(QHash<QString,QVariant> const *)
PUBLIC e48a0 0 QVariantConstructor<`anonymous namespace'::CoreTypesFilter>::delegate<QList<QByteArray> >(QList<QByteArray> const *)
PUBLIC e4930 0 QVariantDebugStream<`anonymous namespace'::CoreTypesFilter>::delegate<QList<QByteArray> >(QList<QByteArray> const *)
PUBLIC e49c0 0 QVariantDestructor<`anonymous namespace'::CoreTypesFilter>::delegate<QList<QByteArray> >(QList<QByteArray> const *)
PUBLIC e4a10 0 QVariantConstructor<`anonymous namespace'::CoreTypesFilter>::delegate<QList<QVariant> >(QList<QVariant> const *)
PUBLIC e4aa0 0 QVariantDebugStream<`anonymous namespace'::CoreTypesFilter>::delegate<QList<QVariant> >(QList<QVariant> const *)
PUBLIC e4b30 0 QVariantDestructor<`anonymous namespace'::CoreTypesFilter>::delegate<QList<QVariant> >(QList<QVariant> const *)
PUBLIC e4b60 0 QVariantConstructor<`anonymous namespace'::CoreTypesFilter>::delegate<QMap<QString,QVariant> >(QMap<QString,QVariant> const *)
PUBLIC e4b90 0 QVariantDebugStream<`anonymous namespace'::CoreTypesFilter>::delegate<QMap<QString,QVariant> >(QMap<QString,QVariant> const *)
PUBLIC e4c20 0 QVariantDestructor<`anonymous namespace'::CoreTypesFilter>::delegate<QMap<QString,QVariant> >(QMap<QString,QVariant> const *)
PUBLIC e4c80 0 QVariantDebugStream<`anonymous namespace'::CoreTypesFilter>::delegate<QBitArray>(QBitArray const *)
PUBLIC e4d10 0 QVariantDebugStream<`anonymous namespace'::CoreTypesFilter>::delegate<QByteArray>(QByteArray const *)
PUBLIC e4d30 0 QVariantDestructor<`anonymous namespace'::CoreTypesFilter>::delegate<QBitArray>(QBitArray const *)
PUBLIC e4d60 0 QVariantDebugStream<`anonymous namespace'::CoreTypesFilter>::delegate<QChar>(QChar const *)
PUBLIC e4d80 0 QVariantConstructor<`anonymous namespace'::CoreTypesFilter>::delegate<QDate>(QDate const *)
PUBLIC e4de0 0 QVariantDebugStream<`anonymous namespace'::CoreTypesFilter>::delegate<QDate>(QDate const *)
PUBLIC e4e70 0 QVariantIsNull<`anonymous namespace'::CoreTypesFilter>::delegate<QDate>(QDate const *)
PUBLIC e4ec0 0 QVariantDebugStream<`anonymous namespace'::CoreTypesFilter>::delegate<QDateTime>(QDateTime const *)
PUBLIC e4f50 0 QVariantDebugStream<`anonymous namespace'::CoreTypesFilter>::delegate<QEasingCurve>(QEasingCurve const *)
PUBLIC e4fe0 0 QVariantConstructor<`anonymous namespace'::CoreTypesFilter>::delegate<QJsonArray>(QJsonArray const *)
PUBLIC e5010 0 QVariantDebugStream<`anonymous namespace'::CoreTypesFilter>::delegate<QJsonArray>(QJsonArray const *)
PUBLIC e50a0 0 QVariantConstructor<`anonymous namespace'::CoreTypesFilter>::delegate<QJsonDocument>(QJsonDocument const *)
PUBLIC e50d0 0 QVariantDebugStream<`anonymous namespace'::CoreTypesFilter>::delegate<QJsonDocument>(QJsonDocument const *)
PUBLIC e5160 0 QVariantDebugStream<`anonymous namespace'::CoreTypesFilter>::delegate<QJsonObject>(QJsonObject const *)
PUBLIC e51f0 0 QVariantDestructor<`anonymous namespace'::CoreTypesFilter>::delegate<QJsonArray>(QJsonArray const *)
PUBLIC e5210 0 QVariantConstructor<`anonymous namespace'::CoreTypesFilter>::delegate<QJsonValue>(QJsonValue const *)
PUBLIC e5240 0 QVariantDebugStream<`anonymous namespace'::CoreTypesFilter>::delegate<QJsonValue>(QJsonValue const *)
PUBLIC e52d0 0 QVariantDestructor<`anonymous namespace'::CoreTypesFilter>::delegate<QJsonValue>(QJsonValue const *)
PUBLIC e52f0 0 QVariantComparator<`anonymous namespace'::CoreTypesFilter>::delegate<QLine>(QLine const *)
PUBLIC e5330 0 QVariantConstructor<`anonymous namespace'::CoreTypesFilter>::delegate<QLine>(QLine const *)
PUBLIC e5360 0 QVariantDebugStream<`anonymous namespace'::CoreTypesFilter>::delegate<QLine>(QLine const *)
PUBLIC e53f0 0 QVariantIsNull<`anonymous namespace'::CoreTypesFilter>::delegate<QLine>(QLine const *)
PUBLIC e5410 0 QVariantComparator<`anonymous namespace'::CoreTypesFilter>::delegate<QLineF>(QLineF const *)
PUBLIC e54a0 0 QVariantDebugStream<`anonymous namespace'::CoreTypesFilter>::delegate<QLineF>(QLineF const *)
PUBLIC e5530 0 QVariantIsNull<`anonymous namespace'::CoreTypesFilter>::delegate<QLineF>(QLineF const *)
PUBLIC e5610 0 QVariantDebugStream<`anonymous namespace'::CoreTypesFilter>::delegate<QLocale>(QLocale const *)
PUBLIC e56a0 0 QVariantComparator<`anonymous namespace'::CoreTypesFilter>::delegate<QModelIndex>(QModelIndex const *)
PUBLIC e56e0 0 QVariantConstructor<`anonymous namespace'::CoreTypesFilter>::delegate<QModelIndex>(QModelIndex const *)
PUBLIC e5710 0 QVariantDebugStream<`anonymous namespace'::CoreTypesFilter>::delegate<QModelIndex>(QModelIndex const *)
PUBLIC e57a0 0 QVariantDebugStream<`anonymous namespace'::CoreTypesFilter>::delegate<QPoint>(QPoint const *)
PUBLIC e5830 0 QVariantComparator<`anonymous namespace'::CoreTypesFilter>::delegate<QPointF>(QPointF const *)
PUBLIC e5890 0 QVariantConstructor<`anonymous namespace'::CoreTypesFilter>::delegate<QPointF>(QPointF const *)
PUBLIC e58c0 0 QVariantDebugStream<`anonymous namespace'::CoreTypesFilter>::delegate<QPointF>(QPointF const *)
PUBLIC e5950 0 QVariantIsNull<`anonymous namespace'::CoreTypesFilter>::delegate<QPointF>(QPointF const *)
PUBLIC e59a0 0 QVariantComparator<`anonymous namespace'::CoreTypesFilter>::delegate<QRect>(QRect const *)
PUBLIC e59e0 0 QVariantConstructor<`anonymous namespace'::CoreTypesFilter>::delegate<QRect>(QRect const *)
PUBLIC e5a10 0 QVariantDebugStream<`anonymous namespace'::CoreTypesFilter>::delegate<QRect>(QRect const *)
PUBLIC e5aa0 0 QVariantIsNull<`anonymous namespace'::CoreTypesFilter>::delegate<QRect>(QRect const *)
PUBLIC e5ad0 0 QVariantConstructor<`anonymous namespace'::CoreTypesFilter>::delegate<QLineF>(QLineF const *)
PUBLIC e5b00 0 QVariantDebugStream<`anonymous namespace'::CoreTypesFilter>::delegate<QRectF>(QRectF const *)
PUBLIC e5b90 0 QVariantIsNull<`anonymous namespace'::CoreTypesFilter>::delegate<QRectF>(QRectF const *)
PUBLIC e5bd0 0 QVariantDebugStream<`anonymous namespace'::CoreTypesFilter>::delegate<QRegExp>(QRegExp const *)
PUBLIC e5c60 0 QVariantDebugStream<`anonymous namespace'::CoreTypesFilter>::delegate<QRegularExpression>(QRegularExpression const *)
PUBLIC e5cf0 0 QVariantConstructor<`anonymous namespace'::CoreTypesFilter>::delegate<QSize>(QSize const *)
PUBLIC e5d50 0 QVariantDebugStream<`anonymous namespace'::CoreTypesFilter>::delegate<QSize>(QSize const *)
PUBLIC e5de0 0 QVariantIsNull<`anonymous namespace'::CoreTypesFilter>::delegate<QPoint>(QPoint const *)
PUBLIC e5e00 0 QVariantComparator<`anonymous namespace'::CoreTypesFilter>::delegate<QSizeF>(QSizeF const *)
PUBLIC e5ef0 0 QVariantConstructor<`anonymous namespace'::CoreTypesFilter>::delegate<QSizeF>(QSizeF const *)
PUBLIC e5f20 0 QVariantDebugStream<`anonymous namespace'::CoreTypesFilter>::delegate<QSizeF>(QSizeF const *)
PUBLIC e5fb0 0 QVariantConstructor<`anonymous namespace'::CoreTypesFilter>::delegate<QBitArray>(QBitArray const *)
PUBLIC e6010 0 QVariantDebugStream<`anonymous namespace'::CoreTypesFilter>::delegate<QString>(QString const *)
PUBLIC e6030 0 QVariantDestructor<`anonymous namespace'::CoreTypesFilter>::delegate<QString>(QString const *)
PUBLIC e6060 0 QVariantConstructor<`anonymous namespace'::CoreTypesFilter>::delegate<QStringList>(QStringList const *)
PUBLIC e60f0 0 QVariantDebugStream<`anonymous namespace'::CoreTypesFilter>::delegate<QStringList>(QStringList const *)
PUBLIC e6180 0 QVariantDestructor<`anonymous namespace'::CoreTypesFilter>::delegate<QStringList>(QStringList const *)
PUBLIC e61d0 0 QVariantConstructor<`anonymous namespace'::CoreTypesFilter>::delegate<QTime>(QTime const *)
PUBLIC e6220 0 QVariantDebugStream<`anonymous namespace'::CoreTypesFilter>::delegate<QTime>(QTime const *)
PUBLIC e62b0 0 QVariantDebugStream<`anonymous namespace'::CoreTypesFilter>::delegate<QUrl>(QUrl const *)
PUBLIC e6340 0 QVariantConstructor<`anonymous namespace'::CoreTypesFilter>::delegate<QUuid>(QUuid const *)
PUBLIC e6370 0 QVariantDebugStream<`anonymous namespace'::CoreTypesFilter>::delegate<QUuid>(QUuid const *)
PUBLIC e6400 0 QVariantComparator<`anonymous namespace'::CoreTypesFilter>::delegate<QVariant>(QVariant const *)
PUBLIC e6420 0 QVariantConstructor<`anonymous namespace'::CoreTypesFilter>::delegate<QVariant>(QVariant const *)
PUBLIC e6450 0 QVariantDebugStream<`anonymous namespace'::CoreTypesFilter>::delegate<QVariant>(QVariant const *)
PUBLIC e64e0 0 QVariantDestructor<`anonymous namespace'::CoreTypesFilter>::delegate<QVariant>(QVariant const *)
PUBLIC e6500 0 QVariantComparator<`anonymous namespace'::CoreTypesFilter>::delegate<QDate>(QDate const *)
PUBLIC e6520 0 QVariantDebugStream<`anonymous namespace'::CoreTypesFilter>::delegate<__int64>(__int64 const *)
PUBLIC e65a0 0 QVariantConstructor<`anonymous namespace'::CoreTypesFilter>::delegate<QPoint>(QPoint const *)
PUBLIC e6600 0 QVariantDebugStream<`anonymous namespace'::CoreTypesFilter>::delegate<unsigned __int64>(unsigned __int64 const *)
PUBLIC e6680 0 QVariantDebugStream<`anonymous namespace'::CoreTypesFilter>::delegate<bool>(bool const *)
PUBLIC e6710 0 QtMetaTypePrivate::QPairVariantInterfaceImpl::getSecondImpl<QPair<QVariant,QVariant> >(void const * const *,int,unsigned int)
PUBLIC e6730 0 qNumVariantToHelper<int>(QVariant::Private const &,`anonymous namespace'::HandlersManager const &,bool *,int const &)
PUBLIC e67f0 0 qNumVariantToHelper<unsigned int>(QVariant::Private const &,`anonymous namespace'::HandlersManager const &,bool *,unsigned int const &)
PUBLIC e68b0 0 qNumVariantToHelper<double>(QVariant::Private const &,`anonymous namespace'::HandlersManager const &,bool *,double const &)
PUBLIC e6970 0 qNumVariantToHelper<__int64>(QVariant::Private const &,`anonymous namespace'::HandlersManager const &,bool *,__int64 const &)
PUBLIC e6a40 0 qNumVariantToHelper<unsigned __int64>(QVariant::Private const &,`anonymous namespace'::HandlersManager const &,bool *,unsigned __int64 const &)
PUBLIC e6b10 0 qRegisterMetaType<QtMetaTypePrivate::QAssociativeIterableImpl>(char const *,QtMetaTypePrivate::QAssociativeIterableImpl *,QtPrivate::MetaTypeDefinedHelper<QtMetaTypePrivate::QAssociativeIterableImpl,1>::DefinedType)
PUBLIC e6bf0 0 qVariantToHelper<QByteArray>(QVariant::Private const &,`anonymous namespace'::HandlersManager const &)
PUBLIC e6d40 0 qVariantToHelper<QDate>(QVariant::Private const &,`anonymous namespace'::HandlersManager const &)
PUBLIC e6e10 0 qVariantToHelper<QDateTime>(QVariant::Private const &,`anonymous namespace'::HandlersManager const &)
PUBLIC e6f40 0 qVariantToHelper<QString>(QVariant::Private const &,`anonymous namespace'::HandlersManager const &)
PUBLIC e7090 0 qVariantToHelper<QTime>(QVariant::Private const &,`anonymous namespace'::HandlersManager const &)
PUBLIC e7140 0 qVariantToHelper<QUrl>(QVariant::Private const &,`anonymous namespace'::HandlersManager const &)
PUBLIC e7270 0 `anonymous namespace'::qt_convertToBool<QByteArray,QByteArray>(QVariant::Private const * const)
PUBLIC e73d0 0 `anonymous namespace'::qt_convertToBool<QString,QLatin1String>(QVariant::Private const * const)
PUBLIC e7490 0 QMetaTypeSwitcher::switcher<void,QVariantConstructor<`anonymous namespace'::CoreTypesFilter> >(QVariantConstructor<`anonymous namespace'::CoreTypesFilter> &,int,void const *)
PUBLIC e78d0 0 QMetaTypeSwitcher::switcher<void,QVariantDebugStream<`anonymous namespace'::CoreTypesFilter> >(QVariantDebugStream<`anonymous namespace'::CoreTypesFilter> &,int,void const *)
PUBLIC e7f70 0 QMetaTypeSwitcher::switcher<void,QVariantDestructor<`anonymous namespace'::CoreTypesFilter> >(QVariantDestructor<`anonymous namespace'::CoreTypesFilter> &,int,void const *)
PUBLIC e8170 0 QMetaTypeSwitcher::switcher<bool,QVariantComparator<`anonymous namespace'::CoreTypesFilter> >(QVariantComparator<`anonymous namespace'::CoreTypesFilter> &,int,void const *)
PUBLIC e8540 0 QMetaTypeSwitcher::switcher<bool,QVariantIsNull<`anonymous namespace'::CoreTypesFilter> >(QVariantIsNull<`anonymous namespace'::CoreTypesFilter> &,int,void const *)
PUBLIC e8750 0 QVariantConstructor<`anonymous namespace'::CoreTypesFilter>::CallConstructor<QHash<QString,QVariant>,0>::CallConstructor<QHash<QString,QVariant>,0>(QVariantConstructor<`anonymous namespace'::CoreTypesFilter> const &)
PUBLIC e8820 0 QVariantConstructor<`anonymous namespace'::CoreTypesFilter>::CallConstructor<QMap<QString,QVariant>,0>::CallConstructor<QMap<QString,QVariant>,0>(QVariantConstructor<`anonymous namespace'::CoreTypesFilter> const &)
PUBLIC e88d0 0 QVariantConstructor<`anonymous namespace'::CoreTypesFilter>::CallConstructor<QJsonArray,0>::CallConstructor<QJsonArray,0>(QVariantConstructor<`anonymous namespace'::CoreTypesFilter> const &)
PUBLIC e8990 0 QVariantConstructor<`anonymous namespace'::CoreTypesFilter>::CallConstructor<QJsonDocument,0>::CallConstructor<QJsonDocument,0>(QVariantConstructor<`anonymous namespace'::CoreTypesFilter> const &)
PUBLIC e8a50 0 QVariantConstructor<`anonymous namespace'::CoreTypesFilter>::CallConstructor<QJsonValue,0>::CallConstructor<QJsonValue,0>(QVariantConstructor<`anonymous namespace'::CoreTypesFilter> const &)
PUBLIC e8b10 0 QVariantConstructor<`anonymous namespace'::CoreTypesFilter>::CallConstructor<QLine,0>::CallConstructor<QLine,0>(QVariantConstructor<`anonymous namespace'::CoreTypesFilter> const &)
PUBLIC e8ba0 0 QVariantConstructor<`anonymous namespace'::CoreTypesFilter>::CallConstructor<QModelIndex,0>::CallConstructor<QModelIndex,0>(QVariantConstructor<`anonymous namespace'::CoreTypesFilter> const &)
PUBLIC e8c30 0 QVariantConstructor<`anonymous namespace'::CoreTypesFilter>::CallConstructor<QPointF,0>::CallConstructor<QPointF,0>(QVariantConstructor<`anonymous namespace'::CoreTypesFilter> const &)
PUBLIC e8cb0 0 QVariantConstructor<`anonymous namespace'::CoreTypesFilter>::CallConstructor<QRect,0>::CallConstructor<QRect,0>(QVariantConstructor<`anonymous namespace'::CoreTypesFilter> const &)
PUBLIC e8d40 0 QVariantConstructor<`anonymous namespace'::CoreTypesFilter>::CallConstructor<QLineF,0>::CallConstructor<QLineF,0>(QVariantConstructor<`anonymous namespace'::CoreTypesFilter> const &)
PUBLIC e8dd0 0 QVariantConstructor<`anonymous namespace'::CoreTypesFilter>::CallConstructor<QSizeF,0>::CallConstructor<QSizeF,0>(QVariantConstructor<`anonymous namespace'::CoreTypesFilter> const &)
PUBLIC e8e50 0 QVariantConstructor<`anonymous namespace'::CoreTypesFilter>::CallConstructor<QUuid,0>::CallConstructor<QUuid,0>(QVariantConstructor<`anonymous namespace'::CoreTypesFilter> const &)
PUBLIC e8ee0 0 QVariantConstructor<`anonymous namespace'::CoreTypesFilter>::CallConstructor<QVariant,0>::CallConstructor<QVariant,0>(QVariantConstructor<`anonymous namespace'::CoreTypesFilter> const &)
PUBLIC e8fa0 0 QVariantDebugStream<`anonymous namespace'::CoreTypesFilter>::Filtered<QByteArray,1>::Filtered<QByteArray,1>(QDebug,QVariant::Private *)
PUBLIC e9050 0 QVariantDebugStream<`anonymous namespace'::CoreTypesFilter>::Filtered<QChar,1>::Filtered<QChar,1>(QDebug,QVariant::Private *)
PUBLIC e9110 0 QVariantDebugStream<`anonymous namespace'::CoreTypesFilter>::Filtered<QString,1>::Filtered<QString,1>(QDebug,QVariant::Private *)
PUBLIC e91c0 0 QVariantConstructor<`anonymous namespace'::CoreTypesFilter>::FilteredConstructor<QDateTime,1>::FilteredConstructor<QDateTime,1>(QVariantConstructor<`anonymous namespace'::CoreTypesFilter> const &)
PUBLIC e9260 0 QVariantConstructor<`anonymous namespace'::CoreTypesFilter>::FilteredConstructor<QEasingCurve,1>::FilteredConstructor<QEasingCurve,1>(QVariantConstructor<`anonymous namespace'::CoreTypesFilter> const &)
PUBLIC e9300 0 QVariantConstructor<`anonymous namespace'::CoreTypesFilter>::FilteredConstructor<QLocale,1>::FilteredConstructor<QLocale,1>(QVariantConstructor<`anonymous namespace'::CoreTypesFilter> const &)
PUBLIC e93a0 0 QVariantConstructor<`anonymous namespace'::CoreTypesFilter>::FilteredConstructor<QRegExp,1>::FilteredConstructor<QRegExp,1>(QVariantConstructor<`anonymous namespace'::CoreTypesFilter> const &)
PUBLIC e9440 0 QVariantConstructor<`anonymous namespace'::CoreTypesFilter>::FilteredConstructor<QRegularExpression,1>::FilteredConstructor<QRegularExpression,1>(QVariantConstructor<`anonymous namespace'::CoreTypesFilter> const &)
PUBLIC e94e0 0 QVariantConstructor<`anonymous namespace'::CoreTypesFilter>::FilteredConstructor<QUrl,1>::FilteredConstructor<QUrl,1>(QVariantConstructor<`anonymous namespace'::CoreTypesFilter> const &)
PUBLIC e9580 0 QtMetaTypePrivate::QAssociativeIterableImpl::QAssociativeIterableImpl()
PUBLIC e95f0 0 QLineF::QLineF(QLine const &)
PUBLIC e9640 0 QRectF::QRectF(QRect const &)
PUBLIC e9690 0 QVariant::QVariant(QVariant const &)
PUBLIC e9760 0 QVariant::QVariant(QByteArray const &)
PUBLIC e9790 0 QVariant::QVariant(QDate const &)
PUBLIC e97b0 0 QVariant::QVariant(QDateTime const &)
PUBLIC e9810 0 QVariant::QVariant(QString const &)
PUBLIC e9840 0 QVariant::QVariant(QStringList const &)
PUBLIC e98a0 0 QVariant::QVariant(QTime const &)
PUBLIC e98c0 0 QVariant::QVariant(QUrl const &)
PUBLIC e9920 0 QVariant::QVariant(int)
PUBLIC e9940 0 QVariant::QVariant(int,void const *)
PUBLIC e99b0 0 QVariant::QVariant(int,void const *,unsigned int)
PUBLIC e9a50 0 QVariant::QVariant(unsigned int)
PUBLIC e9a70 0 QVariant::QVariant(char const *)
PUBLIC e9b20 0 QVariant::QVariant(QChar)
PUBLIC e9b40 0 QVariant::QVariant(__int64)
PUBLIC e9b60 0 QVariant::QVariant(bool)
PUBLIC e9b80 0 QVariantDebugStream<`anonymous namespace'::CoreTypesFilter>::~QVariantDebugStream<`anonymous namespace'::CoreTypesFilter>()
PUBLIC e9b90 0 QVariantDestructor<`anonymous namespace'::CoreTypesFilter>::~QVariantDestructor<`anonymous namespace'::CoreTypesFilter>()
PUBLIC e9bb0 0 QVariant::~QVariant()
PUBLIC e9c40 0 QList<QVariant>::operator=(QList<QVariant> const &)
PUBLIC e9c90 0 QMap<QString,QVariant>::operator=(QMap<QString,QVariant> const &)
PUBLIC e9d00 0 QVariant::operator=(QVariant const &)
PUBLIC e9da0 0 operator<<(QDebug,QVariant const &)
PUBLIC e9f60 0 QList<QVariant>::operator==(QList<QVariant> const &)
PUBLIC e9fd0 0 QMap<QString,QVariant>::operator==(QMap<QString,QVariant> const &)
PUBLIC ea090 0 operator==(QRectF const &,QRectF const &)
PUBLIC ea230 0 QUuid::operator==(QUuid const &)
PUBLIC ea290 0 `anonymous namespace'::HandlersManager::operator[](unsigned int)
PUBLIC ea2e0 0 QtMetaTypePrivate::QMetaTypeFunctionHelper<QPair<QVariant,QVariant>,1>::Construct(void *,void const *)
PUBLIC ea3b0 0 QtMetaTypePrivate::QMetaTypeFunctionHelper<QtMetaTypePrivate::QAssociativeIterableImpl,1>::Construct(void *,void const *)
PUBLIC ea400 0 QtMetaTypePrivate::QMetaTypeFunctionHelper<QPair<QVariant,QVariant>,1>::Create(void const *)
PUBLIC ea4d0 0 QtMetaTypePrivate::QMetaTypeFunctionHelper<QtMetaTypePrivate::QAssociativeIterableImpl,1>::Create(void const *)
PUBLIC ea520 0 QtMetaTypePrivate::QMetaTypeFunctionHelper<QPair<QVariant,QVariant>,1>::Delete(void *)
PUBLIC ea590 0 QtMetaTypePrivate::QMetaTypeFunctionHelper<QPair<QVariant,QVariant>,1>::Destruct(void *)
PUBLIC ea5f0 0 QVariant::canConvert(int)
PUBLIC eab40 0 QVariant::clear()
PUBLIC eabc0 0 QVariant::cmp(QVariant const &)
PUBLIC eae10 0 QVariant::constData()
PUBLIC eae30 0 QtPrivate::ConverterFunctor<QPair<QVariant,QVariant>,QtMetaTypePrivate::QPairVariantInterfaceImpl,QtMetaTypePrivate::QPairVariantInterfaceConvertFunctor<QPair<QVariant,QVariant> > >::convert(QtPrivate::AbstractConverterFunction const *,void const *,void *)
PUBLIC eae90 0 QVariant::convert(int)
PUBLIC eb010 0 QVariant::convert(int,void *)
PUBLIC eb060 0 QVariant::create(int,void const *)
PUBLIC eb0b0 0 QVariant::data()
PUBLIC eb0d0 0 QVariantConstructor<`anonymous namespace'::CoreTypesFilter>::delegate(QMetaTypeSwitcher::UnknownType const *)
PUBLIC eb140 0 QVariantConstructor<`anonymous namespace'::CoreTypesFilter>::delegate(void const *)
PUBLIC eb1a0 0 QVariantDebugStream<`anonymous namespace'::CoreTypesFilter>::delegate(QMetaTypeSwitcher::UnknownType const *)
PUBLIC eb1c0 0 QVariant::detach()
PUBLIC eb270 0 QVariant::isNull()
PUBLIC eb2d0 0 QtPrivate::QVariantValueHelper<QObject *>::object(QVariant const &)
PUBLIC eb850 0 qRound64(float)
PUBLIC eb8b0 0 qRound64(double)
PUBLIC eb910 0 QMetaTypeId<QPair<QVariant,QVariant> >::qt_metatype_id()
PUBLIC eba90 0 QMetaTypeId<QtMetaTypePrivate::QAssociativeIterableImpl>::qt_metatype_id()
PUBLIC ebab0 0 QtPrivate::IsMetaTypePair<QPair<QVariant,QVariant>,1>::registerConverter(int)
PUBLIC ebb30 0 QVariant::toBool()
PUBLIC ebb90 0 QVariant::toByteArray()
PUBLIC ebbc0 0 QVariant::toDate()
PUBLIC ebbe0 0 QVariant::toDateTime()
PUBLIC ebc10 0 QVariant::toDouble(bool *)
PUBLIC ebc30 0 QVariant::toInt(bool *)
PUBLIC ebc50 0 QLineF::toLine()
PUBLIC ebd70 0 QVariant::toLongLong(bool *)
PUBLIC ebd90 0 QPointF::toPoint()
PUBLIC ebe30 0 QRectF::toRect()
PUBLIC ebf40 0 QVariant::toString()
PUBLIC ebf70 0 QVariant::toTime()
PUBLIC ebf90 0 QVariant::toUInt(bool *)
PUBLIC ebfb0 0 QVariant::toULongLong(bool *)
PUBLIC ebfd0 0 QVariant::toUrl()
PUBLIC ec000 0 QVariant::type()
PUBLIC ec020 0 QVariant::typeName()
PUBLIC ec040 0 QVariant::userType()
PUBLIC ec050 0 QFileDevice::QFileDevice(QFileDevicePrivate &,QObject *)
PUBLIC ec070 0 QFileDevicePrivate::QFileDevicePrivate()
PUBLIC ec110 0 QFileDevice::~QFileDevice()
PUBLIC ec170 0 QFileDevicePrivate::~QFileDevicePrivate()
PUBLIC ec230 0 QFileDevice::`vector deleting destructor'(unsigned int)
PUBLIC ec2a0 0 QFileDevicePrivate::`vector deleting destructor'(unsigned int)
PUBLIC ec330 0 QFileDevice::atEnd()
PUBLIC ec3d0 0 QFileDevice::close()
PUBLIC ec4e0 0 QFileDevicePrivate::engine()
PUBLIC ec550 0 QFileDevice::error()
PUBLIC ec560 0 QFileDevice::flush()
PUBLIC ec730 0 QFileDevice::handle()
PUBLIC ec760 0 QFileDevice::isSequential()
PUBLIC ec780 0 QFileDevice::permissions()
PUBLIC ec7b0 0 QBuffer::pos()
PUBLIC ec7c0 0 QFileDevicePrivate::putCharHelper(char)
PUBLIC ec910 0 QFileDevice::readData(char *,__int64)
PUBLIC eca90 0 QFileDevice::readLineData(char *,__int64)
PUBLIC ecb20 0 QFileDevice::resize(__int64)
PUBLIC ecc60 0 QFileDevice::seek(__int64)
PUBLIC ecdb0 0 QFileDevicePrivate::setError(QFileDevice::FileError,QString const &)
PUBLIC ecdd0 0 QFileDevice::setPermissions(QFlags<QFileDevice::Permission>)
PUBLIC ecee0 0 QFileDevice::size()
PUBLIC ecf30 0 QFileDevice::unsetError()
PUBLIC ecf80 0 QFileDevice::writeData(char const *,__int64)
PUBLIC ed140 0 QtSharedPointer::ExternalRefCountData::checkQObjectShared(QObject const *)
PUBLIC ed180 0 QtSharedPointer::ExternalRefCountData::getAndRef(QObject const *)
PUBLIC ed280 0 QHashData::allocateNode(int)
PUBLIC ed310 0 QHashData::detach_helper(void (*)(QHashData::Node *,void *),void (*)(QHashData::Node *),int,int)
PUBLIC ed500 0 QHashData::freeNode(void *)
PUBLIC ed520 0 QHashData::free_helper(void (*)(QHashData::Node *))
PUBLIC ed660 0 QHashData::nextNode(QHashData::Node *)
PUBLIC ed6a0 0 QHashData::previousNode(QHashData::Node *)
PUBLIC ed700 0 qHash(QByteArray const &,unsigned int)
PUBLIC ed720 0 qHash(QString const &,unsigned int)
PUBLIC ed820 0 qt_hash(QString const &)
PUBLIC ed860 0 qt_hash(QStringRef const &)
PUBLIC ed8c0 0 QHashData::rehash(int)
PUBLIC eda20 0 QMapDataBase::createData()
PUBLIC eda60 0 QMapDataBase::createNode(int,int,QMapNodeBase *,bool)
PUBLIC edae0 0 QMapDataBase::freeNodeAndRebalance(QMapNodeBase *)
PUBLIC edd50 0 QMapDataBase::freeTree(QMapNodeBase *,int)
PUBLIC edda0 0 QMapNodeBase::nextNode()
PUBLIC edde0 0 QMapNodeBase::previousNode()
PUBLIC ede20 0 QMapDataBase::rebalance(QMapNodeBase *)
PUBLIC edfd0 0 QMapDataBase::recalcMostLeftNode()
PUBLIC edff0 0 QMapDataBase::rotateLeft(QMapNodeBase *)
PUBLIC ee070 0 QMapDataBase::rotateRight(QMapNodeBase *)
PUBLIC ee0f0 0 QVarLengthArray<QAtomicPointer<QMutex>,131>::QVarLengthArray<QAtomicPointer<QMutex>,131>(int)
PUBLIC ee160 0 QMutexPool::QMutexPool(QMutex::RecursionMode,int)
PUBLIC ee1a0 0 QMutexPool::~QMutexPool()
PUBLIC ee230 0 QMutexPool::createMutex(int)
PUBLIC ee2e0 0 QMutexPool::globalInstanceGet(void const *)
PUBLIC ee320 0 `anonymous namespace'::Q_QGS_globalMutexPool::innerFunction()
PUBLIC ee400 0 qbswap<unsigned __int64>(unsigned __int64)
PUBLIC ee490 0 QDataStream::QDataStream(QByteArray const &)
PUBLIC ee550 0 QDataStream::QDataStream(QByteArray *,QFlags<QIODevice::OpenModeFlag>)
PUBLIC ee600 0 QDataStream::~QDataStream()
PUBLIC ee660 0 QDataStream::operator>>(short &)
PUBLIC ee6c0 0 QDataStream::operator>>(int &)
PUBLIC ee740 0 QDataStream::operator<<(signed char)
PUBLIC ee770 0 QDataStream::operator<<(short)
PUBLIC ee7d0 0 QDataStream::operator<<(int)
PUBLIC ee840 0 QDataStream::operator<<(__int64)
PUBLIC ee8c0 0 QDataStream::readRawData(char *,int)
PUBLIC ee8e0 0 QDataStream::setByteOrder(QDataStream::ByteOrder)
PUBLIC ee900 0 QDataStream::skipRawData(int)
PUBLIC eea30 0 QDataStream::writeBytes(char const *,unsigned int)
PUBLIC eea70 0 QDataStream::writeRawData(char const *,int)
PUBLIC eeab0 0 QDebugStateSaver::QDebugStateSaver(QDebug &)
PUBLIC eeb30 0 QScopedPointer<QDataStreamPrivate,QScopedPointerDeleter<QDataStreamPrivate> >::~QScopedPointer<QDataStreamPrivate,QScopedPointerDeleter<QDataStreamPrivate> >()
PUBLIC eeb40 0 QDebug::~QDebug()
PUBLIC eebe0 0 QDebugStateSaver::~QDebugStateSaver()
PUBLIC eec40 0 QDebugStateSaverPrivate::restoreState()
PUBLIC eece0 0 operator+=<QStringBuilder<QStringBuilder<QStringBuilder<QStringBuilder<QStringBuilder<QString,QLatin1Char>,QString>,QLatin1Char>,QString>,QLatin1Char>,QString>(QString &,QStringBuilder<QStringBuilder<QStringBuilder<QStringBuilder<QStringBuilder<QStringBuilder<QString,QLatin1Char>,QString>,QLatin1Char>,QString>,QLatin1Char>,QString> const &)
PUBLIC eeee0 0 QIPAddressUtils::parseIp4(unsigned int &,QChar const *,QChar const *)
PUBLIC ef080 0 QIPAddressUtils::parseIp6(unsigned char (&)[16],QChar const *,QChar const *)
PUBLIC ef340 0 QVarLengthArray<char,64>::realloc(int,int)
PUBLIC ef3e0 0 QIPAddressUtils::toString(QString &,unsigned int)
PUBLIC ef5c0 0 QIPAddressUtils::toString(QString &,unsigned char * const)
PUBLIC ef860 0 QIODevice::qt_static_metacall(QObject *,QMetaObject::Call,int,void * *)
PUBLIC ef950 0 QIODevice::aboutToClose()
PUBLIC ef970 0 QIODevice::bytesWritten(__int64)
PUBLIC ef9a0 0 QIODevice::metaObject()
PUBLIC ef9c0 0 QIODevice::qt_metacall(QMetaObject::Call,int,void * *)
PUBLIC efa20 0 QIODevice::qt_metacast(char const *)
PUBLIC efa80 0 QIODevice::readChannelFinished()
PUBLIC efaa0 0 QIODevice::readyRead()
PUBLIC efac0 0 QElapsedTimer::elapsed()
PUBLIC efb90 0 qt_msectime()
PUBLIC efc20 0 QElapsedTimer::restart()
PUBLIC efc70 0 QElapsedTimer::start()
PUBLIC efd30 0 qRegisterMetaType<QSystemLocale::CurrencyToStringArgument>(char const *,QSystemLocale::CurrencyToStringArgument *,QtPrivate::MetaTypeDefinedHelper<QSystemLocale::CurrencyToStringArgument,1>::DefinedType)
PUBLIC efe10 0 QLocale::QLocale(QLocale const &)
PUBLIC efe60 0 QLocale::QLocale(QString const &)
PUBLIC efe90 0 QLocale::QLocale(QLocale::Language,QLocale::Country)
PUBLIC efec0 0 QLocale::QLocale()
PUBLIC efee0 0 QSystemLocale::CurrencyToStringArgument::~CurrencyToStringArgument()
PUBLIC eff20 0 QLocale::~QLocale()
PUBLIC eff40 0 QLocale::operator=(QLocale const &)
PUBLIC eff90 0 operator<<(QDebug,QLocale const &)
PUBLIC f0230 0 QLocale::operator==(QLocale const &)
PUBLIC f0260 0 QLocale::operator!=(QLocale const &)
PUBLIC f02b0 0 QSystemLocale::`vector deleting destructor'(unsigned int)
PUBLIC f02f0 0 QtMetaTypePrivate::QMetaTypeFunctionHelper<QSystemLocale::CurrencyToStringArgument,1>::Construct(void *,void const *)
PUBLIC f03c0 0 QtMetaTypePrivate::QMetaTypeFunctionHelper<QSystemLocale::CurrencyToStringArgument,1>::Create(void const *)
PUBLIC f0490 0 QtMetaTypePrivate::QMetaTypeFunctionHelper<QSystemLocale::CurrencyToStringArgument,1>::Delete(void *)
PUBLIC f04e0 0 QtMetaTypePrivate::QMetaTypeFunctionHelper<QSystemLocale::CurrencyToStringArgument,1>::Destruct(void *)
PUBLIC f0580 0 QLocale::amText()
PUBLIC f0690 0 QLocaleData::bytearrayToDouble(char const *,bool *,bool *)
PUBLIC f07d0 0 QLocaleData::bytearrayToLongLong(char const *,int,bool *,bool *)
PUBLIC f0860 0 QLocaleData::bytearrayToUnsLongLong(char const *,int,bool *)
PUBLIC f08b0 0 QLocaleData::c()
PUBLIC f08c0 0 QLocalePrivate::codeToCountry(QString const &)
PUBLIC f0990 0 QLocalePrivate::codeToLanguage(QString const &)
PUBLIC f0ad0 0 QLocalePrivate::codeToScript(QString const &)
PUBLIC f0bc0 0 QLocale::country()
PUBLIC f0bd0 0 QLocalePrivate::countryCode()
PUBLIC f0c00 0 QLocalePrivate::countryToCode(QLocale::Country)
PUBLIC f0d90 0 QLocale::countryToString(QLocale::Country)
PUBLIC f0e10 0 QLocale::dateFormat(QLocale::FormatType)
PUBLIC f0f40 0 QLocale::dateTimeFormat(QLocale::FormatType)
PUBLIC f1140 0 QLocalePrivate::dateTimeToString(QString const &,QDateTime const &,QDate const &,QTime const &,QLocale const *)
PUBLIC f1ff0 0 QLocale::dayName(int,QLocale::FormatType)
PUBLIC f2160 0 QLocaleData::digitToCLocale(QChar)
PUBLIC f2220 0 QLocaleData::doubleToString(double,int,QLocaleData::DoubleForm,int,unsigned int)
PUBLIC f22a0 0 QLocaleData::doubleToString(QChar,QChar,QChar,QChar,QChar,QChar,double,int,QLocaleData::DoubleForm,int,unsigned int)
PUBLIC f2760 0 QLocaleData::findLocaleData(QLocale::Language,QLocale::Script,QLocale::Country)
PUBLIC f28f0 0 QLocalePrivate::getLangAndCountry(QString const &,QLocale::Language &,QLocale::Script &,QLocale::Country &)
PUBLIC f2b70 0 `anonymous namespace'::Q_QGS_QSystemLocale_globalSystemLocale::innerFunction()
PUBLIC f2c30 0 `anonymous namespace'::Q_QGS_defaultLocalePrivate::innerFunction()
PUBLIC f2d60 0 `anonymous namespace'::Q_QGS_globalLocaleData::innerFunction()
PUBLIC f2e40 0 QLocale::language()
PUBLIC f2e50 0 QLocalePrivate::languageCode()
PUBLIC f2e80 0 QLocalePrivate::languageToCode(QLocale::Language)
PUBLIC f2fe0 0 QLocale::languageToString(QLocale::Language)
PUBLIC f3100 0 QLocaleData::longLongToString(__int64,int,int,int,unsigned int)
PUBLIC f3160 0 QLocaleData::longLongToString(QChar,QChar,QChar,QChar,__int64,int,int,int,unsigned int)
PUBLIC f34f0 0 QLocale::monthName(int,QLocale::FormatType)
PUBLIC f3650 0 QLocale::name()
PUBLIC f3810 0 QLocale::negativeSign()
PUBLIC f3830 0 QLocale::numberOptions()
PUBLIC f3840 0 QLocaleData::numberToCLocale(QChar const *,int,QLocaleData::GroupSeparatorMode,QVarLengthArray<char,256> *)
PUBLIC f3bf0 0 QLocale::pmText()
PUBLIC f3d00 0 QLocale::positiveSign()
PUBLIC f3d20 0 QMetaTypeId<QSystemLocale::CurrencyToStringArgument>::qt_metatype_id()
PUBLIC f3d40 0 qt_readEscapedFormatString(QString const &,int *)
PUBLIC f3ed0 0 qt_repeatCount(QString const &,int)
PUBLIC f3f10 0 qt_splitLocaleName(QString const &,QString &,QString &,QString &)
PUBLIC f4240 0 QVarLengthArray<char,256>::realloc(int,int)
PUBLIC f42e0 0 QLocale::scriptToString(QLocale::Script)
PUBLIC f4360 0 QLocale::standaloneDayName(int,QLocale::FormatType)
PUBLIC f4520 0 QLocale::standaloneMonthName(int,QLocale::FormatType)
PUBLIC f46d0 0 QLocaleData::stringToDouble(QChar const *,int,bool *,QLocaleData::GroupSeparatorMode)
PUBLIC f47b0 0 QLocaleData::stringToLongLong(QChar const *,int,int,bool *,QLocaleData::GroupSeparatorMode)
PUBLIC f48c0 0 QLocaleData::stringToUnsLongLong(QChar const *,int,int,bool *,QLocaleData::GroupSeparatorMode)
PUBLIC f49d0 0 QLocale::system()
PUBLIC f4a30 0 QLocale::timeFormat(QLocale::FormatType)
PUBLIC f4c00 0 QLocale::toDate(QString const &,QString const &)
PUBLIC f4d10 0 QLocale::toDate(QString const &,QLocale::FormatType)
PUBLIC f4da0 0 QLocale::toDateTime(QString const &,QString const &)
PUBLIC f4f30 0 QLocale::toDateTime(QString const &,QLocale::FormatType)
PUBLIC f4fd0 0 QLocale::toString(QDate const &,QString const &)
PUBLIC f5060 0 QLocale::toString(QDate const &,QLocale::FormatType)
PUBLIC f5220 0 QLocale::toString(QDateTime const &,QString const &)
PUBLIC f5270 0 QLocale::toString(QDateTime const &,QLocale::FormatType)
PUBLIC f53f0 0 QLocale::toString(QTime const &,QString const &)
PUBLIC f5490 0 QLocale::toString(QTime const &,QLocale::FormatType)
PUBLIC f5610 0 QLocale::toString(__int64)
PUBLIC f5650 0 QLocale::toTime(QString const &,QString const &)
PUBLIC f5750 0 QLocale::toTime(QString const &,QLocale::FormatType)
PUBLIC f57e0 0 QLocale::toUInt(QString const &,bool *)
PUBLIC f5840 0 QCharRef::unicode()
PUBLIC f5880 0 QLocaleData::unsLongLongToString(unsigned __int64,int,int,int,unsigned int)
PUBLIC f58e0 0 QLocaleData::unsLongLongToString(QChar,QChar,QChar,unsigned __int64,int,int,int,unsigned int)
PUBLIC f5bd0 0 QLocalePrivate::updateSystemPrivate()
PUBLIC f61a0 0 QLocaleId::withLikelySubtagsAdded()
PUBLIC f62f0 0 QFactoryLoader::QFactoryLoader(char const *,QString const &,Qt::CaseSensitivity)
PUBLIC f6450 0 QList<QJsonObject>::~QList<QJsonObject>()
PUBLIC f6480 0 QFactoryLoader::~QFactoryLoader()
PUBLIC f6540 0 QFactoryLoaderPrivate::~QFactoryLoaderPrivate()
PUBLIC f6730 0 QFactoryLoader::`vector deleting destructor'(unsigned int)
PUBLIC f6750 0 QFactoryLoaderPrivate::`vector deleting destructor'(unsigned int)
PUBLIC f6770 0 QList<QJsonObject>::append(QJsonObject const &)
PUBLIC f6850 0 QMapNode<int,QString>::copy(QMapData<int,QString> *)
PUBLIC f68d0 0 QMapData<int,QString>::createNode(int const &,QString const &,QMapNode<int,QString> *,bool)
PUBLIC f6930 0 QList<QJsonObject>::dealloc(QListData::Data *)
PUBLIC f6980 0 QList<QJsonObject>::detach_helper_grow(int,int)
PUBLIC f6ac0 0 QFactoryLoader::indexOf(QString const &)
PUBLIC f6dd0 0 `anonymous namespace'::Q_QGS_qt_factory_loaders::innerFunction()
PUBLIC f6e90 0 `anonymous namespace'::Q_QGS_qt_factoryloader_mutex::innerFunction()
PUBLIC f6f60 0 QFactoryLoader::instance(int)
PUBLIC f7190 0 QFactoryLoader::keyMap()
PUBLIC f7600 0 QFactoryLoader::metaData()
PUBLIC f78b0 0 QList<QJsonObject>::node_construct(QList<QJsonObject>::Node *,QJsonObject const &)
PUBLIC f7930 0 QList<QJsonObject>::node_copy(QList<QJsonObject>::Node *,QList<QJsonObject>::Node *,QList<QJsonObject>::Node *)
PUBLIC f7a00 0 QList<QJsonObject>::node_destruct(QList<QJsonObject>::Node *,QList<QJsonObject>::Node *)
PUBLIC f7a40 0 QFactoryLoader::update()
PUBLIC f7b30 0 std::_Upper_bound<QList<QPair<QRunnable *,int> >::const_iterator,int,int,std::less<void> >(QList<QPair<QRunnable *,int> >::const_iterator,QList<QPair<QRunnable *,int> >::const_iterator,int const &,std::less<void>,int *)
PUBLIC f7b90 0 QThreadPool::QThreadPool(QObject *)
PUBLIC f7c10 0 QThreadPoolPrivate::QThreadPoolPrivate()
PUBLIC f7cc0 0 QScopedPointer<QThreadPoolThread,QScopedPointerDeleter<QThreadPoolThread> >::~QScopedPointer<QThreadPoolThread,QScopedPointerDeleter<QThreadPoolThread> >()
PUBLIC f7cd0 0 QThreadPool::~QThreadPool()
PUBLIC f7d40 0 QThreadPoolPrivate::~QThreadPoolPrivate()
PUBLIC f7e40 0 QThreadPool::`vector deleting destructor'(unsigned int)
PUBLIC f7ed0 0 QThreadPoolPrivate::`vector deleting destructor'(unsigned int)
PUBLIC f7ef0 0 QThreadPoolThread::`vector deleting destructor'(unsigned int)
PUBLIC f7f60 0 QThreadPool::activeThreadCount()
PUBLIC f7fb0 0 QQueue<QThreadPoolThread *>::dequeue()
PUBLIC f8010 0 QList<QPair<QRunnable *,int> >::detach_helper(int)
PUBLIC f8100 0 QList<QPair<QRunnable *,int> >::detach_helper_grow(int,int)
PUBLIC f8260 0 QThreadPoolPrivate::enqueueTask(QRunnable *,int)
PUBLIC f8300 0 QList<QThreadPoolThread *>::erase(QList<QThreadPoolThread *>::iterator)
PUBLIC f8380 0 QThreadPool::globalInstance()
PUBLIC f83a0 0 `anonymous namespace'::Q_QGS_theInstance::innerFunction()
PUBLIC f8470 0 QList<QPair<QRunnable *,int> >::insert(int,QPair<QRunnable *,int> const &)
PUBLIC f8520 0 QThreadPool::maxThreadCount()
PUBLIC f8530 0 QList<QPair<QRunnable *,int> >::node_copy(QList<QPair<QRunnable *,int> >::Node *,QList<QPair<QRunnable *,int> >::Node *,QList<QPair<QRunnable *,int> >::Node *)
PUBLIC f85e0 0 QList<QPair<QRunnable *,int> >::node_destruct(QList<QPair<QRunnable *,int> >::Node *,QList<QPair<QRunnable *,int> >::Node *)
PUBLIC f8610 0 QThreadPoolThread::registerThreadInactive()
PUBLIC f8630 0 QList<QThreadPoolThread *>::removeOne(QThreadPoolThread * const &)
PUBLIC f86b0 0 QThreadPoolPrivate::reset()
PUBLIC f8950 0 QThreadPoolThread::run()
PUBLIC f8c10 0 QThreadPool::setExpiryTimeout(int)
PUBLIC f8c30 0 QThreadPool::setMaxThreadCount(int)
PUBLIC f8cb0 0 QThreadPool::start(QRunnable *,int)
PUBLIC f8d60 0 QThreadPoolPrivate::startThread(QRunnable *)
PUBLIC f8e90 0 QThreadPoolPrivate::tryStart(QRunnable *)
PUBLIC f8f60 0 QThreadPoolPrivate::tryToStartMoreThreads()
PUBLIC f9030 0 QThreadPool::waitForDone(int)
PUBLIC f9060 0 QThreadPoolPrivate::waitForDone(int)
PUBLIC f9180 0 std::_Lower_bound<CategoriesRangeMapEntry const *,char const *,int,std::less<void> >(CategoriesRangeMapEntry const *,CategoriesRangeMapEntry const *,char const * const &,std::less<void>,int *)
PUBLIC f91e0 0 std::lower_bound<CategoriesRangeMapEntry const *,char const *>(CategoriesRangeMapEntry const *,CategoriesRangeMapEntry const *,char const * const &)
PUBLIC f9210 0 qDeleteAll<QRegExpLookahead * const *>(QRegExpLookahead * const *,QRegExpLookahead * const *)
PUBLIC f9270 0 QMap<int,int>::QMap<int,int>(QMap<int,int> const &)
PUBLIC f92e0 0 QVector<int>::QVector<int>(int)
PUBLIC f9340 0 QVector<QRegExpAtom>::QVector<QRegExpAtom>(QVector<QRegExpAtom> const &)
PUBLIC f93f0 0 QVector<int>::QVector<int>(QVector<int> const &)
PUBLIC f94a0 0 QRegExpEngine::Box::Box(QRegExpEngine *)
PUBLIC f95c0 0 QRegExp::QRegExp(QRegExp const &)
PUBLIC f9610 0 QRegExp::QRegExp(QString const &,Qt::CaseSensitivity,QRegExp::PatternSyntax)
PUBLIC f96c0 0 QRegExp::QRegExp()
PUBLIC f9700 0 QRegExpCharClass::QRegExpCharClass()
PUBLIC f97e0 0 QRegExpEngine::QRegExpEngine(QRegExpEngineKey const &)
PUBLIC f9910 0 QRegExpEngine::QRegExpEngine(Qt::CaseSensitivity,bool)
PUBLIC f99c0 0 QRegExpPrivate::QRegExpPrivate(QRegExpEngineKey const &)
PUBLIC f9a20 0 QRegExpPrivate::QRegExpPrivate()
PUBLIC f9ac0 0 QScopedPointer<QRegExpCharClass,QScopedPointerDeleter<QRegExpCharClass> >::~QScopedPointer<QRegExpCharClass,QScopedPointerDeleter<QRegExpCharClass> >()
PUBLIC f9ae0 0 QForeachContainer<QVector<QStaticPlugin> >::~QForeachContainer<QVector<QStaticPlugin> >()
PUBLIC f9b10 0 QVector<QRegExpAutomatonState>::~QVector<QRegExpAutomatonState>()
PUBLIC f9b70 0 QVector<QRegExpCharClass>::~QVector<QRegExpCharClass>()
PUBLIC f9bc0 0 QRegExpEngine::Box::~Box()
PUBLIC f9e20 0 QRegExp::~QRegExp()
PUBLIC f9e70 0 QRegExpAutomatonState::~QRegExpAutomatonState()
PUBLIC f9f60 0 QRegExpCharClass::~QRegExpCharClass()
PUBLIC f9fc0 0 QRegExpEngine::~QRegExpEngine()
PUBLIC fa1c0 0 QRegExpMatchState::~QRegExpMatchState()
PUBLIC fa220 0 QRegExpPrivate::~QRegExpPrivate()
PUBLIC fa350 0 QMap<int,int>::operator=(QMap<int,int> const &)
PUBLIC fa3b0 0 QVector<int>::operator=(QVector<int> const &)
PUBLIC fa400 0 QVector<QRegExpAtom>::operator=(QVector<QRegExpAtom> &&)
PUBLIC fa430 0 QRegExpEngine::Box::operator=(QRegExpEngine::Box const &)
PUBLIC fa570 0 QRegExp::operator=(QRegExp const &)
PUBLIC fa650 0 QRegExpCharClass::operator=(QRegExpCharClass const &)
PUBLIC fa6f0 0 operator<<(QDebug,QRegExp const &)
PUBLIC fa850 0 QRegExp::operator==(QRegExp const &)
PUBLIC fa8b0 0 QVector<QRegExpAtom>::operator[](int)
PUBLIC fa920 0 QVector<QRegExpAutomatonState>::operator[](int)
PUBLIC fa9a0 0 QRegExpEngine::addAnchors(int,int,int)
PUBLIC faa40 0 QRegExpEngine::Box::addAnchorsToEngine(QRegExpEngine::Box const &)
PUBLIC fac80 0 QRegExpEngine::addCatTransitions(QVector<int> const &,QVector<int> const &)
PUBLIC fad20 0 QRegExpCharClass::addCategories(unsigned int)
PUBLIC fada0 0 QRegExpEngine::addLookahead(QRegExpEngine *,bool)
PUBLIC fae00 0 QRegExpEngine::addPlusTransitions(QVector<int> const &,QVector<int> const &,int)
PUBLIC fb050 0 QRegExpCharClass::addRange(unsigned short,unsigned short)
PUBLIC fb250 0 QRegExpEngine::anchorAlternation(int,int)
PUBLIC fb2e0 0 QRegExpEngine::anchorConcatenation(int,int)
PUBLIC fb340 0 QList<QVector<int> >::append(QVector<int> const &)
PUBLIC fb400 0 QVector<QRegExpAnchorAlternation>::append(QRegExpAnchorAlternation const &)
PUBLIC fb480 0 QVector<QRegExpAutomatonState>::append(QRegExpAutomatonState const &)
PUBLIC fb5c0 0 QVector<QRegExpCharClass>::append(QRegExpCharClass const &)
PUBLIC fb6e0 0 QRegExpEngine::badCharMatch(QRegExpMatchState &)
PUBLIC fb840 0 QRegExp::cap(int)
PUBLIC fb860 0 QRegExp::cap(int)
PUBLIC fb920 0 QRegExp::captureCount()
PUBLIC fb940 0 QRegExp::capturedTexts()
PUBLIC fb960 0 QRegExp::capturedTexts()
PUBLIC fbb30 0 QRegExpEngine::Box::cat(QRegExpEngine::Box const &)
PUBLIC fc120 0 QRegExpEngine::Box::catAnchor(int)
PUBLIC fc2a0 0 QCache<QRegExpEngineKey,QRegExpEngine>::clear()
PUBLIC fc320 0 QVector<QRegExpAtom>::clear()
PUBLIC fc3a0 0 QRegExpEngine::Box::clear()
PUBLIC fc410 0 QHash<QRegExpEngineKey,QCache<QRegExpEngineKey,QRegExpEngine>::Node>::createNode(unsigned int,QRegExpEngineKey const &,QCache<QRegExpEngineKey,QRegExpEngine>::Node const &,QHashNode<QRegExpEngineKey,QCache<QRegExpEngineKey,QRegExpEngine>::Node> * *)
PUBLIC fc490 0 QRegExpEngine::createState(QRegExpCharClass const &)
PUBLIC fc5b0 0 QRegExpEngine::createState(QChar)
PUBLIC fc640 0 QVector<int>::data()
PUBLIC fc6a0 0 QVector<QRegExpAutomatonState>::defaultConstruct(QRegExpAutomatonState *,QRegExpAutomatonState *)
PUBLIC fc6e0 0 QVector<QRegExpCharClass>::defaultConstruct(QRegExpCharClass *,QRegExpCharClass *)
PUBLIC fc910 0 QVector<QRegExpAutomatonState>::destruct(QRegExpAutomatonState *,QRegExpAutomatonState *)
PUBLIC fc940 0 QVector<QRegExpCharClass>::destruct(QRegExpCharClass *,QRegExpCharClass *)
PUBLIC fc9c0 0 QHash<QRegExpEngineKey,QCache<QRegExpEngineKey,QRegExpEngine>::Node>::detach()
PUBLIC fca20 0 QList<QVector<int> >::detach_helper(int)
PUBLIC fcb10 0 QList<QVector<int> >::detach_helper_grow(int,int)
PUBLIC fcc60 0 QHash<QRegExpEngineKey,QCache<QRegExpEngineKey,QRegExpEngine>::Node>::duplicateNode(QHashData::Node *,void *)
PUBLIC fccc0 0 QHash<QRegExpEngineKey,QCache<QRegExpEngineKey,QRegExpEngine>::Node>::end()
PUBLIC fcd20 0 QMap<int,int>::erase(QMap<int,int>::iterator)
PUBLIC fcdd0 0 QRegExpEngine::error(char const *)
PUBLIC fce50 0 QRegExp::escape(QString const &)
PUBLIC fd000 0 QRegExp::exactMatch(QString const &)
PUBLIC fd070 0 QHash<QRegExpEngineKey,QCache<QRegExpEngineKey,QRegExpEngine>::Node>::find(QRegExpEngineKey const &)
PUBLIC fd0e0 0 QMap<int,int>::find(int const &)
PUBLIC fd140 0 QHash<QRegExpEngineKey,QCache<QRegExpEngineKey,QRegExpEngine>::Node>::findNode(QRegExpEngineKey const &,unsigned int *)
PUBLIC fd1e0 0 QVector<QRegExpAutomatonState>::freeData(QTypedArrayData<QRegExpAutomatonState> *)
PUBLIC fd230 0 QRegExpEngine::getChar()
PUBLIC fd260 0 QRegExpEngine::getEscape()
PUBLIC fe130 0 QRegExpEngine::getRep(int)
PUBLIC fe1b0 0 QRegExpEngine::getToken()
PUBLIC fe650 0 QRegExpEngine::goodStringMatch(QRegExpMatchState &)
PUBLIC fe750 0 QRegExpEngine::heuristicallyChooseHeuristic()
PUBLIC fe7e0 0 QRegExpCharClass::in(QChar)
PUBLIC fe890 0 QRegExp::indexIn(QString const &,int,QRegExp::CaretMode)
PUBLIC fe900 0 `anonymous namespace'::Q_QGS_globalEngineCache::innerFunction()
PUBLIC fe9e0 0 QCache<QRegExpEngineKey,QRegExpEngine>::insert(QRegExpEngineKey const &,QRegExpEngine *,int)
PUBLIC feac0 0 QHash<QRegExpEngineKey,QCache<QRegExpEngineKey,QRegExpEngine>::Node>::insert(QRegExpEngineKey const &,QCache<QRegExpEngineKey,QRegExpEngine>::Node const &)
PUBLIC feba0 0 QMap<int,int>::insertMulti(int const &,int const &)
PUBLIC fec60 0 QRegExpMatchState::match(QChar const *,int,int,bool,bool,int)
PUBLIC fedf0 0 QRegExpMatchState::matchHere()
PUBLIC ffba0 0 QRegExp::matchedLength()
PUBLIC ffe10 0 QList<QVector<int> >::node_copy(QList<QVector<int> >::Node *,QList<QVector<int> >::Node *,QList<QVector<int> >::Node *)
PUBLIC ffe50 0 QList<QVector<int> >::node_destruct(QList<QVector<int> >::Node *,QList<QVector<int> >::Node *)
PUBLIC ffea0 0 QList<QVector<int> >::node_destruct(QList<QVector<int> >::Node *)
PUBLIC ffed0 0 QRegExpEngine::Box::opt()
PUBLIC fff90 0 QRegExpEngine::Box::orx(QRegExpEngine::Box const &)
PUBLIC 100150 0 QRegExpEngine::parse(QChar const *,int)
PUBLIC 100880 0 QRegExpEngine::parseAtom(QRegExpEngine::Box *)
PUBLIC 100a70 0 QRegExpEngine::parseExpression(QRegExpEngine::Box *)
PUBLIC 100b10 0 QRegExpEngine::parseFactor(QRegExpEngine::Box *)
PUBLIC 100f70 0 QRegExpEngine::parseTerm(QRegExpEngine::Box *)
PUBLIC 101020 0 QRegExp::pattern()
PUBLIC 1011e0 0 QRegExpMatchState::prepareForMatch(QRegExpEngine *)
PUBLIC 101310 0 qt_regexp_toCanonical(QString const &,QRegExp::PatternSyntax)
PUBLIC 1013a0 0 QVector<QRegExpAnchorAlternation>::reallocData(int,int,QFlags<QArrayData::AllocationOption>)
PUBLIC 101540 0 QVector<QRegExpAutomatonState>::reallocData(int,int,QFlags<QArrayData::AllocationOption>)
PUBLIC 101880 0 QVector<QRegExpCharClass>::reallocData(int,int,QFlags<QArrayData::AllocationOption>)
PUBLIC 101b00 0 QHash<QRegExpEngineKey,QCache<QRegExpEngineKey,QRegExpEngine>::Node>::remove(QRegExpEngineKey const &)
PUBLIC 101be0 0 QVector<int>::resize(int)
PUBLIC 101c30 0 QRegExpEngine::Box::set(QRegExpCharClass const &)
PUBLIC 101d30 0 QRegExpEngine::Box::set(int)
PUBLIC 101e20 0 QRegExpEngine::Box::set(QChar)
PUBLIC 101f20 0 QRegExpCharClass::setNegative(bool)
PUBLIC 101fa0 0 QRegExpEngine::setup()
PUBLIC 1020a0 0 QRegExpEngine::Box::setupHeuristics()
PUBLIC 1022d0 0 QRegExpEngine::setupState(int)
PUBLIC 102360 0 QRegExpEngine::skipChars(int)
PUBLIC 1023a0 0 QRegExpEngine::startAtom(bool)
PUBLIC 102440 0 QRegExpEngine::startTokenizer(QChar const *,int)
PUBLIC 102530 0 QCache<QRegExpEngineKey,QRegExpEngine>::take(QRegExpEngineKey const &)
PUBLIC 102580 0 QRegExpMatchState::testAnchor(int,int,int const *)
PUBLIC 102800 0 QCache<QRegExpEngineKey,QRegExpEngine>::trim(int)
PUBLIC 102880 0 QMap<int,int>::unite(QMap<int,int> const &)
PUBLIC 102990 0 QCache<QRegExpEngineKey,QRegExpEngine>::unlink(QCache<QRegExpEngineKey,QRegExpEngine>::Node &)
PUBLIC 1029f0 0 QList<QString>::value(int)
PUBLIC 102dd0 0 QBasicTimer::start(int,QObject *)
PUBLIC 102ee0 0 QBasicTimer::stop()
PUBLIC 102f50 0 QElapsedTimer::hasExpired(__int64)
PUBLIC 102f70 0 QElapsedTimer::invalidate()
PUBLIC 102f90 0 QElapsedTimer::isValid()
PUBLIC 102fc0 0 QSharedPointer<QNonContiguousByteDeviceBufferImpl>::create<QBuffer * &>(QBuffer * &)
PUBLIC 103070 0 QSharedPointer<QNonContiguousByteDeviceIoDeviceImpl>::create<QIODevice * &>(QIODevice * &)
PUBLIC 103120 0 QSharedPointer<QNonContiguousByteDeviceRingBufferImpl>::create<QSharedPointer<QRingBuffer> >(QSharedPointer<QRingBuffer> &&)
PUBLIC 1031f0 0 QByteDeviceWrappingIoDevice::QByteDeviceWrappingIoDevice(QNonContiguousByteDevice *)
PUBLIC 103280 0 QNonContiguousByteDevice::QNonContiguousByteDevice()
PUBLIC 1032a0 0 QNonContiguousByteDeviceBufferImpl::QNonContiguousByteDeviceBufferImpl(QBuffer *)
PUBLIC 103430 0 QNonContiguousByteDeviceIoDeviceImpl::QNonContiguousByteDeviceIoDeviceImpl(QIODevice *)
PUBLIC 103530 0 QNonContiguousByteDeviceRingBufferImpl::QNonContiguousByteDeviceRingBufferImpl(QSharedPointer<QRingBuffer>)
PUBLIC 103640 0 QSharedPointer<char>::~QSharedPointer<char>()
PUBLIC 103680 0 QNonContiguousByteDevice::~QNonContiguousByteDevice()
PUBLIC 103690 0 QByteDeviceWrappingIoDevice::`vector deleting destructor'(unsigned int)
PUBLIC 1036c0 0 QNonContiguousByteDeviceBufferImpl::`vector deleting destructor'(unsigned int)
PUBLIC 103720 0 QNonContiguousByteDevice::`vector deleting destructor'(unsigned int)
PUBLIC 103750 0 QNonContiguousByteDeviceIoDeviceImpl::`vector deleting destructor'(unsigned int)
PUBLIC 1037c0 0 QNonContiguousByteDeviceRingBufferImpl::`vector deleting destructor'(unsigned int)
PUBLIC 103870 0 QNonContiguousByteDeviceBufferImpl::advanceReadPointer(__int64)
PUBLIC 103890 0 QNonContiguousByteDeviceByteArrayImpl::advanceReadPointer(__int64)
PUBLIC 1038c0 0 QNonContiguousByteDeviceIoDeviceImpl::advanceReadPointer(__int64)
PUBLIC 1039a0 0 QNonContiguousByteDeviceRingBufferImpl::advanceReadPointer(__int64)
PUBLIC 1039d0 0 QByteDeviceWrappingIoDevice::atEnd()
PUBLIC 1039e0 0 QNonContiguousByteDeviceBufferImpl::atEnd()
PUBLIC 1039f0 0 QNonContiguousByteDeviceByteArrayImpl::atEnd()
PUBLIC 103a10 0 QNonContiguousByteDeviceIoDeviceImpl::atEnd()
PUBLIC 103a20 0 QNonContiguousByteDeviceRingBufferImpl::atEnd()
PUBLIC 103a40 0 QNonContiguousByteDeviceFactory::createShared(QIODevice *)
PUBLIC 103b60 0 QNonContiguousByteDeviceFactory::createShared(QSharedPointer<QRingBuffer>)
PUBLIC 103c50 0 QtSharedPointer::ExternalRefCountWithContiguousData<QNonContiguousByteDeviceBufferImpl>::deleter(QtSharedPointer::ExternalRefCountData *)
PUBLIC 103c60 0 QtSharedPointer::ExternalRefCountWithContiguousData<QNonContiguousByteDeviceIoDeviceImpl>::deleter(QtSharedPointer::ExternalRefCountData *)
PUBLIC 103c70 0 QNonContiguousByteDevice::disableReset()
PUBLIC 103c80 0 QByteDeviceWrappingIoDevice::isSequential()
PUBLIC 103ca0 0 QByteDeviceWrappingIoDevice::readData(char *,__int64)
PUBLIC 103d10 0 QNonContiguousByteDeviceBufferImpl::readPointer(__int64,__int64 &)
PUBLIC 103d30 0 QNonContiguousByteDeviceByteArrayImpl::readPointer(__int64,__int64 &)
PUBLIC 103e00 0 QNonContiguousByteDeviceIoDeviceImpl::readPointer(__int64,__int64 &)
PUBLIC 104020 0 QNonContiguousByteDeviceRingBufferImpl::readPointer(__int64,__int64 &)
PUBLIC 1040b0 0 QRingBuffer::readPointerAtPosition(__int64,__int64 &)
PUBLIC 104160 0 QByteDeviceWrappingIoDevice::reset()
PUBLIC 104170 0 QNonContiguousByteDeviceBufferImpl::reset()
PUBLIC 104190 0 QNonContiguousByteDeviceByteArrayImpl::reset()
PUBLIC 1041b0 0 QNonContiguousByteDeviceIoDeviceImpl::reset()
PUBLIC 104260 0 QNonContiguousByteDeviceRingBufferImpl::reset()
PUBLIC 104280 0 QByteDeviceWrappingIoDevice::size()
PUBLIC 1042a0 0 QNonContiguousByteDeviceBufferImpl::size()
PUBLIC 1042b0 0 QNonContiguousByteDeviceByteArrayImpl::size()
PUBLIC 1042c0 0 QNonContiguousByteDeviceIoDeviceImpl::size()
PUBLIC 1042f0 0 QNonContiguousByteDeviceRingBufferImpl::size()
PUBLIC 104300 0 QNonContiguousByteDeviceFactory::wrap(QNonContiguousByteDevice *)
PUBLIC 104500 0 qIsEffectiveTLD(QString const &)
PUBLIC 104720 0 QThreadStorageData::QThreadStorageData(void (*)(void *))
PUBLIC 1048c0 0 QThreadStorageData::~QThreadStorageData()
PUBLIC 104960 0 QVector<void *>::operator=(QVector<void *> &&)
PUBLIC 104990 0 QVector<int>::operator[](int)
PUBLIC 104a00 0 QVector<void *>::clear()
PUBLIC 104a80 0 QThreadStorageData::finish(void * *)
PUBLIC 104c80 0 QThreadStorageData::get()
PUBLIC 104d30 0 `anonymous namespace'::Q_QGS_destructors::innerFunction()
PUBLIC 104df0 0 QThreadStorageData::set(void *)
PUBLIC 104f40 0 QFileInfo::QFileInfo(QFile const &)
PUBLIC 105010 0 QFileInfo::QFileInfo(QString const &)
PUBLIC 105090 0 QFileInfo::QFileInfo(QFileInfoPrivate *)
PUBLIC 1050b0 0 QFileInfo::QFileInfo()
PUBLIC 105120 0 QFileInfoPrivate::QFileInfoPrivate(QFileInfoPrivate const &)
PUBLIC 105270 0 QFileInfoPrivate::QFileInfoPrivate(QFileSystemEntry const &,QFileSystemMetaData const &,QAbstractFileEngine *)
PUBLIC 1053b0 0 QFileInfoPrivate::QFileInfoPrivate(QString const &)
PUBLIC 1054f0 0 QFileInfoPrivate::QFileInfoPrivate()
PUBLIC 1055d0 0 QVector<QDateTime>::~QVector<QDateTime>()
PUBLIC 105630 0 QFileInfo::~QFileInfo()
PUBLIC 105660 0 QFileInfoPrivate::~QFileInfoPrivate()
PUBLIC 105700 0 QFileInfo::operator=(QFileInfo const &)
PUBLIC 105750 0 QVector<QDateTime>::operator[](int)
PUBLIC 1057c0 0 QFileInfo::absoluteFilePath()
PUBLIC 105800 0 QFileInfo::absolutePath()
PUBLIC 1058a0 0 QFileInfo::baseName()
PUBLIC 1058e0 0 QFileSystemEngine::bundleName(QFileSystemEntry const &)
PUBLIC 105900 0 QFileInfo::canonicalFilePath()
PUBLIC 105940 0 QVector<QDateTime>::defaultConstruct(QDateTime *,QDateTime *)
PUBLIC 1059b0 0 QVector<QDateTime>::destruct(QDateTime *,QDateTime *)
PUBLIC 1059e0 0 QSharedDataPointer<QFileInfoPrivate>::detach_helper()
PUBLIC 105a80 0 QFileInfo::dir()
PUBLIC 105b20 0 QFileInfo::exists()
PUBLIC 105b80 0 QFileInfo::exists(QString const &)
PUBLIC 105d00 0 QFileInfo::fileName()
PUBLIC 105d40 0 QFileInfo::filePath()
PUBLIC 105d80 0 QVector<QDateTime>::freeData(QTypedArrayData<QDateTime> *)
PUBLIC 105dd0 0 QFileInfoPrivate::getFileFlags(QFlags<QAbstractFileEngine::FileFlag>)
PUBLIC 105eb0 0 QFileInfoPrivate::getFileName(QAbstractFileEngine::FileName)
PUBLIC 106260 0 QFileInfoPrivate::getFileTime(QAbstractFileEngine::FileTime)
PUBLIC 1063a0 0 QFileInfo::isDir()
PUBLIC 106400 0 QFileInfo::isExecutable()
PUBLIC 106470 0 QFileInfo::isFile()
PUBLIC 1064d0 0 QFileInfo::isHidden()
PUBLIC 106530 0 QFileInfo::isReadable()
PUBLIC 1065a0 0 QFileInfo::isRelative()
PUBLIC 1065d0 0 QFileInfo::isSymLink()
PUBLIC 106640 0 QFileInfo::isWritable()
PUBLIC 1066b0 0 QFileInfo::lastModified()
PUBLIC 106750 0 QFileInfo::path()
PUBLIC 106790 0 QFileInfo::readLink()
PUBLIC 1067d0 0 QVector<QDateTime>::reallocData(int,int,QFlags<QArrayData::AllocationOption>)
PUBLIC 106a20 0 QFileInfo::setFile(QString const &)
PUBLIC 106af0 0 QFileInfo::size()
PUBLIC 106b80 0 QFileInfo::suffix()
PUBLIC 106bc0 0 qDecodeDataUrl(QUrl const &,QString &,QByteArray &)
PUBLIC 107150 0 QCryptographicHash::QCryptographicHash(QCryptographicHash::Algorithm)
PUBLIC 1071a0 0 QCryptographicHash::~QCryptographicHash()
PUBLIC 113030 0 SHA256Input(SHA256Context *,unsigned char const *,unsigned int)
PUBLIC 113970 0 SHA512Input(SHA512Context *,unsigned char const *,unsigned int)
PUBLIC 113b70 0 QCryptographicHash::addData(QByteArray const &)
PUBLIC 113b90 0 QCryptographicHash::addData(char const *,int)
PUBLIC 114580 0 QCryptographicHash::hash(QByteArray const &,QCryptographicHash::Algorithm)
PUBLIC 114850 0 QCryptographicHash::reset()
PUBLIC 114a00 0 QCryptographicHash::result()
PUBLIC 1160a0 0 QSystemLibrary::load(wchar_t const *,bool)
PUBLIC 1165e0 0 QVarLengthArray<wchar_t,260>::realloc(int,int)
PUBLIC 1166a0 0 QSocketNotifier::qt_static_metacall(QObject *,QMetaObject::Call,int,void * *)
PUBLIC 116730 0 QSocketNotifier::activated(int,QSocketNotifier::QPrivateSignal)
PUBLIC 116760 0 QSocketNotifier::metaObject()
PUBLIC 116780 0 QSocketNotifier::qt_metacall(QMetaObject::Call,int,void * *)
PUBLIC 1167e0 0 QSocketNotifier::qt_metacast(char const *)
PUBLIC 116840 0 QSocketNotifier::QSocketNotifier(int,QSocketNotifier::Type,QObject *)
PUBLIC 116960 0 QSocketNotifier::~QSocketNotifier()
PUBLIC 1169c0 0 QSocketNotifier::`vector deleting destructor'(unsigned int)
PUBLIC 116a40 0 QSocketNotifier::event(QEvent *)
PUBLIC 116ae0 0 QSocketNotifier::isEnabled()
PUBLIC 116af0 0 QSocketNotifier::setEnabled(bool)
PUBLIC 116b80 0 QSocketNotifier::type()
PUBLIC 116b90 0 qDeleteAll<QFileSystemIterator * const *>(QFileSystemIterator * const *,QFileSystemIterator * const *)
PUBLIC 116be0 0 QDirIterator::QDirIterator(QDir const &,QFlags<QDirIterator::IteratorFlag>)
PUBLIC 116ca0 0 QDirIterator::QDirIterator(QString const &,QStringList const &,QFlags<QDir::Filter>,QFlags<QDirIterator::IteratorFlag>)
PUBLIC 116d50 0 QDirIterator::QDirIterator(QString const &,QFlags<QDir::Filter>,QFlags<QDirIterator::IteratorFlag>)
PUBLIC 116e70 0 QDirIteratorPrivate::QDirIteratorPrivate(QFileSystemEntry const &,QStringList const &,QFlags<QDir::Filter>,QFlags<QDirIterator::IteratorFlag>,bool)
PUBLIC 117230 0 QFileInfoPrivate::QFileInfoPrivate(QFileSystemEntry const &,QFileSystemMetaData const &)
PUBLIC 1173c0 0 QDirIteratorPrivateIteratorStack<QAbstractFileEngineIterator>::~QDirIteratorPrivateIteratorStack<QAbstractFileEngineIterator>()
PUBLIC 117440 0 QDirIteratorPrivateIteratorStack<QFileSystemIterator>::~QDirIteratorPrivateIteratorStack<QFileSystemIterator>()
PUBLIC 1174d0 0 QVector<QRegExp>::~QVector<QRegExp>()
PUBLIC 117530 0 QScopedPointer<QDirIteratorPrivate,QScopedPointerDeleter<QDirIteratorPrivate> >::~QScopedPointer<QDirIteratorPrivate,QScopedPointerDeleter<QDirIteratorPrivate> >()
PUBLIC 117550 0 QDirIteratorPrivate::~QDirIteratorPrivate()
PUBLIC 1176e0 0 QDirIteratorPrivate::advance()
PUBLIC 117aa0 0 QVector<QRegExp>::append(QRegExp const &)
PUBLIC 117b70 0 QDirIteratorPrivate::checkAndPushDirectory(QFileInfo const &)
PUBLIC 117ce0 0 QVector<QRegExp>::defaultConstruct(QRegExp *,QRegExp *)
PUBLIC 117d50 0 QVector<QRegExp>::destruct(QRegExp *,QRegExp *)
PUBLIC 117d80 0 QDirIterator::fileInfo()
PUBLIC 117da0 0 QDirIterator::fileName()
PUBLIC 117dc0 0 QDirIterator::filePath()
PUBLIC 117de0 0 QVector<QRegExp>::freeData(QTypedArrayData<QRegExp> *)
PUBLIC 117e30 0 QDirIterator::hasNext()
PUBLIC 117e50 0 QDirIteratorPrivate::matchesFilters(QString const &,QFileInfo const &)
PUBLIC 1180b0 0 QDirIterator::next()
PUBLIC 1180e0 0 QStack<QAbstractFileEngineIterator *>::pop()
PUBLIC 118180 0 QDirIteratorPrivate::pushDirectory(QFileInfo const &)
PUBLIC 118340 0 QVector<QRegExp>::reallocData(int,int,QFlags<QArrayData::AllocationOption>)
PUBLIC 118590 0 QStack<QAbstractFileEngineIterator *>::top()
PUBLIC 118650 0 QByteArrayMatcher::QByteArrayMatcher(QByteArray const &)
PUBLIC 1186f0 0 QByteArrayMatcher::QByteArrayMatcher(char const *,int)
PUBLIC 118890 0 QByteArrayMatcher::indexIn(QByteArray const &,int)
PUBLIC 1188d0 0 qFindByteArray(char const *,int,int,char const *,int)
PUBLIC 118b10 0 QNonContiguousByteDevice::qt_static_metacall(QObject *,QMetaObject::Call,int,void * *)
PUBLIC 118c00 0 QNonContiguousByteDevice::metaObject()
PUBLIC 118c20 0 QNonContiguousByteDeviceBufferImpl::metaObject()
PUBLIC 118c40 0 QNonContiguousByteDeviceIoDeviceImpl::metaObject()
PUBLIC 118c60 0 QNonContiguousByteDevice::qt_metacall(QMetaObject::Call,int,void * *)
PUBLIC 118cc0 0 QNonContiguousByteDeviceBufferImpl::qt_metacall(QMetaObject::Call,int,void * *)
PUBLIC 118d20 0 QNonContiguousByteDevice::qt_metacast(char const *)
PUBLIC 118d80 0 QNonContiguousByteDeviceBufferImpl::qt_metacast(char const *)
PUBLIC 118de0 0 QNonContiguousByteDeviceIoDeviceImpl::qt_metacast(char const *)
PUBLIC 118e40 0 QNonContiguousByteDevice::readProgress(__int64,__int64)
PUBLIC 118e90 0 QNonContiguousByteDevice::readyRead()
PUBLIC 119010 0 z_inflate
PUBLIC 11a6c0 0 z_inflateCopy
PUBLIC 11a820 0 z_inflateEnd
PUBLIC 11a870 0 z_inflateGetHeader
PUBLIC 11a8a0 0 z_inflateInit2_
PUBLIC 11a960 0 z_inflateInit_
PUBLIC 11a980 0 z_inflateMark
PUBLIC 11a9e0 0 z_inflatePrime
PUBLIC 11aa50 0 z_inflateReset
PUBLIC 11ab00 0 z_inflateReset2
PUBLIC 11ab90 0 z_inflateSetDictionary
PUBLIC 11ac70 0 z_inflateSync
PUBLIC 11ad50 0 z_inflateSyncPoint
PUBLIC 11ad80 0 z_inflateUndermine
PUBLIC 11bf40 0 z_deflate
PUBLIC 11c780 0 z_deflateBound
PUBLIC 11c860 0 z_deflateCopy
PUBLIC 11ca10 0 z_deflateEnd
PUBLIC 11cae0 0 z_deflateInit2_
PUBLIC 11cd10 0 z_deflateInit_
PUBLIC 11cd40 0 z_deflateParams
PUBLIC 11ce30 0 z_deflatePrime
PUBLIC 11ce70 0 z_deflateReset
PUBLIC 11cf30 0 z_deflateSetDictionary
PUBLIC 11d020 0 z_deflateSetHeader
PUBLIC 11d050 0 z_deflateTune
PUBLIC 11d090 0 qIsFinite(double)
PUBLIC 11d0c0 0 qIsInf(double)
PUBLIC 11d0f0 0 QTextCodec::QTextCodec()
PUBLIC 11d1a0 0 QTextCodec::ConverterState::~ConverterState()
PUBLIC 11d1c0 0 QTextCodec::~QTextCodec()
PUBLIC 11d1d0 0 QList<QByteArray>::operator+=(QList<QByteArray> const &)
PUBLIC 11d2c0 0 QBig5Codec::`vector deleting destructor'(unsigned int)
PUBLIC 11d2e0 0 QIsciiCodec::`vector deleting destructor'(unsigned int)
PUBLIC 11d300 0 QLatin15Codec::`vector deleting destructor'(unsigned int)
PUBLIC 11d320 0 QLatin1Codec::`vector deleting destructor'(unsigned int)
PUBLIC 11d340 0 QTsciiCodec::`vector deleting destructor'(unsigned int)
PUBLIC 11d360 0 QUtf16BECodec::`vector deleting destructor'(unsigned int)
PUBLIC 11d380 0 QUtf32BECodec::`vector deleting destructor'(unsigned int)
PUBLIC 11d3a0 0 QUtf8Codec::`vector deleting destructor'(unsigned int)
PUBLIC 11d3c0 0 QBig5Codec::aliases()
PUBLIC 11d3e0 0 QCP949Codec::aliases()
PUBLIC 11d400 0 QBig5hkscsCodec::aliases()
PUBLIC 11d420 0 QTextCodec::codecForLocale()
PUBLIC 11d440 0 QTextCodec::codecForMib(int)
PUBLIC 11d630 0 QTextCodec::codecForName(QByteArray const &)
PUBLIC 11d900 0 QTextCodec::codecForUtfText(QByteArray const &,QTextCodec *)
PUBLIC 11d9d0 0 QHash<QByteArray,QTextCodec *>::createNode(unsigned int,QByteArray const &,QTextCodec * const &,QHashNode<QByteArray,QTextCodec *> * *)
PUBLIC 11da40 0 QHash<QByteArray,QTextCodec *>::deleteNode2(QHashData::Node *)
PUBLIC 11da70 0 QHash<QByteArray,QTextCodec *>::duplicateNode(QHashData::Node *,void *)
PUBLIC 11dab0 0 `anonymous namespace'::Q_QGS_textCodecsMutex::innerFunction()
PUBLIC 11db80 0 QHash<QByteArray,QTextCodec *>::insert(QByteArray const &,QTextCodec * const &)
PUBLIC 11dc50 0 QBig5Codec::mibEnum()
PUBLIC 11dc60 0 QBig5hkscsCodec::mibEnum()
PUBLIC 11dc70 0 QCP949Codec::mibEnum()
PUBLIC 11dc80 0 QEucKrCodec::mibEnum()
PUBLIC 11dc90 0 QBig5Codec::name()
PUBLIC 11dcb0 0 QBig5hkscsCodec::name()
PUBLIC 11dcd0 0 QCP949Codec::name()
PUBLIC 11dcf0 0 QEucKrCodec::name()
PUBLIC 11dd10 0 QList<void (*)(void)>::prepend(void (*const &)(void))
PUBLIC 11dda0 0 qTextCodecNameMatch(char const *,char const *)
PUBLIC 11e960 0 QHash<QByteArray,QTextCodec *>::value(QByteArray const &)
PUBLIC 11e9e0 0 QRegularExpression::QRegularExpression()
PUBLIC 11ea50 0 QRegularExpressionPrivate::QRegularExpressionPrivate()
PUBLIC 11eaf0 0 QRegularExpression::~QRegularExpression()
PUBLIC 11eb20 0 QRegularExpressionPrivate::~QRegularExpressionPrivate()
PUBLIC 11ebe0 0 operator<<(QDebug,QRegularExpression const &)
PUBLIC 11ed50 0 operator<<(QDebug,QFlags<QRegularExpression::PatternOption>)
PUBLIC 11ef90 0 QRegularExpression::operator==(QRegularExpression const &)
PUBLIC 11efd0 0 QRegularExpression::pattern()
PUBLIC 11f000 0 QUtf8Functions::fromUtf8<QUtf8BaseTraits,unsigned short *,unsigned char const *>(unsigned char,unsigned short * &,unsigned char const * &,unsigned char const *)
PUBLIC 11f170 0 QUtf8Functions::toUtf8<QUtf8BaseTraits,unsigned char *,unsigned short const *>(unsigned short,unsigned char * &,unsigned short const * &,unsigned short const *)
PUBLIC 11f280 0 QUtf16Codec::~QUtf16Codec()
PUBLIC 11f290 0 QUtf32Codec::~QUtf32Codec()
PUBLIC 11f2a0 0 QUtf8Codec::~QUtf8Codec()
PUBLIC 11f2b0 0 QTextCodec::aliases()
PUBLIC 11f2d0 0 QUtf8BaseTraits::appendUcs4(unsigned short * &,unsigned int)
PUBLIC 11f310 0 QUtf16::convertFromUnicode(QChar const *,int,QTextCodec::ConverterState *,DataEndianness)
PUBLIC 11f490 0 QUtf16Codec::convertFromUnicode(QChar const *,int,QTextCodec::ConverterState *)
PUBLIC 11f4c0 0 QUtf32::convertFromUnicode(QChar const *,int,QTextCodec::ConverterState *,DataEndianness)
PUBLIC 11f6f0 0 QUtf32Codec::convertFromUnicode(QChar const *,int,QTextCodec::ConverterState *)
PUBLIC 11f720 0 QUtf8::convertFromUnicode(QChar const *,int)
PUBLIC 11f830 0 QUtf8::convertFromUnicode(QChar const *,int,QTextCodec::ConverterState *)
PUBLIC 11fa30 0 QUtf8Codec::convertFromUnicode(QChar const *,int,QTextCodec::ConverterState *)
PUBLIC 11fa60 0 QUtf16::convertToUnicode(char const *,int,QTextCodec::ConverterState *,DataEndianness)
PUBLIC 11fc70 0 QUtf16Codec::convertToUnicode(char const *,int,QTextCodec::ConverterState *)
PUBLIC 11fca0 0 QUtf32::convertToUnicode(char const *,int,QTextCodec::ConverterState *,DataEndianness)
PUBLIC 11ff30 0 QUtf32Codec::convertToUnicode(char const *,int,QTextCodec::ConverterState *)
PUBLIC 11ff60 0 QUtf8::convertToUnicode(char const *,int)
PUBLIC 1200c0 0 QUtf8::convertToUnicode(char const *,int,QTextCodec::ConverterState *)
PUBLIC 120430 0 QUtf8Codec::convertToUnicode(char const *,int,QTextCodec::ConverterState *)
PUBLIC 120460 0 QUtf16BECodec::mibEnum()
PUBLIC 120470 0 QUtf16Codec::mibEnum()
PUBLIC 120480 0 QUtf16LECodec::mibEnum()
PUBLIC 120490 0 QUtf32BECodec::mibEnum()
PUBLIC 1204a0 0 QUtf32Codec::mibEnum()
PUBLIC 1204b0 0 QUtf32LECodec::mibEnum()
PUBLIC 1204c0 0 QUtf8Codec::mibEnum()
PUBLIC 1204d0 0 QUtf16BECodec::name()
PUBLIC 120500 0 QUtf16Codec::name()
PUBLIC 120530 0 QUtf16LECodec::name()
PUBLIC 120560 0 QUtf32BECodec::name()
PUBLIC 120590 0 QUtf32Codec::name()
PUBLIC 1205c0 0 QUtf32LECodec::name()
PUBLIC 1205f0 0 QUtf8Codec::name()
PUBLIC 120750 0 QFile::metaObject()
PUBLIC 120770 0 QFile::qt_metacall(QMetaObject::Call,int,void * *)
PUBLIC 120780 0 QFile::qt_metacast(char const *)
PUBLIC 1207e0 0 QAbstractFileEngine::QAbstractFileEngine(QAbstractFileEnginePrivate &)
PUBLIC 120800 0 QAbstractFileEngineIterator::QAbstractFileEngineIterator(QFlags<QDir::Filter>,QStringList const &)
PUBLIC 1208b0 0 QScopedPointer<QAbstractFileEngineIteratorPrivate,QScopedPointerDeleter<QAbstractFileEngineIteratorPrivate> >::~QScopedPointer<QAbstractFileEngineIteratorPrivate,QScopedPointerDeleter<QAbstractFileEngineIteratorPrivate> >()
PUBLIC 1208d0 0 QAbstractFileEngine::~QAbstractFileEngine()
PUBLIC 1208f0 0 QAbstractFileEngineHandlerList::~QAbstractFileEngineHandlerList()
PUBLIC 1209b0 0 QAbstractFileEngineIterator::~QAbstractFileEngineIterator()
PUBLIC 1209d0 0 QAbstractFileEngineIteratorPrivate::~QAbstractFileEngineIteratorPrivate()
PUBLIC 120a90 0 QAbstractFileEnginePrivate::~QAbstractFileEnginePrivate()
PUBLIC 120ad0 0 QAbstractFileEngine::`vector deleting destructor'(unsigned int)
PUBLIC 120b00 0 QAbstractFileEngineIterator::`vector deleting destructor'(unsigned int)
PUBLIC 120b40 0 QAbstractFileEnginePrivate::`vector deleting destructor'(unsigned int)
PUBLIC 120b90 0 QAbstractFileEngine::atEnd()
PUBLIC 120bb0 0 QAbstractFileEngine::beginEntryList(QFlags<QDir::Filter>,QStringList const &)
PUBLIC 120bc0 0 QAbstractFileEngine::create(QString const &)
PUBLIC 120d20 0 QAbstractFileEngineIterator::currentFileInfo()
PUBLIC 120e30 0 QAbstractFileEngineIterator::currentFilePath()
PUBLIC 120f30 0 QtMetaTypePrivate::QMetaTypeFunctionHelper<void,0>::Construct(void *,void const *)
PUBLIC 120f40 0 QAbstractFileEngineIterator::entryInfo(QAbstractFileEngineIterator::EntryInfoType)
PUBLIC 120f60 0 QAbstractFileEngine::entryList(QFlags<QDir::Filter>,QStringList const &)
PUBLIC 1210e0 0 QAbstractFileEngine::error()
PUBLIC 1210f0 0 QAbstractFileEngine::errorString()
PUBLIC 121120 0 QAbstractFileEngine::extension(QAbstractFileEngine::Extension,QAbstractFileEngine::ExtensionOption const *,QAbstractFileEngine::ExtensionReturn *)
PUBLIC 121130 0 QAbstractFileEngine::fileFlags(QFlags<QAbstractFileEngine::FileFlag>)
PUBLIC 121140 0 QAbstractFileEngine::fileName(QAbstractFileEngine::FileName)
PUBLIC 121160 0 QAbstractFileEngine::fileTime(QAbstractFileEngine::FileTime)
PUBLIC 121180 0 QAbstractFileEngineIterator::filters()
PUBLIC 121190 0 QDateTimeParser::cursorPosition()
PUBLIC 1211a0 0 `anonymous namespace'::Q_QGS_fileEngineHandlerMutex::innerFunction()
PUBLIC 121270 0 `anonymous namespace'::Q_QGS_fileEngineHandlers::innerFunction()
PUBLIC 121330 0 QHttpSocketEngine::bind(QHostAddress const &,unsigned short)
PUBLIC 121340 0 QAbstractFileEngineIterator::nameFilters()
PUBLIC 121370 0 QMetaType::createExtended(void const *)
PUBLIC 121380 0 QAbstractFileEngineIterator::path()
PUBLIC 1213b0 0 qt_custom_file_engine_handler_create(QString const &)
PUBLIC 1214a0 0 QAbstractFileEngine::readLine(char *,__int64)
PUBLIC 121550 0 QAbstractFileEngine::setError(QFileDevice::FileError,QString const &)
PUBLIC 121570 0 QAbstractFileEngineIterator::setPath(QString const &)
PUBLIC 121580 0 QIODevice::bytesToWrite()
PUBLIC 121590 0 QAbstractFileEngine::read(char *,__int64)
PUBLIC 1215a0 0 QStringBuilder<QStringBuilder<QString,QChar>,QString>::convertTo<QString>()
PUBLIC 121670 0 QFileSystemEntry::QFileSystemEntry(QString const &)
PUBLIC 1216a0 0 QFileSystemEntry::QFileSystemEntry(QString const &,QFileSystemEntry::FromInternalPath)
PUBLIC 1216e0 0 QFileSystemEntry::QFileSystemEntry(QString const &,QFileSystemEntry::FromNativePath)
PUBLIC 121720 0 QFileSystemEntry::QFileSystemEntry()
PUBLIC 121740 0 QStringBuilder<QStringBuilder<QString,QChar>,QString>::operator QString()
PUBLIC 121760 0 QFileSystemEntry::baseName()
PUBLIC 1217e0 0 QFileSystemEntry::fileName()
PUBLIC 121850 0 QFileSystemEntry::filePath()
PUBLIC 121890 0 QFileSystemEntry::findFileNameSeparators()
PUBLIC 121a40 0 QFileSystemEntry::findLastSeparator()
PUBLIC 121c20 0 QFileSystemEntry::isAbsolute()
PUBLIC 121cb0 0 QFileSystemEntry::isClean()
PUBLIC 121d40 0 QFileSystemEntry::isDriveRoot()
PUBLIC 121da0 0 QFileSystemEntry::isEmpty()
PUBLIC 121dc0 0 QCharRef::isLetter()
PUBLIC 121e10 0 QFileSystemEntry::isRelative()
PUBLIC 121e80 0 QFileSystemEntry::isRoot()
PUBLIC 122030 0 QFileSystemEntry::nativeFilePath()
PUBLIC 122070 0 QFileSystemEntry::path()
PUBLIC 122120 0 QFileSystemEntry::resolveFilePath()
PUBLIC 1221e0 0 QFileSystemEntry::resolveNativeFilePath()
PUBLIC 122360 0 QFileSystemEntry::suffix()
PUBLIC 1223d0 0 QFSFileEngine::QFSFileEngine(QString const &)
PUBLIC 122500 0 QFSFileEngine::QFSFileEngine()
PUBLIC 122580 0 QFSFileEnginePrivate::QFSFileEnginePrivate()
PUBLIC 122660 0 QFSFileEnginePrivate::~QFSFileEnginePrivate()
PUBLIC 122710 0 QFSFileEngine::`vector deleting destructor'(unsigned int)
PUBLIC 1227b0 0 QFSFileEnginePrivate::`vector deleting destructor'(unsigned int)
PUBLIC 1227d0 0 QFSFileEngine::beginEntryList(QFlags<QDir::Filter>,QStringList const &)
PUBLIC 122840 0 QFSFileEngine::close()
PUBLIC 122850 0 QFSFileEnginePrivate::closeFdFh()
PUBLIC 122980 0 QFSFileEngine::extension(QAbstractFileEngine::Extension,QAbstractFileEngine::ExtensionOption const *,QAbstractFileEngine::ExtensionReturn *)
PUBLIC 122a00 0 QFSFileEngine::flush()
PUBLIC 122a20 0 QFSFileEnginePrivate::flushFh()
PUBLIC 122b10 0 QFSFileEngine::handle()
PUBLIC 122b20 0 QFSFileEngine::isSequential()
PUBLIC 122b60 0 QFSFileEngine::open(QFlags<QIODevice::OpenModeFlag>)
PUBLIC 122c90 0 QFSFileEngine::pos()
PUBLIC 122ca0 0 QFSFileEnginePrivate::posFdFh()
PUBLIC 122cd0 0 QFSFileEngine::read(char *,__int64)
PUBLIC 122d00 0 QFSFileEnginePrivate::readFdFh(char *,__int64)
PUBLIC 122f40 0 QFSFileEngine::readLine(char *,__int64)
PUBLIC 122f70 0 QFSFileEnginePrivate::readLineFdFh(char *,__int64)
PUBLIC 1230e0 0 QFSFileEngine::seek(__int64)
PUBLIC 123100 0 QFSFileEnginePrivate::seekFdFh(__int64)
PUBLIC 123270 0 QFSFileEngine::setFileName(QString const &)
PUBLIC 1233a0 0 QFSFileEngine::size()
PUBLIC 1233b0 0 QFSFileEngine::supportsExtension(QAbstractFileEngine::Extension)
PUBLIC 1233f0 0 QFSFileEngine::syncToDisk()
PUBLIC 123410 0 QFSFileEnginePrivate::unmapAll()
PUBLIC 1234d0 0 QFSFileEngine::write(char const *,__int64)
PUBLIC 123500 0 QFSFileEnginePrivate::writeFdFh(char const *,__int64)
PUBLIC 1236e0 0 QStringBuilder<QLatin1String,QString>::convertTo<QString>()
PUBLIC 1237a0 0 QVarLengthArray<wchar_t,64>::QVarLengthArray<wchar_t,64>(int)
PUBLIC 1237f0 0 QVarLengthArray<char,256>::~QVarLengthArray<char,256>()
PUBLIC 123810 0 QStringBuilder<QLatin1String,QString>::operator QString()
PUBLIC 123830 0 QFileSystemEngine::absoluteName(QFileSystemEntry const &)
PUBLIC 123b90 0 QFileSystemMetaData::accessTime()
PUBLIC 123bb0 0 QFileSystemEngine::canonicalName(QFileSystemEntry const &,QFileSystemMetaData &)
PUBLIC 123cf0 0 QFileSystemEngine::clearWinStatData(QFileSystemMetaData &)
PUBLIC 123d50 0 QFileSystemEngine::copyFile(QFileSystemEntry const &,QFileSystemEntry const &,QSystemError &)
PUBLIC 123e50 0 QFileSystemEngine::createDirectory(QFileSystemEntry const &,bool)
PUBLIC 1241b0 0 QFileSystemMetaData::creationTime()
PUBLIC 1241d0 0 QFileSystemEngine::currentPath()
PUBLIC 1244e0 0 QFileSystemMetaData::fillFromFindData(_WIN32_FIND_DATAW &,bool,bool)
PUBLIC 1245c0 0 QFileSystemMetaData::fillFromFindInfo(_BY_HANDLE_FILE_INFORMATION &)
PUBLIC 124670 0 QFileSystemEngine::fillMetaData(QFileSystemEntry const &,QFileSystemMetaData &,QFlags<QFileSystemMetaData::MetaDataFlag>)
PUBLIC 124ab0 0 QFileSystemEngine::fillMetaData(int,QFileSystemMetaData &,QFlags<QFileSystemMetaData::MetaDataFlag>)
PUBLIC 124ae0 0 QFileSystemEngine::fillMetaData(void *,QFileSystemMetaData &,QFlags<QFileSystemMetaData::MetaDataFlag>)
PUBLIC 124bb0 0 QFileSystemEngine::fillPermissions(QFileSystemEntry const &,QFileSystemMetaData &,QFlags<QFileSystemMetaData::MetaDataFlag>)
PUBLIC 125150 0 QFileSystemEngine::getLinkTarget(QFileSystemEntry const &,QFileSystemMetaData &)
PUBLIC 125270 0 QFileSystemEngine::homePath()
PUBLIC 125720 0 `anonymous namespace'::Q_QGS_initSidCleanup::innerFunction()
PUBLIC 125a30 0 QFileSystemMetaData::modificationTime()
PUBLIC 125a50 0 QFileSystemEngine::nativeAbsoluteFilePath(QString const &)
PUBLIC 125c30 0 QFileSystemEngine::owner(QFileSystemEntry const &,QAbstractFileEngine::FileOwner)
PUBLIC 1264b0 0 QVarLengthArray<wchar_t,64>::realloc(int,int)
PUBLIC 126570 0 QFileSystemEngine::removeDirectory(QFileSystemEntry const &,bool)
PUBLIC 126840 0 QFileSystemEngine::removeFile(QFileSystemEntry const &,QSystemError &)
PUBLIC 1268f0 0 QFileSystemEngine::renameFile(QFileSystemEntry const &,QFileSystemEntry const &,QSystemError &)
PUBLIC 126e30 0 QFileSystemEngine::rootPath()
PUBLIC 126f60 0 QFileSystemEngine::setPermissions(QFileSystemEntry const &,QFlags<QFileDevice::Permission>,QSystemError &,QFileSystemMetaData *)
PUBLIC 127080 0 QFileSystemEngine::tempPath()
PUBLIC 1275a0 0 QFileSystemEngine::uncListSharesOnServer(QString const &,QStringList *)
PUBLIC 1278a0 0 QHash<unsigned char *,unsigned long>::operator[](unsigned char * const &)
PUBLIC 127990 0 QFSFileEngine::copy(QString const &)
PUBLIC 127ac0 0 QFSFileEnginePrivate::doStat(QFlags<QFileSystemMetaData::MetaDataFlag>)
PUBLIC 127b60 0 QHash<int,QSockNot *>::duplicateNode(QHashData::Node *,void *)
PUBLIC 127b90 0 QFSFileEngine::fileFlags(QFlags<QAbstractFileEngine::FileFlag>)
PUBLIC 127c90 0 QFSFileEngine::fileName(QAbstractFileEngine::FileName)
PUBLIC 128320 0 QFSFileEngine::fileTime(QAbstractFileEngine::FileTime)
PUBLIC 128380 0 QFileSystemMetaData::fileTime(QAbstractFileEngine::FileTime)
PUBLIC 1283e0 0 QFSFileEngine::isRelativePath()
PUBLIC 1283f0 0 QFSFileEngine::link(QString const &)
PUBLIC 128690 0 QFSFileEnginePrivate::longFileName(QString const &)
PUBLIC 128850 0 QFSFileEnginePrivate::map(__int64,__int64,QFileDevice::MemoryMapFlags)
PUBLIC 128ad0 0 QFSFileEngine::mkdir(QString const &,bool)
PUBLIC 128b90 0 QFSFileEnginePrivate::nativeClose()
PUBLIC 128cc0 0 QFSFileEnginePrivate::nativeFlush()
PUBLIC 128cd0 0 QFSFileEnginePrivate::nativeHandle()
PUBLIC 128d20 0 QFSFileEnginePrivate::nativeIsSequential()
PUBLIC 128d70 0 QFSFileEnginePrivate::nativeOpen(QFlags<QIODevice::OpenModeFlag>)
PUBLIC 128ed0 0 QFSFileEnginePrivate::nativePos()
PUBLIC 128fb0 0 QFSFileEnginePrivate::nativeRead(char *,__int64)
PUBLIC 129150 0 QFSFileEnginePrivate::nativeReadLine(char *,__int64)
PUBLIC 1291a0 0 QFSFileEnginePrivate::nativeSeek(__int64)
PUBLIC 129290 0 QFSFileEnginePrivate::nativeSize()
PUBLIC 129390 0 QFSFileEnginePrivate::nativeSyncToDisk()
PUBLIC 1293b0 0 QFSFileEnginePrivate::nativeWrite(char const *,__int64)
PUBLIC 1294e0 0 QFSFileEngine::owner(QAbstractFileEngine::FileOwner)
PUBLIC 129510 0 QFSFileEngine::remove()
PUBLIC 1295d0 0 QFSFileEngine::rename(QString const &)
PUBLIC 129700 0 QFSFileEngine::renameOverwrite(QString const &)
PUBLIC 1298c0 0 QFSFileEngine::rmdir(QString const &,bool)
PUBLIC 129980 0 QFSFileEngine::setPermissions(unsigned int)
PUBLIC 129a40 0 QFSFileEngine::setSize(__int64)
PUBLIC 129c10 0 QFSFileEnginePrivate::unmap(unsigned char *)
PUBLIC 12a160 0 QFileSystemEngine::resolveEntryAndCreateLegacyEngine(QFileSystemEntry &,QFileSystemMetaData &)
PUBLIC 12a2c0 0 QFileSystemEngine::slowCanonicalized(QString const &)
PUBLIC 12a8c0 0 QFileInfo::symLinkTarget()
PUBLIC 12a8e0 0 QResource::QResource(QString const &,QLocale const &)
PUBLIC 12a9a0 0 QResourceFileEngine::QResourceFileEngine(QString const &)
PUBLIC 12aad0 0 QResourceFileEnginePrivate::QResourceFileEnginePrivate()
PUBLIC 12ac10 0 QScopedPointer<QResourcePrivate,QScopedPointerDeleter<QResourcePrivate> >::~QScopedPointer<QResourcePrivate,QScopedPointerDeleter<QResourcePrivate> >()
PUBLIC 12ac30 0 QResourceFileEnginePrivate::~QResourceFileEnginePrivate()
PUBLIC 12acf0 0 QResourcePrivate::~QResourcePrivate()
PUBLIC 12ae10 0 QResourceFileEngine::`vector deleting destructor'(unsigned int)
PUBLIC 12ae40 0 QResourceFileEnginePrivate::`vector deleting destructor'(unsigned int)
PUBLIC 12ae60 0 QResource::absoluteFilePath()
PUBLIC 12aea0 0 QResourceFileEngine::atEnd()
PUBLIC 12aef0 0 QResourceFileEngine::beginEntryList(QFlags<QDir::Filter>,QStringList const &)
PUBLIC 12af60 0 QResource::children()
PUBLIC 12af90 0 QResourceRoot::children(int)
PUBLIC 12b1d0 0 QResourcePrivate::clear()
PUBLIC 12b2f0 0 QResourceFileEngine::close()
PUBLIC 12b310 0 QResourceRoot::data(int,__int64 *)
PUBLIC 12b3e0 0 QResourcePrivate::ensureChildren()
PUBLIC 12b740 0 QResourcePrivate::ensureInitialized()
PUBLIC 12bb50 0 QFSFileEngine::entryList(QFlags<QDir::Filter>,QStringList const &)
PUBLIC 12bb80 0 QResourceFileEngine::extension(QAbstractFileEngine::Extension,QAbstractFileEngine::ExtensionOption const *,QAbstractFileEngine::ExtensionReturn *)
PUBLIC 12bbc0 0 QResourceFileEngine::fileFlags(QFlags<QAbstractFileEngine::FileFlag>)
PUBLIC 12bcd0 0 QResource::fileName()
PUBLIC 12bd10 0 QResourceFileEngine::fileName(QAbstractFileEngine::FileName)
PUBLIC 12c050 0 QResourceRoot::findNode(QString const &,QLocale const &)
PUBLIC 12c850 0 `anonymous namespace'::Q_QGS_resourceList::innerFunction()
PUBLIC 12c910 0 `anonymous namespace'::Q_QGS_resourceMutex::innerFunction()
PUBLIC 12c9e0 0 `anonymous namespace'::Q_QGS_resourceSearchPaths::innerFunction()
PUBLIC 12caa0 0 QResource::isValid()
PUBLIC 12cac0 0 QAbstractFileEngine::copy(QString const &)
PUBLIC 12cad0 0 QResourcePrivate::load(QString const &)
PUBLIC 12cdf0 0 QResourceFileEnginePrivate::map(__int64,__int64,QFileDevice::MemoryMapFlags)
PUBLIC 12cef0 0 QResourceRoot::mappingRootSubdir(QString const &,QString *)
PUBLIC 12d190 0 QResourceRoot::name(int)
PUBLIC 12d310 0 QStringSplitter::next()
PUBLIC 12d350 0 QResourceFileEngine::open(QFlags<QIODevice::OpenModeFlag>)
PUBLIC 12d400 0 QFSFileEngine::ownerId(QAbstractFileEngine::FileOwner)
PUBLIC 12d410 0 QResourceFileEngine::pos()
PUBLIC 12d420 0 QResourceFileEngine::read(char *,__int64)
PUBLIC 12d4d0 0 QResourceFileEngine::seek(__int64)
PUBLIC 12d520 0 QResourceFileEngine::setFileName(QString const &)
PUBLIC 12d540 0 QResourceFileEngine::size()
PUBLIC 12d5a0 0 QResourceFileEngine::supportsExtension(QAbstractFileEngine::Extension)
PUBLIC 12d5c0 0 QReadWriteLock::QReadWriteLock(QReadWriteLock::RecursionMode)
PUBLIC 12d640 0 QReadWriteLockPrivate::QReadWriteLockPrivate(QReadWriteLock::RecursionMode)
PUBLIC 12d6d0 0 QReadWriteLock::~QReadWriteLock()
PUBLIC 12d6f0 0 QReadWriteLockPrivate::~QReadWriteLockPrivate()
PUBLIC 12d790 0 QHash<void *,int>::find(void * const &)
PUBLIC 12d840 0 QReadWriteLock::lockForRead()
PUBLIC 12d950 0 QReadWriteLock::lockForWrite()
PUBLIC 12da10 0 QReadWriteLock::unlock()
PUBLIC 12db20 0 QCoreGlobalData::QCoreGlobalData()
PUBLIC 12db90 0 QMap<QString,QStringList>::~QMap<QString,QStringList>()
PUBLIC 12dbe0 0 QCoreGlobalData::~QCoreGlobalData()
PUBLIC 12dd20 0 `anonymous namespace'::Q_QGS_globalInstance::innerFunction()
PUBLIC 12ddf0 0 QCoreGlobalData::instance()
PUBLIC 12de10 0 QLoggingCategory::QLoggingCategory(char const *)
PUBLIC 12de60 0 QLoggingCategory::defaultCategory()
PUBLIC 12de80 0 `anonymous namespace'::Q_QGS_qtDefaultCategory::innerFunction()
PUBLIC 12df50 0 QLoggingCategory::isEnabled(QtMsgType)
PUBLIC 12dff0 0 QLoggingCategory::setEnabled(QtMsgType,bool)
PUBLIC 12e040 0 z_compress
PUBLIC 12e060 0 z_compress2
PUBLIC 12e110 0 z_compressBound
PUBLIC 12e130 0 z_uncompress
PUBLIC 12e1e0 0 QCoreApplication::qt_static_metacall(QObject *,QMetaObject::Call,int,void * *)
PUBLIC 12e310 0 QCoreApplication::aboutToQuit(QCoreApplication::QPrivateSignal)
PUBLIC 12e330 0 QCoreApplication::applicationNameChanged()
PUBLIC 12e350 0 QCoreApplication::applicationVersionChanged()
PUBLIC 12e370 0 QCoreApplication::metaObject()
PUBLIC 12e390 0 QCoreApplication::organizationDomainChanged()
PUBLIC 12e3b0 0 QCoreApplication::organizationNameChanged()
PUBLIC 12e3d0 0 QCoreApplication::qt_metacall(QMetaObject::Call,int,void * *)
PUBLIC 12e610 0 QCoreApplication::qt_metacast(char const *)
PUBLIC 12e670 0 QTimer::qt_static_metacall(QObject *,QMetaObject::Call,int,void * *)
PUBLIC 12e700 0 QTimer::metaObject()
PUBLIC 12e720 0 QTimer::qt_metacall(QMetaObject::Call,int,void * *)
PUBLIC 12e8b0 0 QTimer::qt_metacast(char const *)
PUBLIC 12e910 0 QTimer::timeout(QTimer::QPrivateSignal)
PUBLIC 12e930 0 QStringBuilder<QStringBuilder<QLatin1Char,QString>,QLatin1Char>::convertTo<QString>()
PUBLIC 12e9e0 0 QStringBuilder<QStringBuilder<QLatin1Char,QString>,QLatin1Char>::operator QString()
PUBLIC 12ea00 0 QProcessPrivate::_q_notified()
PUBLIC 12ea60 0 QProcessPrivate::bytesAvailableInChannel(QProcessPrivate::Channel const *)
PUBLIC 12ea80 0 QProcessPrivate::closeChannel(QProcessPrivate::Channel *)
PUBLIC 12eb00 0 QProcessPrivate::destroyPipe(void * * const)
PUBLIC 12eb40 0 QProcessPrivate::drainOutputPipes()
PUBLIC 12ec20 0 QProcessPrivate::findExitCode()
PUBLIC 12ec80 0 QProcessPrivate::flushPipeWriter()
PUBLIC 12ece0 0 QProcessPrivate::killProcess()
PUBLIC 12ed10 0 QProcessPrivate::openChannel(QProcessPrivate::Channel &)
PUBLIC 12f160 0 QProcessPrivate::pipeWriterBytesToWrite()
PUBLIC 12f1c0 0 QProcessPrivate::processStarted()
PUBLIC 12fe00 0 QProcessPrivate::readFromChannel(QProcessPrivate::Channel const *,char *,__int64)
PUBLIC 12fe20 0 QProcessPrivate::startProcess()
PUBLIC 130330 0 QProcessPrivate::terminateProcess()
PUBLIC 130370 0 QProcessPrivate::waitForBytesWritten(int)
PUBLIC 130620 0 QProcessPrivate::waitForFinished(int)
PUBLIC 130950 0 QProcessPrivate::waitForReadyRead(int)
PUBLIC 130bd0 0 QProcessPrivate::waitForStarted(int)
PUBLIC 130c90 0 QProcessPrivate::writeToStdin(char const *,__int64)
PUBLIC 130d30 0 QWinEventNotifier::QWinEventNotifier(void *,QObject *)
PUBLIC 130e20 0 QWinEventNotifier::~QWinEventNotifier()
PUBLIC 130ee0 0 QWinEventNotifier::`vector deleting destructor'(unsigned int)
PUBLIC 130f00 0 QWinEventNotifier::event(QEvent *)
PUBLIC 130fa0 0 QWinEventNotifier::setEnabled(bool)
PUBLIC 131030 0 QCoreApplicationPrivate::appName()
PUBLIC 1310f0 0 qAppFileName()
PUBLIC 131220 0 qWinAppInst()
PUBLIC 131230 0 QCoreApplicationPrivate::removePostedTimerEvent(QObject *,int)
PUBLIC 131330 0 QVector<QLoggingRule>::QVector<QLoggingRule>(QVector<QLoggingRule> const &)
PUBLIC 1313d0 0 QLoggingRegistry::QLoggingRegistry()
PUBLIC 131410 0 QForeachContainer<QVector<QLoggingRule> >::~QForeachContainer<QVector<QLoggingRule> >()
PUBLIC 131460 0 QLoggingRegistry::~QLoggingRegistry()
PUBLIC 1315f0 0 QLoggingSettingsParser::~QLoggingSettingsParser()
PUBLIC 131670 0 QVector<QLoggingRule>::operator=(QVector<QLoggingRule> &&)
PUBLIC 1316a0 0 QVector<QLoggingRule>::operator+(QVector<QLoggingRule> const &)
PUBLIC 131750 0 QVector<QLoggingRule>::operator+=(QVector<QLoggingRule> const &)
PUBLIC 131820 0 QVector<QLoggingRule>::append(QLoggingRule const &)
PUBLIC 131950 0 QVector<QLoggingRule>::clear()
PUBLIC 131a00 0 QVector<QLoggingRule>::copyConstruct(QLoggingRule const *,QLoggingRule const *,QLoggingRule *)
PUBLIC 131a60 0 QLoggingRegistry::defaultCategoryFilter(QLoggingCategory *)
PUBLIC 131c90 0 QVector<QLoggingRule>::defaultConstruct(QLoggingRule *,QLoggingRule *)
PUBLIC 131cd0 0 QVector<QLoggingRule>::destruct(QLoggingRule *,QLoggingRule *)
PUBLIC 131d20 0 QLoggingRegistry::init()
PUBLIC 132360 0 `anonymous namespace'::Q_QGS_qtLoggingRegistry::innerFunction()
PUBLIC 132430 0 QHash<int,QSockNot *>::insert(int const &,QSockNot * const &)
PUBLIC 132530 0 QLoggingRegistry::instance()
PUBLIC 132550 0 QHash<unsigned char *,unsigned long>::keys()
PUBLIC 132620 0 QLoggingRule::parse(QStringRef const &)
PUBLIC 1327d0 0 QLoggingRule::pass(QString const &,QtMsgType)
PUBLIC 1328e0 0 QVector<QLoggingRule>::reallocData(int,int,QFlags<QArrayData::AllocationOption>)
PUBLIC 132b60 0 QLoggingRegistry::registerCategory(QLoggingCategory *,QtMsgType)
PUBLIC 132c00 0 QLoggingSettingsParser::rules()
PUBLIC 132c20 0 QLoggingSettingsParser::setContent(QTextStream &)
PUBLIC 132fb0 0 QLoggingRegistry::unregisterCategory(QLoggingCategory *)
PUBLIC 133030 0 QLoggingRegistry::updateRules()
PUBLIC 133270 0 QHash<int,QSockNot *>::value(int const &)
PUBLIC 1332d0 0 QEventDispatcherWin32::QEventDispatcherWin32(QObject *)
PUBLIC 133350 0 QEventDispatcherWin32Private::QEventDispatcherWin32Private()
PUBLIC 133430 0 QWindowsMessageWindowClassContext::QWindowsMessageWindowClassContext()
PUBLIC 1336c0 0 QZeroTimerEvent::QZeroTimerEvent(int)
PUBLIC 1336f0 0 QForeachContainer<QList<QLoggingCategory *> >::~QForeachContainer<QList<QLoggingCategory *> >()
PUBLIC 133720 0 QEventDispatcherWin32Private::~QEventDispatcherWin32Private()
PUBLIC 1338f0 0 QSet<int>::operator+(QSet<int> const &)
PUBLIC 1339e0 0 QEventDispatcherWin32::`vector deleting destructor'(unsigned int)
PUBLIC 133a10 0 QEventDispatcherWin32Private::`vector deleting destructor'(unsigned int)
PUBLIC 133a30 0 QZeroTimerEvent::`vector deleting destructor'(unsigned int)
PUBLIC 133a50 0 QList<unsigned char *>::append(unsigned char * const &)
PUBLIC 133ae0 0 QList<tagMSG>::append(tagMSG const &)
PUBLIC 133bd0 0 QHash<int,QSockNot *>::begin()
PUBLIC 133c60 0 QEventDispatcherWin32::closingDown()
PUBLIC 133df0 0 QList<QWinEventNotifier *>::contains(QWinEventNotifier * const &)
PUBLIC 133e30 0 QEventDispatcherWin32::createInternalHwnd()
PUBLIC 134270 0 QList<void (*)(void)>::detach_helper(int)
PUBLIC 134340 0 QList<tagMSG>::detach_helper(int)
PUBLIC 134430 0 QList<void (*)(void)>::detach_helper_grow(int,int)
PUBLIC 134550 0 QList<IOResult>::detach_helper_grow(int,int)
PUBLIC 1346b0 0 QList<tagMSG>::detach_helper_grow(int,int)
PUBLIC 134810 0 QEventDispatcherWin32Private::doWsaAsyncSelect(int)
PUBLIC 134880 0 QEventDispatcherWin32::event(QEvent *)
PUBLIC 1349c0 0 QHash<int,QSockNot *>::findNode(int const &,unsigned int *)
PUBLIC 134a30 0 QEventDispatcherWin32::hasPendingEvents()
PUBLIC 134a60 0 QList<QObject *>::indexOf(QObject * const &,int)
PUBLIC 134af0 0 `anonymous namespace'::Q_QGS_qWindowsMessageWindowClassContext::innerFunction()
PUBLIC 134bc0 0 QEventDispatcherWin32::installMessageHook()
PUBLIC 134ce0 0 QEventDispatcherWin32::interrupt()
PUBLIC 134cf0 0 QHash<int,QSockNot *>::keys()
PUBLIC 134dc0 0 QList<void (*)(void)>::node_copy(QList<void (*)(void)>::Node *,QList<void (*)(void)>::Node *,QList<void (*)(void)>::Node *)
PUBLIC 134df0 0 QList<tagMSG>::node_copy(QList<tagMSG>::Node *,QList<tagMSG>::Node *,QList<tagMSG>::Node *)
PUBLIC 134eb0 0 QEventDispatcherWin32::processEvents(QFlags<QEventLoop::ProcessEventsFlag>)
PUBLIC 135600 0 qt_GetMessageHook(int,unsigned int,long)
PUBLIC 135780 0 qt_fast_timer_proc(unsigned int,unsigned int,unsigned long,unsigned long,unsigned long)
PUBLIC 135800 0 qt_internal_proc(HWND__ *,unsigned int,unsigned int,long)
PUBLIC 135a90 0 QVarLengthArray<tagMSG,256>::realloc(int,int)
PUBLIC 135b80 0 QEventDispatcherWin32::registerEventNotifier(QWinEventNotifier *)
PUBLIC 135c90 0 QEventDispatcherWin32::registerSocketNotifier(QSocketNotifier *)
PUBLIC 135d90 0 QEventDispatcherWin32::registerTimer(int,int,Qt::TimerType,QObject *)
PUBLIC 135e10 0 QEventDispatcherWin32Private::registerTimer(WinTimerInfo *)
PUBLIC 135f40 0 QEventDispatcherWin32::registeredTimers(QObject *)
PUBLIC 136070 0 QEventDispatcherWin32::remainingTime(int)
PUBLIC 136100 0 QHash<int,QSockNot *>::remove(int const &)
PUBLIC 1361c0 0 QHash<int,QHashDummyValue>::reserve(int)
PUBLIC 136390 0 QEventDispatcherWin32::sendPostedEvents()
PUBLIC 1363b0 0 QEventDispatcherWin32Private::sendTimerEvent(int)
PUBLIC 136470 0 QList<QWinEventNotifier *>::takeAt(int)
PUBLIC 1364b0 0 QSet<int>::toList()
PUBLIC 136580 0 QList<int>::toSet()
PUBLIC 136630 0 QSet<int>::unite(QSet<int> const &)
PUBLIC 136730 0 QEventDispatcherWin32::unregisterEventNotifier(QWinEventNotifier *)
PUBLIC 1367f0 0 QEventDispatcherWin32::unregisterSocketNotifier(QSocketNotifier *)
PUBLIC 136890 0 QEventDispatcherWin32::unregisterTimer(int)
PUBLIC 136900 0 QEventDispatcherWin32Private::unregisterTimer(WinTimerInfo *)
PUBLIC 136960 0 QEventDispatcherWin32::unregisterTimers(QObject *)
PUBLIC 136a60 0 QEventDispatcherWin32::wakeUp()
PUBLIC 136aa0 0 QLibrary::metaObject()
PUBLIC 136ac0 0 QLibrary::qt_metacall(QMetaObject::Call,int,void * *)
PUBLIC 136bc0 0 QLibrary::qt_metacast(char const *)
PUBLIC 136c20 0 qFromLittleEndian<unsigned __int64>(unsigned char const *)
PUBLIC 136c90 0 QJsonValue::QJsonValue(QJsonPrivate::Data *,QJsonPrivate::Base *,QJsonPrivate::Value const &)
PUBLIC 136de0 0 QJsonValue::QJsonValue(QJsonValue const &)
PUBLIC 136e30 0 QJsonValue::QJsonValue(QLatin1String)
PUBLIC 136ea0 0 QJsonValue::QJsonValue(QJsonValue::Type)
PUBLIC 136ec0 0 QJsonValue::~QJsonValue()
PUBLIC 136f30 0 operator<<(QDebug,QJsonValue const &)
PUBLIC 137250 0 QJsonValue::operator==(QJsonValue const &)
PUBLIC 137500 0 QJsonValue::operator!=(QJsonValue const &)
PUBLIC 137520 0 QJsonValue::toArray(QJsonArray const &)
PUBLIC 137570 0 QJsonValue::toArray()
PUBLIC 1375f0 0 QJsonValue::toBool(bool)
PUBLIC 137600 0 QJsonValue::toDouble(double)
PUBLIC 137620 0 QJsonPrivate::Value::toDouble(QJsonPrivate::Base const *)
PUBLIC 137670 0 QJsonValue::toObject(QJsonObject const &)
PUBLIC 1376c0 0 QJsonValue::toObject()
PUBLIC 137740 0 QJsonPrivate::Latin1String::toString()
PUBLIC 137770 0 QJsonValue::toString(QString const &)
PUBLIC 1377d0 0 QJsonPrivate::String::toString()
PUBLIC 137800 0 QJsonPrivate::Value::toString(QJsonPrivate::Base const *)
PUBLIC 137840 0 QJsonValue::type()
PUBLIC 137850 0 QJsonArray::QJsonArray(QJsonPrivate::Data *,QJsonPrivate::Array *)
PUBLIC 137870 0 QJsonArray::QJsonArray()
PUBLIC 137880 0 operator<<(QDebug,QJsonObject const &)
PUBLIC 1379b0 0 QJsonObject::operator==(QJsonObject const &)
PUBLIC 137b10 0 QJsonPrivate::Entry::key()
PUBLIC 137b50 0 QJsonObject::value(QString const &)
PUBLIC 137bc0 0 operator<<(QDebug,QJsonDocument const &)
PUBLIC 137d10 0 QJsonDocument::operator==(QJsonDocument const &)
PUBLIC 137e90 0 QJsonDocument::fromBinaryData(QByteArray const &,QJsonDocument::DataValidation)
PUBLIC 137fb0 0 QAuthenticator::isNull()
PUBLIC 137fc0 0 QJsonDocument::object()
PUBLIC 138010 0 QLibraryPrivate::load_sys()
PUBLIC 138690 0 QLibraryPrivate::resolve_sys(char const *)
PUBLIC 1388d0 0 QLibraryPrivate::unload_sys()
PUBLIC 138aa0 0 QAbstractEventDispatcher::qt_static_metacall(QObject *,QMetaObject::Call,int,void * *)
PUBLIC 138b20 0 QAbstractEventDispatcher::aboutToBlock()
PUBLIC 138b40 0 QAbstractEventDispatcher::awake()
PUBLIC 138b60 0 QAbstractEventDispatcher::metaObject()
PUBLIC 138b80 0 QAbstractEventDispatcher::qt_metacall(QMetaObject::Call,int,void * *)
PUBLIC 138be0 0 QAbstractEventDispatcher::qt_metacast(char const *)
PUBLIC 138c40 0 operator<<(QDebug,QPoint const &)
PUBLIC 138d50 0 operator<<(QDebug,QPointF const &)
PUBLIC 138e90 0 QVector<TCBPoint>::QVector<TCBPoint>(QVector<TCBPoint> const &)
PUBLIC 138f30 0 BackEase::BackEase(QEasingCurveFunction::Type)
PUBLIC 138f70 0 BezierEase::BezierEase()
PUBLIC 139050 0 BounceEase::BounceEase(QEasingCurveFunction::Type)
PUBLIC 139090 0 ElasticEase::ElasticEase(QEasingCurveFunction::Type)
PUBLIC 1390d0 0 QEasingCurve::QEasingCurve(QEasingCurve const &)
PUBLIC 139170 0 QEasingCurve::QEasingCurve(QEasingCurve::Type)
PUBLIC 1391f0 0 QVector<TCBPoint>::~QVector<TCBPoint>()
PUBLIC 139220 0 BezierEase::~BezierEase()
PUBLIC 139290 0 QEasingCurve::~QEasingCurve()
PUBLIC 1392b0 0 QEasingCurveFunction::~QEasingCurveFunction()
PUBLIC 139320 0 operator<<(QDebug,QEasingCurve const &)
PUBLIC 1396e0 0 QVector<TCBPoint>::operator==(QVector<TCBPoint> const &)
PUBLIC 139750 0 QEasingCurve::operator==(QEasingCurve const &)
PUBLIC 1398f0 0 QEasingCurveFunction::operator==(QEasingCurveFunction const &)
PUBLIC 139a70 0 TCBPoint::operator==(TCBPoint const &)
PUBLIC 139bf0 0 QVector<BezierEase::SingleCubicBezier>::operator[](int)
PUBLIC 139c60 0 BezierEase::`vector deleting destructor'(unsigned int)
